
build/tcrhmag.elf:     file format elf32-littleriscv


Disassembly of section .init:

00000000 <InterruptVector>:
	void InterruptVector()         __attribute__((naked)) __attribute((section(".init"))) __attribute((weak,alias("InterruptVectorDefault"))) __attribute((naked));
	void InterruptVectorDefault()  __attribute__((naked)) __attribute((section(".init"))) __attribute((naked));
	void InterruptVectorDefault( void )
	{
		#if !defined(FUNCONF_TINYVECTOR) || !FUNCONF_TINYVECTOR
			asm volatile( DEFAULT_INTERRUPT_VECTOR_CONTENTS );
   0:	6b80006f          	j	6b8 <handle_reset>
   4:	00000000          	.word	0x00000000
   8:	00000776          	.word	0x00000776
   c:	0000072a          	.word	0x0000072a
	...
  30:	00000b38          	.word	0x00000b38
  34:	00000000          	.word	0x00000000
  38:	0000072a          	.word	0x0000072a
  3c:	00000000          	.word	0x00000000
  40:	0000072a          	.word	0x0000072a
  44:	0000072a          	.word	0x0000072a
  48:	0000072a          	.word	0x0000072a
  4c:	0000072a          	.word	0x0000072a
  50:	00000b6a          	.word	0x00000b6a
  54:	0000072a          	.word	0x0000072a
  58:	0000072a          	.word	0x0000072a
  5c:	0000072a          	.word	0x0000072a
  60:	0000072a          	.word	0x0000072a
  64:	0000072a          	.word	0x0000072a
  68:	0000072a          	.word	0x0000072a
  6c:	0000072a          	.word	0x0000072a
  70:	0000072a          	.word	0x0000072a
  74:	0000072a          	.word	0x0000072a
  78:	0000072a          	.word	0x0000072a
  7c:	0000072a          	.word	0x0000072a
  80:	0000072a          	.word	0x0000072a
  84:	0000072a          	.word	0x0000072a
  88:	0000072a          	.word	0x0000072a
  8c:	0000072a          	.word	0x0000072a
  90:	0000072a          	.word	0x0000072a
  94:	0000072a          	.word	0x0000072a
  98:	0000072a          	.word	0x0000072a
  9c:	0000                	unimp
	...

Disassembly of section .text:

000000a0 <__divsi3>:
  a0:	02054e63          	bltz	a0,dc <__umodsi3+0x8>
  a4:	0405c363          	bltz	a1,ea <__umodsi3+0x16>

000000a8 <__hidden___udivsi3>:
  a8:	862e                	mv	a2,a1
  aa:	85aa                	mv	a1,a0
  ac:	557d                	li	a0,-1
  ae:	c215                	beqz	a2,d2 <__hidden___udivsi3+0x2a>
  b0:	4685                	li	a3,1
  b2:	00b67863          	bgeu	a2,a1,c2 <__hidden___udivsi3+0x1a>
  b6:	00c05663          	blez	a2,c2 <__hidden___udivsi3+0x1a>
  ba:	0606                	slli	a2,a2,0x1
  bc:	0686                	slli	a3,a3,0x1
  be:	feb66ce3          	bltu	a2,a1,b6 <__hidden___udivsi3+0xe>
  c2:	4501                	li	a0,0
  c4:	00c5e463          	bltu	a1,a2,cc <__hidden___udivsi3+0x24>
  c8:	8d91                	sub	a1,a1,a2
  ca:	8d55                	or	a0,a0,a3
  cc:	8285                	srli	a3,a3,0x1
  ce:	8205                	srli	a2,a2,0x1
  d0:	faf5                	bnez	a3,c4 <__hidden___udivsi3+0x1c>
  d2:	8082                	ret

000000d4 <__umodsi3>:
  d4:	8286                	mv	t0,ra
  d6:	3fc9                	jal	a8 <__hidden___udivsi3>
  d8:	852e                	mv	a0,a1
  da:	8282                	jr	t0
  dc:	40a00533          	neg	a0,a0
  e0:	00b04763          	bgtz	a1,ee <__umodsi3+0x1a>
  e4:	40b005b3          	neg	a1,a1
  e8:	b7c1                	j	a8 <__hidden___udivsi3>
  ea:	40b005b3          	neg	a1,a1
  ee:	8286                	mv	t0,ra
  f0:	3f65                	jal	a8 <__hidden___udivsi3>
  f2:	40a00533          	neg	a0,a0
  f6:	8282                	jr	t0

000000f8 <__modsi3>:
  f8:	8286                	mv	t0,ra
  fa:	0005c763          	bltz	a1,108 <__modsi3+0x10>
  fe:	00054963          	bltz	a0,110 <__modsi3+0x18>
 102:	375d                	jal	a8 <__hidden___udivsi3>
 104:	852e                	mv	a0,a1
 106:	8282                	jr	t0
 108:	40b005b3          	neg	a1,a1
 10c:	fe055be3          	bgez	a0,102 <__modsi3+0xa>
 110:	40a00533          	neg	a0,a0
 114:	3f51                	jal	a8 <__hidden___udivsi3>
 116:	40b00533          	neg	a0,a1
 11a:	8282                	jr	t0
	...

0000011e <mini_pad>:
	if(pad_to == 0) pad_to = len;
 11e:	c699                	beqz	a3,12c <mini_pad+0xe>
	int overflow = 0;
 120:	4301                	li	t1,0
	if(len > pad_to) {
 122:	00b6d763          	bge	a3,a1,130 <mini_pad+0x12>
		len = pad_to;
 126:	85b6                	mv	a1,a3
		overflow = 1;
 128:	4305                	li	t1,1
 12a:	a019                	j	130 <mini_pad+0x12>
	int overflow = 0;
 12c:	4301                	li	t1,0
	if(pad_to == 0) pad_to = len;
 12e:	86ae                	mv	a3,a1
	for(i = pad_to - len; i > 0; i --) {
 130:	8e8d                	sub	a3,a3,a1
	char * pbuffer = buffer;
 132:	87ba                	mv	a5,a4
 134:	00e683b3          	add	t2,a3,a4
	for(i = pad_to - len; i > 0; i --) {
 138:	40f382b3          	sub	t0,t2,a5
 13c:	04504a63          	bgtz	t0,190 <mini_pad+0x72>
 140:	fff6c793          	not	a5,a3
 144:	87fd                	srai	a5,a5,0x1f
 146:	8efd                	and	a3,a3,a5
 148:	96ba                	add	a3,a3,a4
 14a:	4781                	li	a5,0
	for(i = len; i > 0; i --) {
 14c:	40f58633          	sub	a2,a1,a5
 150:	00f682b3          	add	t0,a3,a5
 154:	04c04263          	bgtz	a2,198 <mini_pad+0x7a>
 158:	fff5c793          	not	a5,a1
 15c:	87fd                	srai	a5,a5,0x1f
 15e:	8dfd                	and	a1,a1,a5
 160:	95b6                	add	a1,a1,a3
	len = pbuffer - buffer;
 162:	40e58533          	sub	a0,a1,a4
	if(overflow) {
 166:	02030463          	beqz	t1,18e <mini_pad+0x70>
		for (i = 0; i < 3 && pbuffer > buffer; i ++) {
 16a:	02b77263          	bgeu	a4,a1,18e <mini_pad+0x70>
			*(pbuffer-- - 1) = '*';
 16e:	02a00793          	li	a5,42
 172:	fef58fa3          	sb	a5,-1(a1)
 176:	fff58693          	addi	a3,a1,-1
		for (i = 0; i < 3 && pbuffer > buffer; i ++) {
 17a:	00d77a63          	bgeu	a4,a3,18e <mini_pad+0x70>
			*(pbuffer-- - 1) = '*';
 17e:	fef58f23          	sb	a5,-2(a1)
 182:	ffe58693          	addi	a3,a1,-2
		for (i = 0; i < 3 && pbuffer > buffer; i ++) {
 186:	00d77463          	bgeu	a4,a3,18e <mini_pad+0x70>
			*(pbuffer-- - 1) = '*';
 18a:	fef58ea3          	sb	a5,-3(a1)
}
 18e:	8082                	ret
		*(pbuffer++) = pad_char;
 190:	0785                	addi	a5,a5,1
 192:	fec78fa3          	sb	a2,-1(a5)
	for(i = pad_to - len; i > 0; i --) {
 196:	b74d                	j	138 <mini_pad+0x1a>
		*(pbuffer++) = *(ptr++);
 198:	00f50633          	add	a2,a0,a5
 19c:	00064603          	lbu	a2,0(a2)
 1a0:	0785                	addi	a5,a5,1
 1a2:	00c28023          	sb	a2,0(t0)
	for(i = len; i > 0; i --) {
 1a6:	b75d                	j	14c <mini_pad+0x2e>

000001a8 <_puts>:
{
 1a8:	832a                	mv	t1,a0
 1aa:	852e                	mv	a0,a1
	if(!buf) return len;
 1ac:	ce01                	beqz	a2,1c4 <_puts+0x1c>
	char * p0 = b->buffer;
 1ae:	00062283          	lw	t0,0(a2)
	for (i = 0; i < len; i++) {
 1b2:	4701                	li	a4,0
		if(b->pbuffer == b->buffer + b->buffer_len - 1) {
 1b4:	425c                	lw	a5,4(a2)
	for (i = 0; i < len; i++) {
 1b6:	00a74863          	blt	a4,a0,1c6 <_puts+0x1e>
	*(b->pbuffer) = 0;
 1ba:	00078023          	sb	zero,0(a5)
	return b->pbuffer - p0;
 1be:	4248                	lw	a0,4(a2)
 1c0:	40550533          	sub	a0,a0,t0
}
 1c4:	8082                	ret
		if(b->pbuffer == b->buffer + b->buffer_len - 1) {
 1c6:	460c                	lw	a1,8(a2)
 1c8:	4214                	lw	a3,0(a2)
 1ca:	15fd                	addi	a1,a1,-1
 1cc:	96ae                	add	a3,a3,a1
 1ce:	fed786e3          	beq	a5,a3,1ba <_puts+0x12>
		*(b->pbuffer ++) = s[i];
 1d2:	00178693          	addi	a3,a5,1
 1d6:	c254                	sw	a3,4(a2)
 1d8:	00e306b3          	add	a3,t1,a4
 1dc:	0006c683          	lbu	a3,0(a3)
	for (i = 0; i < len; i++) {
 1e0:	0705                	addi	a4,a4,1
		*(b->pbuffer ++) = s[i];
 1e2:	00d78023          	sb	a3,0(a5)
	for (i = 0; i < len; i++) {
 1e6:	b7f9                	j	1b4 <_puts+0xc>

000001e8 <PrintHex>:
	while( (*DMDATA0) & 0x80 );
 1e8:	e00007b7          	lui	a5,0xe0000
 1ec:	0f478793          	addi	a5,a5,244 # e00000f4 <_eusrstack+0xbffff8f4>
 1f0:	4398                	lw	a4,0(a5)
 1f2:	08077713          	andi	a4,a4,128
 1f6:	ff6d                	bnez	a4,1f0 <PrintHex+0x8>
	*DMDATA0 = 0x78302088; //" 0x"
 1f8:	78302737          	lui	a4,0x78302
 1fc:	08870713          	addi	a4,a4,136 # 78302088 <_eusrstack+0x58301888>
		while( (*DMDATA0) & 0x80 );
 200:	e00006b7          	lui	a3,0xe0000
	*DMDATA0 = 0x78302088; //" 0x"
 204:	c398                	sw	a4,0(a5)
		while( (*DMDATA0) & 0x80 );
 206:	0f468693          	addi	a3,a3,244 # e00000f4 <_eusrstack+0xbffff8f4>
	for( shift = 28; shift >= 0; shift -= 4 )
 20a:	4771                	li	a4,28
		s += ( s < 10 ) ? '0' : ('a' - 10);
 20c:	45a5                	li	a1,9
	for( shift = 28; shift >= 0; shift -= 4 )
 20e:	5671                	li	a2,-4
		while( (*DMDATA0) & 0x80 );
 210:	429c                	lw	a5,0(a3)
 212:	0807f793          	andi	a5,a5,128
 216:	ffed                	bnez	a5,210 <PrintHex+0x28>
		int s = (n>>shift) & 0xf;
 218:	00e55333          	srl	t1,a0,a4
 21c:	00f37313          	andi	t1,t1,15
		s += ( s < 10 ) ? '0' : ('a' - 10);
 220:	0065b7b3          	sltu	a5,a1,t1
 224:	40f007b3          	neg	a5,a5
 228:	0277f793          	andi	a5,a5,39
 22c:	03078793          	addi	a5,a5,48
 230:	979a                	add	a5,a5,t1
		*DMDATA0 = 0x85 | (s<<8); //" 0x"
 232:	07a2                	slli	a5,a5,0x8
 234:	0857e793          	ori	a5,a5,133
 238:	c29c                	sw	a5,0(a3)
	for( shift = 28; shift >= 0; shift -= 4 )
 23a:	1771                	addi	a4,a4,-4
 23c:	fcc71ae3          	bne	a4,a2,210 <PrintHex+0x28>
}
 240:	8082                	ret

00000242 <DelaySysTick>:
#endif

void DelaySysTick( uint32_t n )
{
#if defined(CH32V003) || defined(CH32V00x)
	uint32_t targend = SysTick->CNT + n;
 242:	e000f737          	lui	a4,0xe000f
 246:	471c                	lw	a5,8(a4)
 248:	953e                	add	a0,a0,a5
	while( ((int32_t)( SysTick->CNT - targend )) < 0 );
 24a:	471c                	lw	a5,8(a4)
 24c:	8f89                	sub	a5,a5,a0
 24e:	fe07cee3          	bltz	a5,24a <DelaySysTick+0x8>
	uint64_t targend = SysTick->CNT - n;
	while( ((int64_t)( SysTick->CNT - targend )) > 0 );
#else
	#error DelaySysTick not defined.
#endif
}
 252:	8082                	ret

00000254 <mini_itoa.part.0>:
int mini_itoa(long value, unsigned int radix, int uppercase, int unsig, char *buffer)
 254:	1101                	addi	sp,sp,-32
 256:	ce06                	sw	ra,28(sp)
 258:	cc22                	sw	s0,24(sp)
 25a:	ca26                	sw	s1,20(sp)
	int	negative = 0;
 25c:	c002                	sw	zero,0(sp)
int mini_itoa(long value, unsigned int radix, int uppercase, int unsig, char *buffer)
 25e:	832a                	mv	t1,a0
	if (value < 0 && !unsig) {
 260:	00055763          	bgez	a0,26e <mini_itoa.part.0+0x1a>
 264:	e689                	bnez	a3,26e <mini_itoa.part.0+0x1a>
		negative = 1;
 266:	4785                	li	a5,1
		value = -value;
 268:	40a00333          	neg	t1,a0
		negative = 1;
 26c:	c03e                	sw	a5,0(sp)
 26e:	8a05                	andi	a2,a2,1
 270:	06100413          	li	s0,97
 274:	c219                	beqz	a2,27a <mini_itoa.part.0+0x26>
 276:	04100413          	li	s0,65
	int	negative = 0;
 27a:	84ba                	mv	s1,a4
		*(pbuffer++) = (digit < 10 ? '0' + digit : (uppercase ? 'A' : 'a') + digit - 10);
 27c:	1459                	addi	s0,s0,-10
		int digit = value % radix;
 27e:	851a                	mv	a0,t1
 280:	c83a                	sw	a4,16(sp)
 282:	c21a                	sw	t1,4(sp)
 284:	c62e                	sw	a1,12(sp)
 286:	c41a                	sw	t1,8(sp)
 288:	35b1                	jal	d4 <__umodsi3>
		*(pbuffer++) = (digit < 10 ? '0' + digit : (uppercase ? 'A' : 'a') + digit - 10);
 28a:	47a5                	li	a5,9
 28c:	4322                	lw	t1,8(sp)
 28e:	45b2                	lw	a1,12(sp)
 290:	4742                	lw	a4,16(sp)
 292:	0ff57693          	zext.b	a3,a0
 296:	06a7e163          	bltu	a5,a0,2f8 <mini_itoa.part.0+0xa4>
 29a:	03068693          	addi	a3,a3,48
 29e:	0ff6f693          	zext.b	a3,a3
 2a2:	00148793          	addi	a5,s1,1
 2a6:	00d48023          	sb	a3,0(s1)
		value /= radix;
 2aa:	851a                	mv	a0,t1
 2ac:	c83a                	sw	a4,16(sp)
		*(pbuffer++) = (digit < 10 ? '0' + digit : (uppercase ? 'A' : 'a') + digit - 10);
 2ae:	c63e                	sw	a5,12(sp)
		value /= radix;
 2b0:	c42e                	sw	a1,8(sp)
 2b2:	3bdd                	jal	a8 <__hidden___udivsi3>
	} while (value > 0);
 2b4:	4692                	lw	a3,4(sp)
 2b6:	45a2                	lw	a1,8(sp)
 2b8:	47b2                	lw	a5,12(sp)
 2ba:	4742                	lw	a4,16(sp)
		value /= radix;
 2bc:	832a                	mv	t1,a0
	} while (value > 0);
 2be:	02b6fb63          	bgeu	a3,a1,2f4 <mini_itoa.part.0+0xa0>
	if (negative)
 2c2:	4682                	lw	a3,0(sp)
 2c4:	c699                	beqz	a3,2d2 <mini_itoa.part.0+0x7e>
		*(pbuffer++) = '-';
 2c6:	02d00693          	li	a3,45
 2ca:	00d78023          	sb	a3,0(a5)
 2ce:	00248793          	addi	a5,s1,2
	len = (pbuffer - buffer);
 2d2:	40e78533          	sub	a0,a5,a4
	for (i = 0; i < len / 2; i++) {
 2d6:	01f55693          	srli	a3,a0,0x1f
 2da:	96aa                	add	a3,a3,a0
	*(pbuffer) = '\0';
 2dc:	00078023          	sb	zero,0(a5)
	for (i = 0; i < len / 2; i++) {
 2e0:	8685                	srai	a3,a3,0x1
 2e2:	4601                	li	a2,0
 2e4:	17fd                	addi	a5,a5,-1
 2e6:	00d64b63          	blt	a2,a3,2fc <mini_itoa.part.0+0xa8>
}
 2ea:	40f2                	lw	ra,28(sp)
 2ec:	4462                	lw	s0,24(sp)
 2ee:	44d2                	lw	s1,20(sp)
 2f0:	6105                	addi	sp,sp,32
 2f2:	8082                	ret
		*(pbuffer++) = (digit < 10 ? '0' + digit : (uppercase ? 'A' : 'a') + digit - 10);
 2f4:	84be                	mv	s1,a5
 2f6:	b761                	j	27e <mini_itoa.part.0+0x2a>
 2f8:	96a2                	add	a3,a3,s0
 2fa:	b755                	j	29e <mini_itoa.part.0+0x4a>
		char j = buffer[i];
 2fc:	00c705b3          	add	a1,a4,a2
		buffer[i] = buffer[len-i-1];
 300:	0007c283          	lbu	t0,0(a5)
		char j = buffer[i];
 304:	0005c303          	lbu	t1,0(a1)
	for (i = 0; i < len / 2; i++) {
 308:	0605                	addi	a2,a2,1
		buffer[i] = buffer[len-i-1];
 30a:	00558023          	sb	t0,0(a1)
		buffer[len-i-1] = j;
 30e:	00678023          	sb	t1,0(a5)
	for (i = 0; i < len / 2; i++) {
 312:	bfc9                	j	2e4 <mini_itoa.part.0+0x90>

00000314 <i2c_error>:
/// the bit flags
/// @param none
/// @return i2c_err_t error value
static inline i2c_err_t i2c_error(void)
{
	if(I2C1->STAR1 & I2C_STAR1_BERR)  {I2C1->STAR1 &= ~I2C_STAR1_BERR;  return I2C_ERR_BERR;}
 314:	400057b7          	lui	a5,0x40005
 318:	4147d703          	lhu	a4,1044(a5) # 40005414 <_eusrstack+0x20004c14>
 31c:	40078793          	addi	a5,a5,1024
 320:	10077713          	andi	a4,a4,256
 324:	cb19                	beqz	a4,33a <i2c_error+0x26>
 326:	0147d703          	lhu	a4,20(a5)
 32a:	66c1                	lui	a3,0x10
 32c:	eff68693          	addi	a3,a3,-257 # feff <oled.c.2efc7f3d+0xb38c>
 330:	8f75                	and	a4,a4,a3
 332:	00e79a23          	sh	a4,20(a5)
 336:	4505                	li	a0,1
 338:	8082                	ret
	if(I2C1->STAR1 & I2C_STAR1_AF)    {I2C1->STAR1 &= ~I2C_STAR1_AF;    return I2C_ERR_NACK;}
 33a:	0147d703          	lhu	a4,20(a5)
 33e:	40077713          	andi	a4,a4,1024
 342:	cb19                	beqz	a4,358 <i2c_error+0x44>
 344:	0147d703          	lhu	a4,20(a5)
 348:	66c1                	lui	a3,0x10
 34a:	bff68693          	addi	a3,a3,-1025 # fbff <oled.c.2efc7f3d+0xb08c>
 34e:	8f75                	and	a4,a4,a3
 350:	00e79a23          	sh	a4,20(a5)
 354:	4509                	li	a0,2
 356:	8082                	ret
	if(I2C1->STAR1 & I2C_STAR1_ARLO)  {I2C1->STAR1 &= ~I2C_STAR1_ARLO;  return I2C_ERR_ARLO;}
 358:	0147d703          	lhu	a4,20(a5)
 35c:	20077713          	andi	a4,a4,512
 360:	cb19                	beqz	a4,376 <i2c_error+0x62>
 362:	0147d703          	lhu	a4,20(a5)
 366:	66c1                	lui	a3,0x10
 368:	dff68693          	addi	a3,a3,-513 # fdff <oled.c.2efc7f3d+0xb28c>
 36c:	8f75                	and	a4,a4,a3
 36e:	00e79a23          	sh	a4,20(a5)
 372:	450d                	li	a0,3
 374:	8082                	ret
	if(I2C1->STAR1 & I2C_STAR1_OVR)   {I2C1->STAR1 &= ~I2C_STAR1_OVR;   return I2C_ERR_OVR;}
 376:	0147d703          	lhu	a4,20(a5)

	return I2C_OK;
 37a:	4501                	li	a0,0
	if(I2C1->STAR1 & I2C_STAR1_OVR)   {I2C1->STAR1 &= ~I2C_STAR1_OVR;   return I2C_ERR_OVR;}
 37c:	01471693          	slli	a3,a4,0x14
 380:	0006db63          	bgez	a3,396 <i2c_error+0x82>
 384:	0147d703          	lhu	a4,20(a5)
 388:	76fd                	lui	a3,0xfffff
 38a:	7ff68693          	addi	a3,a3,2047 # fffff7ff <_eusrstack+0xdfffefff>
 38e:	8f75                	and	a4,a4,a3
 390:	00e79a23          	sh	a4,20(a5)
 394:	4511                	li	a0,4
}
 396:	8082                	ret

00000398 <internal_handle_input.constprop.0>:
	uint32_t dmd0 = *dmdata0;
 398:	e00007b7          	lui	a5,0xe0000
 39c:	0f47a783          	lw	a5,244(a5) # e00000f4 <_eusrstack+0xbffff8f4>
}
 3a0:	8082                	ret

000003a2 <_write.constprop.0>:
	if( ( *DMDATA0 & 0xc0 ) == 0xc0 ) return 0;
 3a2:	e00007b7          	lui	a5,0xe0000
 3a6:	0f478793          	addi	a5,a5,244 # e00000f4 <_eusrstack+0xbffff8f4>
 3aa:	4398                	lw	a4,0(a5)
WEAK int _write(int fd, const char *buf, int size)
 3ac:	1121                	addi	sp,sp,-24
 3ae:	ca06                	sw	ra,20(sp)
 3b0:	c822                	sw	s0,16(sp)
 3b2:	c626                	sw	s1,12(sp)
	if( ( *DMDATA0 & 0xc0 ) == 0xc0 ) return 0;
 3b4:	0c077713          	andi	a4,a4,192
 3b8:	0c000693          	li	a3,192
 3bc:	00d70b63          	beq	a4,a3,3d2 <_write.constprop.0+0x30>
	char buffer[4] = { 0 };
 3c0:	c402                	sw	zero,8(sp)
 3c2:	842e                	mv	s0,a1
	if( size == 0 )
 3c4:	eddd                	bnez	a1,482 <_write.constprop.0+0xe0>
		lastdmd = (*DMDATA0);
 3c6:	439c                	lw	a5,0(a5)
		if( lastdmd && !(lastdmd&0x80) ) internal_handle_input( (uint32_t*)DMDATA0 );
 3c8:	c789                	beqz	a5,3d2 <_write.constprop.0+0x30>
 3ca:	0807f793          	andi	a5,a5,128
 3ce:	e391                	bnez	a5,3d2 <_write.constprop.0+0x30>
 3d0:	37e1                	jal	398 <internal_handle_input.constprop.0>
	if( ( *DMDATA0 & 0xc0 ) == 0xc0 ) return 0;
 3d2:	4401                	li	s0,0
}
 3d4:	40d2                	lw	ra,20(sp)
 3d6:	8522                	mv	a0,s0
 3d8:	4442                	lw	s0,16(sp)
 3da:	44b2                	lw	s1,12(sp)
 3dc:	0161                	addi	sp,sp,24
 3de:	8082                	ret
		int tosend = size - place;
 3e0:	409407b3          	sub	a5,s0,s1
		if( tosend > 7 ) tosend = 7;
 3e4:	471d                	li	a4,7
 3e6:	00f75363          	bge	a4,a5,3ec <_write.constprop.0+0x4a>
 3ea:	87ba                	mv	a5,a4
 3ec:	001006b7          	lui	a3,0x100
		while( ( lastdmd = (*DMDATA0) ) & 0x80 )
 3f0:	e0000737          	lui	a4,0xe0000
		if( tosend > 7 ) tosend = 7;
 3f4:	0685                	addi	a3,a3,1 # 100001 <oled.c.2efc7f3d+0xfb48e>
		while( ( lastdmd = (*DMDATA0) ) & 0x80 )
 3f6:	0f470713          	addi	a4,a4,244 # e00000f4 <_eusrstack+0xbffff8f4>
 3fa:	4310                	lw	a2,0(a4)
 3fc:	08067593          	andi	a1,a2,128
 400:	e1a5                	bnez	a1,460 <_write.constprop.0+0xbe>
		if( lastdmd ) internal_handle_input( (uint32_t*)DMDATA0 );
 402:	c611                	beqz	a2,40e <_write.constprop.0+0x6c>
 404:	c22a                	sw	a0,4(sp)
 406:	c03e                	sw	a5,0(sp)
 408:	3f41                	jal	398 <internal_handle_input.constprop.0>
 40a:	4512                	lw	a0,4(sp)
 40c:	4782                	lw	a5,0(sp)
 40e:	0034                	addi	a3,sp,8
		if( tosend > 7 ) tosend = 7;
 410:	470d                	li	a4,3
 412:	85b6                	mv	a1,a3
		while( t < tosend )
 414:	04f74d63          	blt	a4,a5,46e <_write.constprop.0+0xcc>
		*DMDATA1 = *(uint32_t*)&(buffer[0]);
 418:	46a2                	lw	a3,8(sp)
 41a:	e0000737          	lui	a4,0xe0000
		while( t < tosend && t < 3 )
 41e:	460d                	li	a2,3
		*DMDATA1 = *(uint32_t*)&(buffer[0]);
 420:	0ed72c23          	sw	a3,248(a4) # e00000f8 <_eusrstack+0xbffff8f8>
 424:	009506b3          	add	a3,a0,s1
		t = 0;
 428:	4701                	li	a4,0
			buffer[t+1] = buf[t+place];
 42a:	0006c283          	lbu	t0,0(a3)
 42e:	0705                	addi	a4,a4,1
 430:	00e58333          	add	t1,a1,a4
 434:	00530023          	sb	t0,0(t1)
		while( t < tosend && t < 3 )
 438:	00e78563          	beq	a5,a4,442 <_write.constprop.0+0xa0>
 43c:	0685                	addi	a3,a3,1
 43e:	fec716e3          	bne	a4,a2,42a <_write.constprop.0+0x88>
		buffer[0] = 0x80 | (tosend + 4);
 442:	00478713          	addi	a4,a5,4
 446:	f8076713          	ori	a4,a4,-128
 44a:	00e10423          	sb	a4,8(sp)
		*DMDATA0 = *(uint32_t*)&(buffer[0]);
 44e:	46a2                	lw	a3,8(sp)
 450:	e0000737          	lui	a4,0xe0000
		place += tosend;
 454:	94be                	add	s1,s1,a5
		*DMDATA0 = *(uint32_t*)&(buffer[0]);
 456:	0ed72a23          	sw	a3,244(a4) # e00000f4 <_eusrstack+0xbffff8f4>
	while( place < size )
 45a:	f884c3e3          	blt	s1,s0,3e0 <_write.constprop.0+0x3e>
 45e:	bf9d                	j	3d4 <_write.constprop.0+0x32>
			if( timeout-- == 0 )
 460:	16fd                	addi	a3,a3,-1
 462:	fec1                	bnez	a3,3fa <_write.constprop.0+0x58>
				*DMDATA0 |= 0xc0;
 464:	431c                	lw	a5,0(a4)
 466:	0c07e793          	ori	a5,a5,192
 46a:	c31c                	sw	a5,0(a4)
				return 0;
 46c:	b79d                	j	3d2 <_write.constprop.0+0x30>
			buffer[t-3] = buf[t+place];
 46e:	00e48633          	add	a2,s1,a4
 472:	962a                	add	a2,a2,a0
 474:	00064603          	lbu	a2,0(a2)
			t++;
 478:	0705                	addi	a4,a4,1
 47a:	0685                	addi	a3,a3,1
			buffer[t-3] = buf[t+place];
 47c:	fec68fa3          	sb	a2,-1(a3)
 480:	bf51                	j	414 <_write.constprop.0+0x72>
 482:	4481                	li	s1,0
 484:	bfd9                	j	45a <_write.constprop.0+0xb8>

00000486 <__puts_uart>:
{
 486:	1161                	addi	sp,sp,-8
 488:	c022                	sw	s0,0(sp)
 48a:	c206                	sw	ra,4(sp)
 48c:	842e                	mv	s0,a1
	_write( 0, s, len );
 48e:	3f11                	jal	3a2 <_write.constprop.0>
}
 490:	4092                	lw	ra,4(sp)
 492:	8522                	mv	a0,s0
 494:	4402                	lw	s0,0(sp)
 496:	0121                	addi	sp,sp,8
 498:	8082                	ret

0000049a <i2c_write_reg>:


i2c_err_t i2c_write_reg(const i2c_device_t *dev,    const uint32_t reg,
                                                    const uint8_t *buf,
                                                    const size_t len)
{
 49a:	1101                	addi	sp,sp,-32
 49c:	cc22                	sw	s0,24(sp)
	I2C_TIMEOUT_WAIT_FOR((I2C1->STAR2 & I2C_STAR2_BUSY), i2c_ret);
 49e:	c181a403          	lw	s0,-1000(gp) # 20000014 <_i2c_timeout>
 4a2:	400057b7          	lui	a5,0x40005
{
 4a6:	ca26                	sw	s1,20(sp)
 4a8:	c232                	sw	a2,4(sp)
 4aa:	ce06                	sw	ra,28(sp)
 4ac:	84aa                	mv	s1,a0
 4ae:	c02e                	sw	a1,0(sp)
 4b0:	c436                	sw	a3,8(sp)
	I2C_TIMEOUT_WAIT_FOR((I2C1->STAR2 & I2C_STAR2_BUSY), i2c_ret);
 4b2:	8622                	mv	a2,s0
 4b4:	40078793          	addi	a5,a5,1024 # 40005400 <_eusrstack+0x20004c00>
 4b8:	0187d683          	lhu	a3,24(a5)
 4bc:	8a89                	andi	a3,a3,2
 4be:	e6d1                	bnez	a3,54a <i2c_write_reg+0xb0>
	I2C1->CTLR1 |= I2C_CTLR1_START;
 4c0:	0007d683          	lhu	a3,0(a5)
	return (status & status_mask) == status_mask; 
 4c4:	00030637          	lui	a2,0x30
 4c8:	0605                	addi	a2,a2,1 # 30001 <oled.c.2efc7f3d+0x2b48e>
	I2C1->CTLR1 |= I2C_CTLR1_START;
 4ca:	1006e693          	ori	a3,a3,256
 4ce:	00d79023          	sh	a3,0(a5)
	uint32_t status = (uint32_t)I2C1->STAR1 | (uint32_t)(I2C1->STAR2 << 16);
 4d2:	400056b7          	lui	a3,0x40005
 4d6:	40068693          	addi	a3,a3,1024 # 40005400 <_eusrstack+0x20004c00>
 4da:	0146d583          	lhu	a1,20(a3)
 4de:	0186d783          	lhu	a5,24(a3)
 4e2:	07c2                	slli	a5,a5,0x10
 4e4:	8fcd                	or	a5,a5,a1
	return (status & status_mask) == status_mask; 
 4e6:	8ff1                	and	a5,a5,a2
	while(!i2c_status(I2C_EVENT_MASTER_MODE_SELECT));
 4e8:	fec799e3          	bne	a5,a2,4da <i2c_write_reg+0x40>
	if(dev->type == I2C_ADDR_7BIT)
 4ec:	40dc                	lw	a5,4(s1)
 4ee:	c7bd                	beqz	a5,55c <i2c_write_reg+0xc2>
	if(dev->type == I2C_ADDR_10BIT)
 4f0:	4605                	li	a2,1
 4f2:	0ac78363          	beq	a5,a2,598 <i2c_write_reg+0xfe>
	if(i2c_ret == I2C_OK) { i2c_start(); i2c_ret = i2c_send_addr(I2C_WRITE, dev); }

	// Send the register byte/s - MSBFirst
	if(i2c_ret == I2C_OK)
	{
		for(int8_t b = dev->regb - 1; b >= 0; b--)
 4f6:	00a4c783          	lbu	a5,10(s1)
 4fa:	17fd                	addi	a5,a5,-1
 4fc:	07e2                	slli	a5,a5,0x18
 4fe:	87e1                	srai	a5,a5,0x18
 500:	00379693          	slli	a3,a5,0x3
 504:	1407d363          	bgez	a5,64a <i2c_write_reg+0x1b0>
 508:	4481                	li	s1,0
 50a:	4781                	li	a5,0
	{
		uint8_t cbyte = 0;
		while(cbyte < len)
		{
			// Write the byte and wait for it to finish transmitting
			I2C_TIMEOUT_WAIT_FOR(!(I2C1->STAR1 & I2C_STAR1_TXE), i2c_ret);
 50c:	400056b7          	lui	a3,0x40005
 510:	8622                	mv	a2,s0
 512:	40068693          	addi	a3,a3,1024 # 40005400 <_eusrstack+0x20004c00>
 516:	0146d703          	lhu	a4,20(a3)
 51a:	08077713          	andi	a4,a4,128
 51e:	16070863          	beqz	a4,68e <i2c_write_reg+0x1f4>
 522:	4501                	li	a0,0
			//while(!(I2C1->STAR1 & I2C_STAR1_TXE));
			I2C1->DATAR = buf[cbyte];
 524:	4712                	lw	a4,4(sp)
			++cbyte;
 526:	0485                	addi	s1,s1,1
 528:	0ff4f493          	zext.b	s1,s1
			I2C1->DATAR = buf[cbyte];
 52c:	97ba                	add	a5,a5,a4
 52e:	0007c703          	lbu	a4,0(a5)
 532:	400057b7          	lui	a5,0x40005
 536:	40e79823          	sh	a4,1040(a5) # 40005410 <_eusrstack+0x20004c10>

			// Make sure no errors occured for this byte
			if(i2c_ret != I2C_OK || (i2c_ret = i2c_error()) != I2C_OK) break;
 53a:	ed5d                	bnez	a0,5f8 <i2c_write_reg+0x15e>
 53c:	3be1                	jal	314 <i2c_error>
 53e:	ed4d                	bnez	a0,5f8 <i2c_write_reg+0x15e>
		while(cbyte < len)
 540:	4722                	lw	a4,8(sp)
 542:	87a6                	mv	a5,s1
 544:	fce4e4e3          	bltu	s1,a4,50c <i2c_write_reg+0x72>
 548:	a845                	j	5f8 <i2c_write_reg+0x15e>
	I2C_TIMEOUT_WAIT_FOR((I2C1->STAR2 & I2C_STAR2_BUSY), i2c_ret);
 54a:	fff60693          	addi	a3,a2,-1
 54e:	e609                	bnez	a2,558 <i2c_write_reg+0xbe>
	i2c_err_t i2c_err = i2c_error();
 550:	33d1                	jal	314 <i2c_error>
	if(i2c_err == I2C_OK) i2c_err = I2C_ERR_BUSY;
 552:	e15d                	bnez	a0,5f8 <i2c_write_reg+0x15e>
 554:	4515                	li	a0,5
 556:	a04d                	j	5f8 <i2c_write_reg+0x15e>
	I2C_TIMEOUT_WAIT_FOR((I2C1->STAR2 & I2C_STAR2_BUSY), i2c_ret);
 558:	8636                	mv	a2,a3
 55a:	bfb9                	j	4b8 <i2c_write_reg+0x1e>
		uint8_t addr_7b = (dev->addr << 1);
 55c:	0084d783          	lhu	a5,8(s1)
	uint32_t status = (uint32_t)I2C1->STAR1 | (uint32_t)(I2C1->STAR2 << 16);
 560:	40005637          	lui	a2,0x40005
			I2C_TIMEOUT_WAIT_FOR(!i2c_status(I2C_EVENT_MASTER_TRANSMITTER_MODE_SELECTED), i2c_ret);
 564:	85a2                	mv	a1,s0
		uint8_t addr_7b = (dev->addr << 1);
 566:	0786                	slli	a5,a5,0x1
			I2C1->DATAR = addr_7b & 0xFE;
 568:	0ff7f793          	zext.b	a5,a5
 56c:	00f69823          	sh	a5,16(a3)
	return (status & status_mask) == status_mask; 
 570:	000706b7          	lui	a3,0x70
	uint32_t status = (uint32_t)I2C1->STAR1 | (uint32_t)(I2C1->STAR2 << 16);
 574:	40060613          	addi	a2,a2,1024 # 40005400 <_eusrstack+0x20004c00>
	return (status & status_mask) == status_mask; 
 578:	08268693          	addi	a3,a3,130 # 70082 <oled.c.2efc7f3d+0x6b50f>
	uint32_t status = (uint32_t)I2C1->STAR1 | (uint32_t)(I2C1->STAR2 << 16);
 57c:	01465503          	lhu	a0,20(a2)
 580:	01865783          	lhu	a5,24(a2)
 584:	07c2                	slli	a5,a5,0x10
 586:	8fc9                	or	a5,a5,a0
	return (status & status_mask) == status_mask; 
 588:	8ff5                	and	a5,a5,a3
			I2C_TIMEOUT_WAIT_FOR(!i2c_status(I2C_EVENT_MASTER_TRANSMITTER_MODE_SELECTED), i2c_ret);
 58a:	f6d786e3          	beq	a5,a3,4f6 <i2c_write_reg+0x5c>
 58e:	fff58793          	addi	a5,a1,-1
 592:	dddd                	beqz	a1,550 <i2c_write_reg+0xb6>
 594:	85be                	mv	a1,a5
 596:	b7dd                	j	57c <i2c_write_reg+0xe2>
		uint8_t addr_10b_u = 0xF0 | ((dev->addr >> 7) & 0x06);
 598:	0084d603          	lhu	a2,8(s1)
			I2C_TIMEOUT_WAIT_FOR(!(I2C1->STAR1 & I2C_STAR1_ADD10), i2c_ret);
 59c:	85a2                	mv	a1,s0
		uint8_t addr_10b_u = 0xF0 | ((dev->addr >> 7) & 0x06);
 59e:	00765793          	srli	a5,a2,0x7
 5a2:	8b99                	andi	a5,a5,6
			I2C1->DATAR = addr_10b_u;
 5a4:	0f07e793          	ori	a5,a5,240
 5a8:	00f69823          	sh	a5,16(a3)
			I2C_TIMEOUT_WAIT_FOR(!(I2C1->STAR1 & I2C_STAR1_ADD10), i2c_ret);
 5ac:	400057b7          	lui	a5,0x40005
 5b0:	40078793          	addi	a5,a5,1024 # 40005400 <_eusrstack+0x20004c00>
 5b4:	0147d683          	lhu	a3,20(a5)
 5b8:	8aa1                	andi	a3,a3,8
 5ba:	cead                	beqz	a3,634 <i2c_write_reg+0x19a>
 5bc:	c632                	sw	a2,12(sp)
			if(i2c_ret != I2C_OK || (i2c_ret = i2c_error()) != I2C_OK) return i2c_ret;
 5be:	3b99                	jal	314 <i2c_error>
 5c0:	ed05                	bnez	a0,5f8 <i2c_write_reg+0x15e>
 5c2:	4632                	lw	a2,12(sp)
			I2C1->DATAR = addr_10b_l;
 5c4:	400057b7          	lui	a5,0x40005
 5c8:	40078793          	addi	a5,a5,1024 # 40005400 <_eusrstack+0x20004c00>
 5cc:	0ff67613          	zext.b	a2,a2
	return (status & status_mask) == status_mask; 
 5d0:	000706b7          	lui	a3,0x70
			I2C1->DATAR = addr_10b_l;
 5d4:	00c79823          	sh	a2,16(a5)
			I2C_TIMEOUT_WAIT_FOR(!i2c_status(I2C_EVENT_MASTER_TRANSMITTER_MODE_SELECTED), i2c_ret);
 5d8:	85a2                	mv	a1,s0
	uint32_t status = (uint32_t)I2C1->STAR1 | (uint32_t)(I2C1->STAR2 << 16);
 5da:	863e                	mv	a2,a5
	return (status & status_mask) == status_mask; 
 5dc:	08268693          	addi	a3,a3,130 # 70082 <oled.c.2efc7f3d+0x6b50f>
	uint32_t status = (uint32_t)I2C1->STAR1 | (uint32_t)(I2C1->STAR2 << 16);
 5e0:	01465503          	lhu	a0,20(a2)
 5e4:	01865783          	lhu	a5,24(a2)
 5e8:	07c2                	slli	a5,a5,0x10
 5ea:	8fc9                	or	a5,a5,a0
	return (status & status_mask) == status_mask; 
 5ec:	8ff5                	and	a5,a5,a3
			I2C_TIMEOUT_WAIT_FOR(!i2c_status(I2C_EVENT_MASTER_TRANSMITTER_MODE_SELECTED), i2c_ret);
 5ee:	04d79863          	bne	a5,a3,63e <i2c_write_reg+0x1a4>
			if(i2c_ret != I2C_OK || (i2c_ret = i2c_error()) != I2C_OK) return i2c_ret;
 5f2:	330d                	jal	314 <i2c_error>
 5f4:	f00501e3          	beqz	a0,4f6 <i2c_write_reg+0x5c>
	uint32_t status = (uint32_t)I2C1->STAR1 | (uint32_t)(I2C1->STAR2 << 16);
 5f8:	400056b7          	lui	a3,0x40005
	return (status & status_mask) == status_mask; 
 5fc:	00070737          	lui	a4,0x70
	uint32_t status = (uint32_t)I2C1->STAR1 | (uint32_t)(I2C1->STAR2 << 16);
 600:	40068693          	addi	a3,a3,1024 # 40005400 <_eusrstack+0x20004c00>
	return (status & status_mask) == status_mask; 
 604:	08470713          	addi	a4,a4,132 # 70084 <oled.c.2efc7f3d+0x6b511>
	uint32_t status = (uint32_t)I2C1->STAR1 | (uint32_t)(I2C1->STAR2 << 16);
 608:	0146d603          	lhu	a2,20(a3)
 60c:	0186d783          	lhu	a5,24(a3)
 610:	07c2                	slli	a5,a5,0x10
 612:	8fd1                	or	a5,a5,a2
	return (status & status_mask) == status_mask; 
 614:	8ff9                	and	a5,a5,a4
		}
	}

	// Wait for the bus to finish transmitting
	I2C_TIMEOUT_WAIT_FOR(!i2c_status(I2C_EVENT_MASTER_BYTE_TRANSMITTED), i2c_ret);
 616:	08e79863          	bne	a5,a4,6a6 <i2c_write_reg+0x20c>
	I2C1->CTLR1 |= I2C_CTLR1_STOP;
 61a:	400057b7          	lui	a5,0x40005
 61e:	4007d703          	lhu	a4,1024(a5) # 40005400 <_eusrstack+0x20004c00>
	// Signal a STOP
	i2c_stop();

	return i2c_ret;
}
 622:	40f2                	lw	ra,28(sp)
 624:	4462                	lw	s0,24(sp)
	I2C1->CTLR1 |= I2C_CTLR1_STOP;
 626:	20076713          	ori	a4,a4,512
 62a:	40e79023          	sh	a4,1024(a5)
}
 62e:	44d2                	lw	s1,20(sp)
 630:	6105                	addi	sp,sp,32
 632:	8082                	ret
			I2C_TIMEOUT_WAIT_FOR(!(I2C1->STAR1 & I2C_STAR1_ADD10), i2c_ret);
 634:	fff58693          	addi	a3,a1,-1
 638:	dd81                	beqz	a1,550 <i2c_write_reg+0xb6>
 63a:	85b6                	mv	a1,a3
 63c:	bfa5                	j	5b4 <i2c_write_reg+0x11a>
			I2C_TIMEOUT_WAIT_FOR(!i2c_status(I2C_EVENT_MASTER_TRANSMITTER_MODE_SELECTED), i2c_ret);
 63e:	fff58793          	addi	a5,a1,-1
 642:	f00587e3          	beqz	a1,550 <i2c_write_reg+0xb6>
 646:	85be                	mv	a1,a5
 648:	bf61                	j	5e0 <i2c_write_reg+0x146>
			uint8_t reg_byte = (reg >> (8 * b)) & 0xFF;
 64a:	4702                	lw	a4,0(sp)
			I2C_TIMEOUT_WAIT_FOR(!(I2C1->STAR1 & I2C_STAR1_TXE), i2c_ret);
 64c:	85a2                	mv	a1,s0
			uint8_t reg_byte = (reg >> (8 * b)) & 0xFF;
 64e:	00d75633          	srl	a2,a4,a3
			I2C1->DATAR = reg_byte;
 652:	0642                	slli	a2,a2,0x10
 654:	40005737          	lui	a4,0x40005
 658:	8241                	srli	a2,a2,0x10
 65a:	40070713          	addi	a4,a4,1024 # 40005400 <_eusrstack+0x20004c00>
 65e:	00c71823          	sh	a2,16(a4)
			I2C_TIMEOUT_WAIT_FOR(!(I2C1->STAR1 & I2C_STAR1_TXE), i2c_ret);
 662:	01475603          	lhu	a2,20(a4)
 666:	08067613          	andi	a2,a2,128
 66a:	ce01                	beqz	a2,682 <i2c_write_reg+0x1e8>
 66c:	c836                	sw	a3,16(sp)
 66e:	c63e                	sw	a5,12(sp)
			if(i2c_ret != I2C_OK || (i2c_ret = i2c_error()) != I2C_OK) break;
 670:	3155                	jal	314 <i2c_error>
 672:	46c2                	lw	a3,16(sp)
 674:	16e1                	addi	a3,a3,-8
 676:	f149                	bnez	a0,5f8 <i2c_write_reg+0x15e>
		for(int8_t b = dev->regb - 1; b >= 0; b--)
 678:	47b2                	lw	a5,12(sp)
 67a:	17fd                	addi	a5,a5,-1
 67c:	07e2                	slli	a5,a5,0x18
 67e:	87e1                	srai	a5,a5,0x18
 680:	b551                	j	504 <i2c_write_reg+0x6a>
			I2C_TIMEOUT_WAIT_FOR(!(I2C1->STAR1 & I2C_STAR1_TXE), i2c_ret);
 682:	fff58613          	addi	a2,a1,-1
 686:	ec0585e3          	beqz	a1,550 <i2c_write_reg+0xb6>
 68a:	85b2                	mv	a1,a2
 68c:	bfd9                	j	662 <i2c_write_reg+0x1c8>
			I2C_TIMEOUT_WAIT_FOR(!(I2C1->STAR1 & I2C_STAR1_TXE), i2c_ret);
 68e:	fff60713          	addi	a4,a2,-1
 692:	ea01                	bnez	a2,6a2 <i2c_write_reg+0x208>
 694:	c03e                	sw	a5,0(sp)
	i2c_err_t i2c_err = i2c_error();
 696:	39bd                	jal	314 <i2c_error>
	if(i2c_err == I2C_OK) i2c_err = I2C_ERR_BUSY;
 698:	4782                	lw	a5,0(sp)
 69a:	e80515e3          	bnez	a0,524 <i2c_write_reg+0x8a>
 69e:	4515                	li	a0,5
 6a0:	b551                	j	524 <i2c_write_reg+0x8a>
			I2C_TIMEOUT_WAIT_FOR(!(I2C1->STAR1 & I2C_STAR1_TXE), i2c_ret);
 6a2:	863a                	mv	a2,a4
 6a4:	bd8d                	j	516 <i2c_write_reg+0x7c>
	I2C_TIMEOUT_WAIT_FOR(!i2c_status(I2C_EVENT_MASTER_BYTE_TRANSMITTED), i2c_ret);
 6a6:	fff40793          	addi	a5,s0,-1
 6aa:	e409                	bnez	s0,6b4 <i2c_write_reg+0x21a>
	i2c_err_t i2c_err = i2c_error();
 6ac:	31a5                	jal	314 <i2c_error>
	if(i2c_err == I2C_OK) i2c_err = I2C_ERR_BUSY;
 6ae:	f535                	bnez	a0,61a <i2c_write_reg+0x180>
 6b0:	4515                	li	a0,5
 6b2:	b7a5                	j	61a <i2c_write_reg+0x180>
	I2C_TIMEOUT_WAIT_FOR(!i2c_status(I2C_EVENT_MASTER_BYTE_TRANSMITTED), i2c_ret);
 6b4:	843e                	mv	s0,a5
 6b6:	bf89                	j	608 <i2c_write_reg+0x16e>

000006b8 <handle_reset>:
	asm volatile( "\n\
 6b8:	20000197          	auipc	gp,0x20000
 6bc:	d4418193          	addi	gp,gp,-700 # 200003fc <__global_pointer$>
 6c0:	40418113          	addi	sp,gp,1028 # 20000800 <_eusrstack>
 6c4:	6509                	lui	a0,0x2
 6c6:	88050513          	addi	a0,a0,-1920 # 1880 <ch32fun.c.e1d0904f+0x254>
 6ca:	30051073          	csrw	mstatus,a0
 6ce:	468d                	li	a3,3
 6d0:	00000517          	auipc	a0,0x0
 6d4:	93050513          	addi	a0,a0,-1744 # 0 <InterruptVector>
 6d8:	8d55                	or	a0,a0,a3
 6da:	30551073          	csrw	mtvec,a0
asm volatile(
 6de:	c1418513          	addi	a0,gp,-1004 # 20000010 <accumulator.0>
 6e2:	02818593          	addi	a1,gp,40 # 20000424 <_ebss>
 6e6:	4601                	li	a2,0
 6e8:	00b55663          	bge	a0,a1,6f4 <handle_reset+0x3c>
 6ec:	c110                	sw	a2,0(a0)
 6ee:	0511                	addi	a0,a0,4
 6f0:	feb54ee3          	blt	a0,a1,6ec <handle_reset+0x34>
 6f4:	00000517          	auipc	a0,0x0
 6f8:	58c50513          	addi	a0,a0,1420 # c80 <_data_lma>
 6fc:	c0418593          	addi	a1,gp,-1020 # 20000000 <rotenc_prev_bitmask.1>
 700:	c1418613          	addi	a2,gp,-1004 # 20000010 <accumulator.0>
 704:	00c58863          	beq	a1,a2,714 <handle_reset+0x5c>
 708:	4114                	lw	a3,0(a0)
 70a:	c194                	sw	a3,0(a1)
 70c:	0511                	addi	a0,a0,4
 70e:	0591                	addi	a1,a1,4
 710:	fec59ae3          	bne	a1,a2,704 <handle_reset+0x4c>
	SysTick->CTLR = 5;
 714:	e000f7b7          	lui	a5,0xe000f
 718:	4715                	li	a4,5
 71a:	c398                	sw	a4,0(a5)
asm volatile(
 71c:	6785                	lui	a5,0x1
 71e:	9f878793          	addi	a5,a5,-1544 # 9f8 <main>
 722:	34179073          	csrw	mepc,a5
 726:	30200073          	mret

0000072a <ADC1_2_IRQHandler>:

// Return the Machine Exception Program Register (MEPC)
static inline uint32_t __get_MEPC(void)
{
	uint32_t result;
	__ASM volatile( ADD_ARCH_ZICSR "csrr %0," "mepc" : "=r"(result));
 72a:	34102573          	csrr	a0,mepc
	PrintHex( __get_MEPC() ); // "addr2line -e debugprintfdemo.elf 0x000007e6" ---> debugprintfdemo.c:45
 72e:	3c6d                	jal	1e8 <PrintHex>
	__ASM volatile( ADD_ARCH_ZICSR "csrr %0, mstatus": "=r"(result) );
 730:	30002573          	csrr	a0,mstatus
	PrintHex( __get_MSTATUS() );
 734:	3c55                	jal	1e8 <PrintHex>

// Return the Machine Trap Value Register (MTVAL)
static inline uint32_t __get_MTVAL(void)
{
	uint32_t result;
	__ASM volatile( ADD_ARCH_ZICSR "csrr %0," "mtval" : "=r" (result) );
 736:	34302573          	csrr	a0,mtval
	PrintHex( __get_MTVAL() );
 73a:	347d                	jal	1e8 <PrintHex>
	__ASM volatile( ADD_ARCH_ZICSR "csrr %0," "mcause": "=r"(result));
 73c:	34202573          	csrr	a0,mcause
	PrintHex( __get_MCAUSE() );
 740:	3465                	jal	1e8 <PrintHex>
	while( (*DMDATA0) & 0x80 );
 742:	e00007b7          	lui	a5,0xe0000
 746:	0f478793          	addi	a5,a5,244 # e00000f4 <_eusrstack+0xbffff8f4>
 74a:	4398                	lw	a4,0(a5)
 74c:	08077713          	andi	a4,a4,128
 750:	ff6d                	bnez	a4,74a <ADC1_2_IRQHandler+0x20>
	*DMDATA0 = 0x0a85;
 752:	6705                	lui	a4,0x1
 754:	a8570713          	addi	a4,a4,-1403 # a85 <main+0x8d>
 758:	c398                	sw	a4,0(a5)
	while( (*DMDATA0) & 0x80 );
 75a:	e00007b7          	lui	a5,0xe0000
 75e:	0f478793          	addi	a5,a5,244 # e00000f4 <_eusrstack+0xbffff8f4>
 762:	4398                	lw	a4,0(a5)
 764:	08077713          	andi	a4,a4,128
 768:	ff6d                	bnez	a4,762 <ADC1_2_IRQHandler+0x38>
	*DMDATA0 = 0xaaaaaa83;
 76a:	aaaab737          	lui	a4,0xaaaab
 76e:	a8370713          	addi	a4,a4,-1405 # aaaaaa83 <_eusrstack+0x8aaaa283>
 772:	c398                	sw	a4,0(a5)
	asm volatile( "1: j 1b" );
 774:	a001                	j	774 <ADC1_2_IRQHandler+0x4a>

00000776 <NMI_Handler>:
	RCC->INTR |= RCC_CSSC;	// clear the clock security int flag
 776:	40021737          	lui	a4,0x40021
 77a:	471c                	lw	a5,8(a4)
 77c:	008006b7          	lui	a3,0x800
 780:	8fd5                	or	a5,a5,a3
 782:	c71c                	sw	a5,8(a4)

00000784 <strlen>:
	for (; *s; s++);
 784:	87aa                	mv	a5,a0
 786:	0007c703          	lbu	a4,0(a5)
 78a:	e701                	bnez	a4,792 <strlen+0xe>
}
 78c:	40a78533          	sub	a0,a5,a0
 790:	8082                	ret
	for (; *s; s++);
 792:	0785                	addi	a5,a5,1
 794:	bfcd                	j	786 <strlen+0x2>

00000796 <mini_vpprintf>:
{
 796:	fa410113          	addi	sp,sp,-92
 79a:	caa2                	sw	s0,84(sp)
 79c:	c8a6                	sw	s1,80(sp)
 79e:	cc86                	sw	ra,88(sp)
 7a0:	c02a                	sw	a0,0(sp)
 7a2:	c22e                	sw	a1,4(sp)
 7a4:	8432                	mv	s0,a2
 7a6:	84b6                	mv	s1,a3
	if(puts == (void*)0) {
 7a8:	e509                	bnez	a0,7b2 <mini_vpprintf+0x1c>
		puts = _puts; buf = (void*)0;
 7aa:	1a800793          	li	a5,424
 7ae:	c202                	sw	zero,4(sp)
 7b0:	c03e                	sw	a5,0(sp)
	int n = 0;
 7b2:	ca02                	sw	zero,20(sp)
	while ((ch=*(fmt++))) {
 7b4:	00044783          	lbu	a5,0(s0)
 7b8:	00140713          	addi	a4,s0,1
 7bc:	00f10fa3          	sb	a5,31(sp)
 7c0:	eb81                	bnez	a5,7d0 <mini_vpprintf+0x3a>
}
 7c2:	40e6                	lw	ra,88(sp)
 7c4:	4456                	lw	s0,84(sp)
 7c6:	4552                	lw	a0,20(sp)
 7c8:	44c6                	lw	s1,80(sp)
 7ca:	05c10113          	addi	sp,sp,92
 7ce:	8082                	ret
 7d0:	c63a                	sw	a4,12(sp)
		if (ch!='%') {
 7d2:	02500693          	li	a3,37
 7d6:	02d78063          	beq	a5,a3,7f6 <mini_vpprintf+0x60>
			len = puts(&ch, len, buf);
 7da:	4612                	lw	a2,4(sp)
 7dc:	4782                	lw	a5,0(sp)
 7de:	4585                	li	a1,1
 7e0:	01f10513          	addi	a0,sp,31
 7e4:	9782                	jalr	a5
	while ((ch=*(fmt++))) {
 7e6:	4732                	lw	a4,12(sp)
 7e8:	c426                	sw	s1,8(sp)
 7ea:	843a                	mv	s0,a4
		n = n + len;
 7ec:	47d2                	lw	a5,20(sp)
 7ee:	44a2                	lw	s1,8(sp)
 7f0:	97aa                	add	a5,a5,a0
 7f2:	ca3e                	sw	a5,20(sp)
 7f4:	b7c1                	j	7b4 <mini_vpprintf+0x1e>
			ch=*(fmt++);
 7f6:	00144783          	lbu	a5,1(s0)
			if (ch == '0') pad_char = '0';
 7fa:	03000693          	li	a3,48
			ch=*(fmt++);
 7fe:	00240713          	addi	a4,s0,2
 802:	00f10fa3          	sb	a5,31(sp)
			if (ch == '0') pad_char = '0';
 806:	c63e                	sw	a5,12(sp)
 808:	08d79363          	bne	a5,a3,88e <mini_vpprintf+0xf8>
				ch=*(fmt++);
 80c:	843a                	mv	s0,a4
 80e:	4681                	li	a3,0
 810:	4701                	li	a4,0
			while (ch >= '0' && ch <= '9') {
 812:	45a5                	li	a1,9
 814:	a819                	j	82a <mini_vpprintf+0x94>
				pad_to = pad_to * 10 + (ch - '0');
 816:	00271793          	slli	a5,a4,0x2
 81a:	97ba                	add	a5,a5,a4
 81c:	0786                	slli	a5,a5,0x1
				ch=*(fmt++);
 81e:	0405                	addi	s0,s0,1
				pad_to = pad_to * 10 + (ch - '0');
 820:	00f60733          	add	a4,a2,a5
				ch=*(fmt++);
 824:	fff44783          	lbu	a5,-1(s0)
 828:	4685                	li	a3,1
			while (ch >= '0' && ch <= '9') {
 82a:	fd078613          	addi	a2,a5,-48
 82e:	0ff67513          	zext.b	a0,a2
 832:	fea5f2e3          	bgeu	a1,a0,816 <mini_vpprintf+0x80>
 836:	c299                	beqz	a3,83c <mini_vpprintf+0xa6>
 838:	00f10fa3          	sb	a5,31(sp)
			if(pad_to > (signed int) sizeof(bf)) {
 83c:	c83a                	sw	a4,16(sp)
 83e:	46e1                	li	a3,24
 840:	00e6d363          	bge	a3,a4,846 <mini_vpprintf+0xb0>
 844:	c836                	sw	a3,16(sp)
			if (ch == 'l') {
 846:	06c00613          	li	a2,108
			char l = 0;
 84a:	4681                	li	a3,0
			if (ch == 'l') {
 84c:	00c79863          	bne	a5,a2,85c <mini_vpprintf+0xc6>
				ch=*(fmt++);
 850:	00044783          	lbu	a5,0(s0)
				l = 1;
 854:	4685                	li	a3,1
				ch=*(fmt++);
 856:	0405                	addi	s0,s0,1
 858:	00f10fa3          	sb	a5,31(sp)
			switch (ch) {
 85c:	01f14603          	lbu	a2,31(sp)
 860:	06400793          	li	a5,100
 864:	06f60563          	beq	a2,a5,8ce <mini_vpprintf+0x138>
 868:	02c7e763          	bltu	a5,a2,896 <mini_vpprintf+0x100>
 86c:	05800793          	li	a5,88
 870:	0af60163          	beq	a2,a5,912 <mini_vpprintf+0x17c>
 874:	06300793          	li	a5,99
 878:	0af60e63          	beq	a2,a5,934 <mini_vpprintf+0x19e>
 87c:	d239                	beqz	a2,7c2 <mini_vpprintf+0x2c>
					len = puts(&ch, len, buf);
 87e:	4612                	lw	a2,4(sp)
 880:	4782                	lw	a5,0(sp)
 882:	4585                	li	a1,1
 884:	01f10513          	addi	a0,sp,31
 888:	9782                	jalr	a5
					break;
 88a:	c426                	sw	s1,8(sp)
 88c:	b785                	j	7ec <mini_vpprintf+0x56>
			char pad_char = ' ';
 88e:	02000693          	li	a3,32
 892:	c636                	sw	a3,12(sp)
 894:	bfa5                	j	80c <mini_vpprintf+0x76>
			switch (ch) {
 896:	07500793          	li	a5,117
 89a:	02f60a63          	beq	a2,a5,8ce <mini_vpprintf+0x138>
 89e:	07800793          	li	a5,120
 8a2:	06f60863          	beq	a2,a5,912 <mini_vpprintf+0x17c>
 8a6:	07300793          	li	a5,115
 8aa:	fcf61ae3          	bne	a2,a5,87e <mini_vpprintf+0xe8>
					ptr = va_arg(va, char*);
 8ae:	00448793          	addi	a5,s1,4
 8b2:	4084                	lw	s1,0(s1)
 8b4:	cc3a                	sw	a4,24(sp)
 8b6:	c43e                	sw	a5,8(sp)
					len = mini_strlen(ptr);
 8b8:	8526                	mv	a0,s1
 8ba:	35e9                	jal	784 <strlen>
					if (pad_to > 0) {
 8bc:	4762                	lw	a4,24(sp)
					len = mini_strlen(ptr);
 8be:	85aa                	mv	a1,a0
					if (pad_to > 0) {
 8c0:	08e05763          	blez	a4,94e <mini_vpprintf+0x1b8>
						len = mini_pad(ptr, len, pad_char, pad_to, bf);
 8c4:	46c2                	lw	a3,16(sp)
 8c6:	4632                	lw	a2,12(sp)
 8c8:	1838                	addi	a4,sp,56
 8ca:	8526                	mv	a0,s1
 8cc:	a01d                	j	8f2 <mini_vpprintf+0x15c>
						len = mini_itoa(va_arg(va, unsigned long), 10, 0, (ch=='u'), bf2);
 8ce:	00448793          	addi	a5,s1,4
 8d2:	c43e                	sw	a5,8(sp)
					if(l) {
 8d4:	c69d                	beqz	a3,902 <mini_vpprintf+0x16c>
						len = mini_itoa(va_arg(va, unsigned long), 10, 0, (ch=='u'), bf2);
 8d6:	f8b60613          	addi	a2,a2,-117
 8da:	1018                	addi	a4,sp,32
 8dc:	00163693          	seqz	a3,a2
 8e0:	4088                	lw	a0,0(s1)
 8e2:	4601                	li	a2,0
 8e4:	45a9                	li	a1,10
 8e6:	32bd                	jal	254 <mini_itoa.part.0>
					len = mini_pad(bf2, len, pad_char, pad_to, bf);
 8e8:	46c2                	lw	a3,16(sp)
 8ea:	4632                	lw	a2,12(sp)
 8ec:	1838                	addi	a4,sp,56
 8ee:	85aa                	mv	a1,a0
					len = mini_pad(bf2, len, pad_char, pad_to, bf);
 8f0:	1008                	addi	a0,sp,32
 8f2:	82dff0ef          	jal	11e <mini_pad>
					len = puts(bf, len, buf);
 8f6:	4612                	lw	a2,4(sp)
					len = mini_pad(bf2, len, pad_char, pad_to, bf);
 8f8:	85aa                	mv	a1,a0
					len = puts(bf, len, buf);
 8fa:	1828                	addi	a0,sp,56
 8fc:	4782                	lw	a5,0(sp)
 8fe:	9782                	jalr	a5
					break;
 900:	b5f5                	j	7ec <mini_vpprintf+0x56>
						if(ch == 'u') {
 902:	07500793          	li	a5,117
 906:	1018                	addi	a4,sp,32
 908:	4685                	li	a3,1
 90a:	fcf60be3          	beq	a2,a5,8e0 <mini_vpprintf+0x14a>
	if (radix > 16)
 90e:	4681                	li	a3,0
 910:	bfc1                	j	8e0 <mini_vpprintf+0x14a>
					if(l) {
 912:	4088                	lw	a0,0(s1)
						len = mini_itoa(va_arg(va, unsigned long), 16, (ch=='X'), 1, bf2);
 914:	fa860613          	addi	a2,a2,-88
						len = mini_itoa(va_arg(va, unsigned long), 10, 0, (ch=='u'), bf2);
 918:	00448793          	addi	a5,s1,4
 91c:	1018                	addi	a4,sp,32
 91e:	4685                	li	a3,1
 920:	00163613          	seqz	a2,a2
 924:	45c1                	li	a1,16
 926:	c43e                	sw	a5,8(sp)
	if (radix > 16)
 928:	3235                	jal	254 <mini_itoa.part.0>
					len = mini_pad(bf2, len, pad_char, pad_to, bf);
 92a:	46c2                	lw	a3,16(sp)
 92c:	4632                	lw	a2,12(sp)
 92e:	85aa                	mv	a1,a0
 930:	1838                	addi	a4,sp,56
 932:	bf7d                	j	8f0 <mini_vpprintf+0x15a>
					ch = (char)(va_arg(va, int));
 934:	00448793          	addi	a5,s1,4
 938:	c43e                	sw	a5,8(sp)
 93a:	409c                	lw	a5,0(s1)
					len = mini_pad(&ch, 1, pad_char, pad_to, bf);
 93c:	46c2                	lw	a3,16(sp)
 93e:	4632                	lw	a2,12(sp)
					ch = (char)(va_arg(va, int));
 940:	00f10fa3          	sb	a5,31(sp)
					len = mini_pad(&ch, 1, pad_char, pad_to, bf);
 944:	1838                	addi	a4,sp,56
 946:	4585                	li	a1,1
 948:	01f10513          	addi	a0,sp,31
 94c:	b75d                	j	8f2 <mini_vpprintf+0x15c>
						len = puts(ptr, len, buf);
 94e:	4612                	lw	a2,4(sp)
 950:	8526                	mv	a0,s1
 952:	b76d                	j	8fc <mini_vpprintf+0x166>

00000954 <printf>:
{
 954:	1111                	addi	sp,sp,-28
 956:	c632                	sw	a2,12(sp)
	int ret_status = mini_vpprintf(__puts_uart, 0, format, args);
 958:	862a                	mv	a2,a0
{
 95a:	c42e                	sw	a1,8(sp)
 95c:	c836                	sw	a3,16(sp)
	int ret_status = mini_vpprintf(__puts_uart, 0, format, args);
 95e:	4581                	li	a1,0
	va_start( args, format );
 960:	0034                	addi	a3,sp,8
	int ret_status = mini_vpprintf(__puts_uart, 0, format, args);
 962:	48600513          	li	a0,1158
{
 966:	c206                	sw	ra,4(sp)
 968:	ca3a                	sw	a4,20(sp)
 96a:	cc3e                	sw	a5,24(sp)
	va_start( args, format );
 96c:	c036                	sw	a3,0(sp)
	int ret_status = mini_vpprintf(__puts_uart, 0, format, args);
 96e:	3525                	jal	796 <mini_vpprintf>
}
 970:	4092                	lw	ra,4(sp)
 972:	0171                	addi	sp,sp,28
 974:	8082                	ret

00000976 <memset>:
WEAK void *memset(void *dest, int c, size_t n) { unsigned char *s = dest; for (; n; n--, s++) *s = c; return dest; }
 976:	962a                	add	a2,a2,a0
 978:	87aa                	mv	a5,a0
 97a:	00c79363          	bne	a5,a2,980 <memset+0xa>
 97e:	8082                	ret
 980:	00b78023          	sb	a1,0(a5)
 984:	0785                	addi	a5,a5,1
 986:	bfd5                	j	97a <memset+0x4>

00000988 <memcpy>:
	for (; n; n--) *d++ = *s++;
 988:	4781                	li	a5,0
 98a:	00f61363          	bne	a2,a5,990 <memcpy+0x8>
}
 98e:	8082                	ret
	for (; n; n--) *d++ = *s++;
 990:	00f58733          	add	a4,a1,a5
 994:	00074683          	lbu	a3,0(a4) # 40021000 <_eusrstack+0x20020800>
 998:	00f50733          	add	a4,a0,a5
 99c:	0785                	addi	a5,a5,1
 99e:	00d70023          	sb	a3,0(a4)
 9a2:	b7e5                	j	98a <memcpy+0x2>

000009a4 <SystemInit>:
	#endif
#elif defined(CH32X03x)
	FLASH->ACTLR = FLASH_ACTLR_LATENCY_2;                   // +2 Cycle Latency (Recommended per TRM)
#elif defined(CH32V003)
	#if FUNCONF_SYSTEM_CORE_CLOCK > 25000000
		FLASH->ACTLR = FLASH_ACTLR_LATENCY_1;               // +1 Cycle Latency
 9a4:	400227b7          	lui	a5,0x40022
 9a8:	4705                	li	a4,1
 9aa:	c398                	sw	a4,0(a5)
#elif defined(FUNCONF_USE_HSI) && FUNCONF_USE_HSI
	#if defined(CH32V30x) || defined(CH32V20x) || defined(CH32V10x)
		EXTEN->EXTEN_CTR |= EXTEN_PLL_HSI_PRE;
	#endif
	#if defined(FUNCONF_USE_PLL) && FUNCONF_USE_PLL
		RCC->CFGR0 = BASE_CFGR0;
 9ac:	400217b7          	lui	a5,0x40021
		RCC->CTLR  = BASE_CTLR | RCC_HSION | RCC_PLLON; 			// Use HSI, enable PLL.
 9b0:	01080737          	lui	a4,0x1080
		RCC->CFGR0 = BASE_CFGR0;
 9b4:	0007a223          	sw	zero,4(a5) # 40021004 <_eusrstack+0x20020804>
		RCC->CTLR  = BASE_CTLR | RCC_HSION | RCC_PLLON; 			// Use HSI, enable PLL.
 9b8:	08170713          	addi	a4,a4,129 # 1080081 <oled.c.2efc7f3d+0x107b50e>
 9bc:	c398                	sw	a4,0(a5)
		FLASH->ACTLR = FLASH_ACTLR_LATENCY_1;       		// +1 Cycle Latency
	#endif
#endif

#if !defined(CH57x) && !defined(CH58x) && !defined(CH59x)
	RCC->INTR  = 0x009F0000;                               // Clear PLL, CSSC, HSE, HSI and LSI ready flags.
 9be:	009f0737          	lui	a4,0x9f0
 9c2:	c798                	sw	a4,8(a5)
#endif

#if defined(FUNCONF_USE_PLL) && FUNCONF_USE_PLL && !defined(CH57x) && !defined(CH58x) && !defined(CH59x)
	while((RCC->CTLR & RCC_PLLRDY) == 0);                       	// Wait till PLL is ready
 9c4:	4398                	lw	a4,0(a5)
 9c6:	00671693          	slli	a3,a4,0x6
 9ca:	fe06dde3          	bgez	a3,9c4 <SystemInit+0x20>
	uint32_t tmp32 = RCC->CFGR0 & ~(0x03);							// clr the SW
 9ce:	43d8                	lw	a4,4(a5)
	RCC->CFGR0 = tmp32 | RCC_SW_PLL;                       			// Select PLL as system clock source
	while ((RCC->CFGR0 & (uint32_t)RCC_SWS) != (uint32_t)0x08); 	// Wait till PLL is used as system clock source
 9d0:	400216b7          	lui	a3,0x40021
	uint32_t tmp32 = RCC->CFGR0 & ~(0x03);							// clr the SW
 9d4:	9b71                	andi	a4,a4,-4
	RCC->CFGR0 = tmp32 | RCC_SW_PLL;                       			// Select PLL as system clock source
 9d6:	00276713          	ori	a4,a4,2
 9da:	c3d8                	sw	a4,4(a5)
	while ((RCC->CFGR0 & (uint32_t)RCC_SWS) != (uint32_t)0x08); 	// Wait till PLL is used as system clock source
 9dc:	4721                	li	a4,8
 9de:	42dc                	lw	a5,4(a3)
 9e0:	8bb1                	andi	a5,a5,12
 9e2:	fee79ee3          	bne	a5,a4,9de <SystemInit+0x3a>
	*DMDATA1 = 0x00;
 9e6:	e00007b7          	lui	a5,0xe0000
 9ea:	0e07ac23          	sw	zero,248(a5) # e00000f8 <_eusrstack+0xbffff8f8>
	*DMDATA0 = 0x80;
 9ee:	08000713          	li	a4,128
 9f2:	0ee7aa23          	sw	a4,244(a5)
	SetupUART( UART_BRR );
#endif
#if defined( FUNCONF_USE_DEBUGPRINTF ) && FUNCONF_USE_DEBUGPRINTF
	SetupDebugPrintf();
#endif
}
 9f6:	8082                	ret

000009f8 <main>:



/*** Main ********************************************************************/
int main(void)
{
 9f8:	7139                	addi	sp,sp,-64
 9fa:	de06                	sw	ra,60(sp)
 9fc:	dc22                	sw	s0,56(sp)
 9fe:	da26                	sw	s1,52(sp)
	SystemInit();
 a00:	3755                	jal	9a4 <SystemInit>

	/*** IO Initialisation *******************************/
	// I2C Setup for the OLED
	i2c_device_t i2c_oled = {
 a02:	0020                	addi	s0,sp,8
 a04:	6585                	lui	a1,0x1
 a06:	c3458493          	addi	s1,a1,-972 # c34 <EXTI7_0_IRQHandler+0xca>
 a0a:	4641                	li	a2,16
 a0c:	c3458593          	addi	a1,a1,-972
 a10:	8522                	mv	a0,s0
 a12:	3f9d                	jal	988 <memcpy>
	_i2c_timeout = dev->tout;
 a14:	7d000713          	li	a4,2000
 a18:	c0e1ac23          	sw	a4,-1000(gp) # 20000014 <_i2c_timeout>
	RCC->APB1PRSTR |=  RCC_APB1Periph_I2C1;
 a1c:	400217b7          	lui	a5,0x40021
 a20:	4b98                	lw	a4,16(a5)
 a22:	00200637          	lui	a2,0x200
	RCC->APB1PRSTR &= ~RCC_APB1Periph_I2C1;
 a26:	ffe006b7          	lui	a3,0xffe00
	RCC->APB1PRSTR |=  RCC_APB1Periph_I2C1;
 a2a:	8f51                	or	a4,a4,a2
 a2c:	cb98                	sw	a4,16(a5)
	RCC->APB1PRSTR &= ~RCC_APB1Periph_I2C1;
 a2e:	4b98                	lw	a4,16(a5)
 a30:	16fd                	addi	a3,a3,-1 # ffdfffff <_eusrstack+0xdfdff7ff>
 a32:	8f75                	and	a4,a4,a3
 a34:	cb98                	sw	a4,16(a5)
	RCC->APB1PCENR |= RCC_APB1Periph_I2C1;
 a36:	4fd8                	lw	a4,28(a5)
	AFIO->PCFR1 &= ~(0x04400002);
 a38:	fbc006b7          	lui	a3,0xfbc00
 a3c:	16f5                	addi	a3,a3,-3 # fbbffffd <_eusrstack+0xdbbff7fd>
	RCC->APB1PCENR |= RCC_APB1Periph_I2C1;
 a3e:	8f51                	or	a4,a4,a2
 a40:	cfd8                	sw	a4,28(a5)
	RCC->APB2PCENR |= I2C_PORT_RCC | RCC_APB2Periph_AFIO;
 a42:	4f98                	lw	a4,24(a5)
 a44:	01176713          	ori	a4,a4,17
 a48:	cf98                	sw	a4,24(a5)
	AFIO->PCFR1 &= ~(0x04400002);
 a4a:	400107b7          	lui	a5,0x40010
 a4e:	43d8                	lw	a4,4(a5)
 a50:	8f75                	and	a4,a4,a3
 a52:	c3d8                	sw	a4,4(a5)
	AFIO->PCFR1 |= I2C_AFIO_REG;
 a54:	43d8                	lw	a4,4(a5)
	I2C_PORT->CFGLR &= ~(0x0F << (4 * I2C_PIN_SCL));
 a56:	76fd                	lui	a3,0xfffff
 a58:	0ff68693          	addi	a3,a3,255 # fffff0ff <_eusrstack+0xdfffe8ff>
	AFIO->PCFR1 |= I2C_AFIO_REG;
 a5c:	c3d8                	sw	a4,4(a5)
	I2C_PORT->CFGLR &= ~(0x0F << (4 * I2C_PIN_SDA));
 a5e:	400117b7          	lui	a5,0x40011
 a62:	4398                	lw	a4,0(a5)
 a64:	f0f77713          	andi	a4,a4,-241
 a68:	c398                	sw	a4,0(a5)
	I2C_PORT->CFGLR |= (GPIO_Speed_10MHz | GPIO_CNF_OUT_OD_AF) << (4 * I2C_PIN_SDA);	
 a6a:	4398                	lw	a4,0(a5)
 a6c:	0d076713          	ori	a4,a4,208
 a70:	c398                	sw	a4,0(a5)
	I2C_PORT->CFGLR &= ~(0x0F << (4 * I2C_PIN_SCL));
 a72:	4398                	lw	a4,0(a5)
 a74:	8f75                	and	a4,a4,a3
 a76:	c398                	sw	a4,0(a5)
	I2C_PORT->CFGLR |= (GPIO_Speed_10MHz | GPIO_CNF_OUT_OD_AF) << (4 * I2C_PIN_SCL);
 a78:	4398                	lw	a4,0(a5)
 a7a:	6685                	lui	a3,0x1
 a7c:	d0068693          	addi	a3,a3,-768 # d00 <_data_lma+0x80>
 a80:	8f55                	or	a4,a4,a3
 a82:	c398                	sw	a4,0(a5)
	uint16_t i2c_conf = I2C1->CTLR2 & ~I2C_CTLR2_FREQ;
 a84:	400057b7          	lui	a5,0x40005
 a88:	4047d703          	lhu	a4,1028(a5) # 40005404 <_eusrstack+0x20004c04>
 a8c:	66c1                	lui	a3,0x10
 a8e:	fc068693          	addi	a3,a3,-64 # ffc0 <oled.c.2efc7f3d+0xb44d>
 a92:	8f75                	and	a4,a4,a3
	i2c_conf |= (FUNCONF_SYSTEM_CORE_CLOCK / I2C_PRERATE) & I2C_CTLR2_FREQ;
 a94:	03076713          	ori	a4,a4,48
	I2C1->CTLR2 = i2c_conf;
 a98:	40e79223          	sh	a4,1028(a5)
	I2C1->CKCFGR = i2c_conf;
 a9c:	7761                	lui	a4,0xffff8
 a9e:	02870713          	addi	a4,a4,40 # ffff8028 <_eusrstack+0xdfff7828>
 aa2:	40e79e23          	sh	a4,1052(a5)
	I2C1->CTLR1 |= I2C_CTLR1_PE;
 aa6:	4007d703          	lhu	a4,1024(a5)
 aaa:	00176713          	ori	a4,a4,1
 aae:	40e79023          	sh	a4,1024(a5)
	return i2c_error();
 ab2:	863ff0ef          	jal	314 <i2c_error>

	// Set the static i2c device value to the given device
	_oled_dev = dev;

	// Magic init byte array for the OLED :)   (See Datasheet for info)
	const uint8_t init_arr[] = {
 ab6:	4665                	li	a2,25
 ab8:	01048593          	addi	a1,s1,16
 abc:	0828                	addi	a0,sp,24
	_oled_dev = dev;
 abe:	c081ae23          	sw	s0,-996(gp) # 20000018 <_oled_dev>
	const uint8_t init_arr[] = {
 ac2:	35d9                	jal	988 <memcpy>
		0x20, 0x00, 0xA1, 0xC8, 0xDA, 0x12, 0x81, 0x01, 0xD9, 0xF1, 
		0xDB, 0x40, 0xA4, 0xA6, 0xAF
	};

	// Write the Initialisation Array to the Display
	OLED_WRITE(OLED_REG_COMMAND, init_arr,  sizeof(init_arr));
 ac4:	46e5                	li	a3,25
 ac6:	0830                	addi	a2,sp,24
 ac8:	4581                	li	a1,0
 aca:	8522                	mv	a0,s0
 acc:	32f9                	jal	49a <i2c_write_reg>
{
	while(true)
	{
		static uint8_t fill = 0x00;
		
		memset((uint8_t *)_oled_buffer, fill, sizeof(_oled_buffer));
 ace:	c201c783          	lbu	a5,-992(gp) # 2000001c <fill.0>
 ad2:	40000613          	li	a2,1024
 ad6:	85be                	mv	a1,a5
 ad8:	c2818513          	addi	a0,gp,-984 # 20000024 <_oled_buffer>
 adc:	c23e                	sw	a5,4(sp)
 ade:	3d61                	jal	976 <memset>
	if(_oled_dev == NULL) return OLED_UNSET_DEVICE;
 ae0:	c1c1a783          	lw	a5,-996(gp) # 20000018 <_oled_dev>
 ae4:	c03e                	sw	a5,0(sp)
 ae6:	c79d                	beqz	a5,b14 <main+0x11c>
	OLED_WRITE(OLED_REG_COMMAND, _col_arr,  sizeof(_col_arr));
 ae8:	468d                	li	a3,3
 aea:	c1018613          	addi	a2,gp,-1008 # 2000000c <_col_arr>
 aee:	4581                	li	a1,0
 af0:	853e                	mv	a0,a5
 af2:	3265                	jal	49a <i2c_write_reg>
 af4:	e105                	bnez	a0,b14 <main+0x11c>
	OLED_WRITE(OLED_REG_COMMAND, _page_arr, sizeof(_page_arr));
 af6:	4502                	lw	a0,0(sp)
 af8:	468d                	li	a3,3
 afa:	c0c18613          	addi	a2,gp,-1012 # 20000008 <_page_arr>
 afe:	4581                	li	a1,0
 b00:	3a69                	jal	49a <i2c_write_reg>
 b02:	e909                	bnez	a0,b14 <main+0x11c>
	OLED_WRITE(OLED_REG_DISPLAY_START, (uint8_t *)_oled_buffer, sizeof(_oled_buffer));
 b04:	4502                	lw	a0,0(sp)
 b06:	40000693          	li	a3,1024
 b0a:	c2818613          	addi	a2,gp,-984 # 20000024 <_oled_buffer>
 b0e:	04000593          	li	a1,64
 b12:	3261                	jal	49a <i2c_write_reg>
		oled_update();
		printf("fill = 0x%02X\n", fill);
 b14:	4592                	lw	a1,4(sp)
 b16:	6505                	lui	a0,0x1
 b18:	c6050513          	addi	a0,a0,-928 # c60 <EXTI7_0_IRQHandler+0xf6>
 b1c:	3d25                	jal	954 <printf>

		fill = ~fill;
 b1e:	c201c783          	lbu	a5,-992(gp) # 2000001c <fill.0>

		Delay_Ms(1000);
 b22:	02dc7537          	lui	a0,0x2dc7
 b26:	c0050513          	addi	a0,a0,-1024 # 2dc6c00 <oled.c.2efc7f3d+0x2dc208d>
		fill = ~fill;
 b2a:	fff7c793          	not	a5,a5
 b2e:	c2f18023          	sb	a5,-992(gp) # 2000001c <fill.0>
		Delay_Ms(1000);
 b32:	f10ff0ef          	jal	242 <DelaySysTick>
	while(true)
 b36:	bf61                	j	ace <main+0xd6>

00000b38 <SysTick_Handler>:
}


__attribute__((interrupt))
void SysTick_Handler(void)
{
 b38:	1151                	addi	sp,sp,-12
 b3a:	c03e                	sw	a5,0(sp)
	// Increment the Compare Register for the next trigger
	SysTick->CMP += SYSTICK_ONE_MILLISECOND;
 b3c:	e000f7b7          	lui	a5,0xe000f
{
 b40:	c23a                	sw	a4,4(sp)
	SysTick->CMP += SYSTICK_ONE_MILLISECOND;
 b42:	4b98                	lw	a4,16(a5)
{
 b44:	c436                	sw	a3,8(sp)
	SysTick->CMP += SYSTICK_ONE_MILLISECOND;
 b46:	66b1                	lui	a3,0xc
 b48:	b8068693          	addi	a3,a3,-1152 # bb80 <oled.c.2efc7f3d+0x700d>
 b4c:	9736                	add	a4,a4,a3
 b4e:	cb98                	sw	a4,16(a5)

	// Clear the trigger state for the next IRQ
	SysTick->SR = 0x00000000;
 b50:	0007a223          	sw	zero,4(a5) # e000f004 <_eusrstack+0xc000e804>

	// Increment the milliseconds count
	g_systick_millis++;
 b54:	c241a783          	lw	a5,-988(gp) # 20000020 <g_systick_millis>
}
 b58:	46a2                	lw	a3,8(sp)
	g_systick_millis++;
 b5a:	0785                	addi	a5,a5,1
 b5c:	c2f1a223          	sw	a5,-988(gp) # 20000020 <g_systick_millis>
}
 b60:	4712                	lw	a4,4(sp)
 b62:	4782                	lw	a5,0(sp)
 b64:	0131                	addi	sp,sp,12
 b66:	30200073          	mret

00000b6a <EXTI7_0_IRQHandler>:


__attribute__((interrupt))
void EXTI7_0_IRQHandler(void)
{
 b6a:	1121                	addi	sp,sp,-24
 b6c:	c03e                	sw	a5,0(sp)
	// Trigger on CH4 and CH5
	if((EXTI->INTFR & 0x00000010) || (EXTI->INTFR & 0x00000020))
 b6e:	400107b7          	lui	a5,0x40010
 b72:	40078793          	addi	a5,a5,1024 # 40010400 <_eusrstack+0x2000fc00>
{
 b76:	c23a                	sw	a4,4(sp)
	if((EXTI->INTFR & 0x00000010) || (EXTI->INTFR & 0x00000020))
 b78:	4bd8                	lw	a4,20(a5)
{
 b7a:	ca2a                	sw	a0,20(sp)
 b7c:	c82e                	sw	a1,16(sp)
 b7e:	c632                	sw	a2,12(sp)
 b80:	c436                	sw	a3,8(sp)
	if((EXTI->INTFR & 0x00000010) || (EXTI->INTFR & 0x00000020))
 b82:	8b41                	andi	a4,a4,16
 b84:	e709                	bnez	a4,b8e <EXTI7_0_IRQHandler+0x24>
 b86:	4bdc                	lw	a5,20(a5)
 b88:	0207f793          	andi	a5,a5,32
 b8c:	cfb5                	beqz	a5,c08 <EXTI7_0_IRQHandler+0x9e>
	{
		// Read the PORT Input Register to get the Pinm Bits
		uint32_t portc_read = GPIOC->INDR;

		// Clear whichever flag was hit
		if(EXTI->INTFR & 0x10) EXTI->INTFR = 0x10;
 b8e:	40010737          	lui	a4,0x40010
		uint32_t portc_read = GPIOC->INDR;
 b92:	400117b7          	lui	a5,0x40011
		if(EXTI->INTFR & 0x10) EXTI->INTFR = 0x10;
 b96:	40070713          	addi	a4,a4,1024 # 40010400 <_eusrstack+0x2000fc00>
		uint32_t portc_read = GPIOC->INDR;
 b9a:	479c                	lw	a5,8(a5)
		if(EXTI->INTFR & 0x10) EXTI->INTFR = 0x10;
 b9c:	4b54                	lw	a3,20(a4)
 b9e:	8ac1                	andi	a3,a3,16
 ba0:	c299                	beqz	a3,ba6 <EXTI7_0_IRQHandler+0x3c>
 ba2:	46c1                	li	a3,16
 ba4:	cb54                	sw	a3,20(a4)
		if(EXTI->INTFR & 0x20) EXTI->INTFR = 0x20;
 ba6:	4b54                	lw	a3,20(a4)
 ba8:	0206f693          	andi	a3,a3,32
 bac:	c681                	beqz	a3,bb4 <EXTI7_0_IRQHandler+0x4a>
 bae:	02000693          	li	a3,32
 bb2:	cb54                	sw	a3,20(a4)
		// Read A and B Pins (PC4 & PC5), use their state as bits in a bitmask. [AB]
		static int8_t rotenc_prev_bitmask = 0b11;
		       int8_t rotenc_curr_bitmask = (((portc_read >> 4) & 1) << 1) | ((portc_read >> 5) & 1);

		// Convert the bitmasks into a step value using the Gray Code Table
		int8_t step = rotenc_table[ (rotenc_prev_bitmask << 2) | rotenc_curr_bitmask ];
 bb4:	c0418683          	lb	a3,-1020(gp) # 20000000 <rotenc_prev_bitmask.1>
		       int8_t rotenc_curr_bitmask = (((portc_read >> 4) & 1) << 1) | ((portc_read >> 5) & 1);
 bb8:	0037d713          	srli	a4,a5,0x3
 bbc:	8395                	srli	a5,a5,0x5
 bbe:	8b09                	andi	a4,a4,2
 bc0:	8b85                	andi	a5,a5,1
 bc2:	00f76633          	or	a2,a4,a5
		int8_t step = rotenc_table[ (rotenc_prev_bitmask << 2) | rotenc_curr_bitmask ];
 bc6:	068a                	slli	a3,a3,0x2
 bc8:	6785                	lui	a5,0x1
 bca:	8ed1                	or	a3,a3,a2
 bcc:	c7078793          	addi	a5,a5,-912 # c70 <rotenc_table>
 bd0:	97b6                	add	a5,a5,a3
		       int8_t rotenc_curr_bitmask = (((portc_read >> 4) & 1) << 1) | ((portc_read >> 5) & 1);
 bd2:	8732                	mv	a4,a2
		accumulator += step;
 bd4:	c141c683          	lbu	a3,-1004(gp) # 20000010 <accumulator.0>
 bd8:	0007c783          	lbu	a5,0(a5)

		// If the Accumulator has incrimented or decrimented by the number of clicks
		// per indent (4), incriment or decriment the global value
		     if(accumulator >=  4) { g_rotary_encoder_clicks++; accumulator -= 4; }
 bdc:	450d                	li	a0,3
		accumulator += step;
 bde:	97b6                	add	a5,a5,a3
 be0:	0ff7f693          	zext.b	a3,a5
 be4:	07e2                	slli	a5,a5,0x18
 be6:	87e1                	srai	a5,a5,0x18
 be8:	c0f18a23          	sb	a5,-1004(gp) # 20000010 <accumulator.0>
		     if(accumulator >=  4) { g_rotary_encoder_clicks++; accumulator -= 4; }
 bec:	02f55763          	bge	a0,a5,c1a <EXTI7_0_IRQHandler+0xb0>
 bf0:	c221d783          	lhu	a5,-990(gp) # 2000001e <g_rotary_encoder_clicks>
 bf4:	16f1                	addi	a3,a3,-4
 bf6:	0785                	addi	a5,a5,1
 bf8:	07c2                	slli	a5,a5,0x10
 bfa:	87c1                	srai	a5,a5,0x10
 bfc:	c2f19123          	sh	a5,-990(gp) # 2000001e <g_rotary_encoder_clicks>
		else if(accumulator <= -4) { g_rotary_encoder_clicks--; accumulator += 4; }
 c00:	c0d18a23          	sb	a3,-1004(gp) # 20000010 <accumulator.0>
	
		// Update the prev bitmask for the next interrupt
		rotenc_prev_bitmask = rotenc_curr_bitmask;
 c04:	c0e18223          	sb	a4,-1020(gp) # 20000000 <rotenc_prev_bitmask.1>
	}
}
 c08:	4552                	lw	a0,20(sp)
 c0a:	45c2                	lw	a1,16(sp)
 c0c:	4632                	lw	a2,12(sp)
 c0e:	46a2                	lw	a3,8(sp)
 c10:	4712                	lw	a4,4(sp)
 c12:	4782                	lw	a5,0(sp)
 c14:	0161                	addi	sp,sp,24
 c16:	30200073          	mret
		else if(accumulator <= -4) { g_rotary_encoder_clicks--; accumulator += 4; }
 c1a:	5575                	li	a0,-3
 c1c:	fea7d4e3          	bge	a5,a0,c04 <EXTI7_0_IRQHandler+0x9a>
 c20:	c221d783          	lhu	a5,-990(gp) # 2000001e <g_rotary_encoder_clicks>
 c24:	0691                	addi	a3,a3,4
 c26:	17fd                	addi	a5,a5,-1
 c28:	07c2                	slli	a5,a5,0x10
 c2a:	87c1                	srai	a5,a5,0x10
 c2c:	c2f19123          	sh	a5,-990(gp) # 2000001e <g_rotary_encoder_clicks>
 c30:	bfc1                	j	c00 <EXTI7_0_IRQHandler+0x96>
 c32:	0000                	unimp
 c34:	1a80                	addi	s0,sp,368
 c36:	0006                	c.slli	zero,0x1
 c38:	0000                	unimp
 c3a:	0000                	unimp
 c3c:	003c                	addi	a5,sp,8
 c3e:	0001                	nop
 c40:	07d0                	addi	a2,sp,964
 c42:	0000                	unimp
 c44:	d4ae                	sw	a1,104(sp)
 c46:	a880                	.insn	2, 0xa880
 c48:	d31f 4000 148d      	.insn	6, 0x148d4000d31f
 c4e:	0020                	addi	s0,sp,8
 c50:	c8a1                	beqz	s1,ca0 <_data_lma+0x20>
 c52:	12da                	slli	t0,t0,0x36
 c54:	0181                	addi	gp,gp,0 # 200003fc <__global_pointer$>
 c56:	f1d9                	bnez	a1,bdc <EXTI7_0_IRQHandler+0x72>
 c58:	a6a440db          	.insn	4, 0xa6a440db
 c5c:	000000af          	.insn	4, 0x00af
 c60:	6966                	.insn	2, 0x6966
 c62:	6c6c                	.insn	2, 0x6c6c
 c64:	3d20                	.insn	2, 0x3d20
 c66:	3020                	.insn	2, 0x3020
 c68:	2578                	.insn	2, 0x2578
 c6a:	3230                	.insn	2, 0x3230
 c6c:	0a58                	addi	a4,sp,276
	...

00000c70 <rotenc_table>:
 c70:	ff00 0001 0001 ff00 00ff 0100 0100 00ff     ................
