
build/tcrhmag.elf:     file format elf32-littleriscv


Disassembly of section .init:

00000000 <InterruptVector>:
	void InterruptVector()         __attribute__((naked)) __attribute((section(".init"))) __attribute((weak,alias("InterruptVectorDefault"))) __attribute((naked));
	void InterruptVectorDefault()  __attribute__((naked)) __attribute((section(".init"))) __attribute((naked));
	void InterruptVectorDefault( void )
	{
		#if !defined(FUNCONF_TINYVECTOR) || !FUNCONF_TINYVECTOR
			asm volatile( DEFAULT_INTERRUPT_VECTOR_CONTENTS );
   0:	0e70006f          	j	8e6 <handle_reset>
   4:	00000000          	.word	0x00000000
   8:	000009a4          	.word	0x000009a4
   c:	00000958          	.word	0x00000958
	...
  30:	00000f74          	.word	0x00000f74
  34:	00000000          	.word	0x00000000
  38:	00000958          	.word	0x00000958
  3c:	00000000          	.word	0x00000000
  40:	00000958          	.word	0x00000958
  44:	00000958          	.word	0x00000958
  48:	00000958          	.word	0x00000958
  4c:	00000958          	.word	0x00000958
  50:	00000958          	.word	0x00000958
  54:	00000958          	.word	0x00000958
  58:	00000958          	.word	0x00000958
  5c:	00000958          	.word	0x00000958
  60:	00000958          	.word	0x00000958
  64:	00000958          	.word	0x00000958
  68:	00000958          	.word	0x00000958
  6c:	00000958          	.word	0x00000958
  70:	00000958          	.word	0x00000958
  74:	00000958          	.word	0x00000958
  78:	00000958          	.word	0x00000958
  7c:	00000958          	.word	0x00000958
  80:	00000958          	.word	0x00000958
  84:	00000958          	.word	0x00000958
  88:	00000958          	.word	0x00000958
  8c:	00000958          	.word	0x00000958
  90:	00000958          	.word	0x00000958
  94:	00000958          	.word	0x00000958
  98:	00000958          	.word	0x00000958
  9c:	0000                	unimp
	...

Disassembly of section .text:

000000a0 <__divdi3>:
      a0:	fcc10113          	addi	sp,sp,-52
      a4:	d806                	sw	ra,48(sp)
      a6:	d622                	sw	s0,44(sp)
      a8:	d426                	sw	s1,40(sp)
      aa:	c002                	sw	zero,0(sp)
      ac:	832a                	mv	t1,a0
      ae:	0005db63          	bgez	a1,c4 <__divdi3+0x24>
      b2:	00a037b3          	snez	a5,a0
      b6:	40b005b3          	neg	a1,a1
      ba:	8d9d                	sub	a1,a1,a5
      bc:	57fd                	li	a5,-1
      be:	40a00333          	neg	t1,a0
      c2:	c03e                	sw	a5,0(sp)
      c4:	0006dd63          	bgez	a3,de <__divdi3+0x3e>
      c8:	4782                	lw	a5,0(sp)
      ca:	40d006b3          	neg	a3,a3
      ce:	fff7c793          	not	a5,a5
      d2:	c03e                	sw	a5,0(sp)
      d4:	00c037b3          	snez	a5,a2
      d8:	8e9d                	sub	a3,a3,a5
      da:	40c00633          	neg	a2,a2
      de:	82b2                	mv	t0,a2
      e0:	841a                	mv	s0,t1
      e2:	84ae                	mv	s1,a1
      e4:	2a069563          	bnez	a3,38e <__divdi3+0x2ee>
      e8:	6685                	lui	a3,0x1
      ea:	0d868693          	addi	a3,a3,216 # 10d8 <__clz_tab>
      ee:	0ec5f563          	bgeu	a1,a2,1d8 <__divdi3+0x138>
      f2:	67c1                	lui	a5,0x10
      f4:	0cf67b63          	bgeu	a2,a5,1ca <__divdi3+0x12a>
      f8:	10063793          	sltiu	a5,a2,256
      fc:	0017c793          	xori	a5,a5,1
     100:	078e                	slli	a5,a5,0x3
     102:	00f65533          	srl	a0,a2,a5
     106:	96aa                	add	a3,a3,a0
     108:	0006c683          	lbu	a3,0(a3)
     10c:	02000513          	li	a0,32
     110:	97b6                	add	a5,a5,a3
     112:	40f506b3          	sub	a3,a0,a5
     116:	00f50c63          	beq	a0,a5,12e <__divdi3+0x8e>
     11a:	00d59733          	sll	a4,a1,a3
     11e:	00f357b3          	srl	a5,t1,a5
     122:	00d612b3          	sll	t0,a2,a3
     126:	00e7e4b3          	or	s1,a5,a4
     12a:	00d31433          	sll	s0,t1,a3
     12e:	0102d793          	srli	a5,t0,0x10
     132:	c23e                	sw	a5,4(sp)
     134:	4592                	lw	a1,4(sp)
     136:	01029793          	slli	a5,t0,0x10
     13a:	83c1                	srli	a5,a5,0x10
     13c:	8526                	mv	a0,s1
     13e:	ca16                	sw	t0,20(sp)
     140:	c43e                	sw	a5,8(sp)
     142:	2109                	jal	544 <__hidden___udivsi3>
     144:	85aa                	mv	a1,a0
     146:	c82a                	sw	a0,16(sp)
     148:	4522                	lw	a0,8(sp)
     14a:	2ee9                	jal	524 <__mulsi3>
     14c:	4592                	lw	a1,4(sp)
     14e:	c62a                	sw	a0,12(sp)
     150:	8526                	mv	a0,s1
     152:	2939                	jal	570 <__umodsi3>
     154:	4642                	lw	a2,16(sp)
     156:	46b2                	lw	a3,12(sp)
     158:	0542                	slli	a0,a0,0x10
     15a:	01045713          	srli	a4,s0,0x10
     15e:	8f49                	or	a4,a4,a0
     160:	42d2                	lw	t0,20(sp)
     162:	84b2                	mv	s1,a2
     164:	00d77c63          	bgeu	a4,a3,17c <__divdi3+0xdc>
     168:	9716                	add	a4,a4,t0
     16a:	fff60493          	addi	s1,a2,-1
     16e:	00576763          	bltu	a4,t0,17c <__divdi3+0xdc>
     172:	00d77563          	bgeu	a4,a3,17c <__divdi3+0xdc>
     176:	ffe60493          	addi	s1,a2,-2
     17a:	9716                	add	a4,a4,t0
     17c:	4592                	lw	a1,4(sp)
     17e:	40d707b3          	sub	a5,a4,a3
     182:	853e                	mv	a0,a5
     184:	ca16                	sw	t0,20(sp)
     186:	c63e                	sw	a5,12(sp)
     188:	2e75                	jal	544 <__hidden___udivsi3>
     18a:	85aa                	mv	a1,a0
     18c:	c82a                	sw	a0,16(sp)
     18e:	4522                	lw	a0,8(sp)
     190:	0442                	slli	s0,s0,0x10
     192:	8041                	srli	s0,s0,0x10
     194:	2e41                	jal	524 <__mulsi3>
     196:	c42a                	sw	a0,8(sp)
     198:	4592                	lw	a1,4(sp)
     19a:	4532                	lw	a0,12(sp)
     19c:	2ed1                	jal	570 <__umodsi3>
     19e:	4742                	lw	a4,16(sp)
     1a0:	46a2                	lw	a3,8(sp)
     1a2:	0542                	slli	a0,a0,0x10
     1a4:	8c49                	or	s0,s0,a0
     1a6:	863a                	mv	a2,a4
     1a8:	00d47c63          	bgeu	s0,a3,1c0 <__divdi3+0x120>
     1ac:	42d2                	lw	t0,20(sp)
     1ae:	fff70613          	addi	a2,a4,-1
     1b2:	9416                	add	s0,s0,t0
     1b4:	00546663          	bltu	s0,t0,1c0 <__divdi3+0x120>
     1b8:	00d47463          	bgeu	s0,a3,1c0 <__divdi3+0x120>
     1bc:	ffe70613          	addi	a2,a4,-2
     1c0:	01049793          	slli	a5,s1,0x10
     1c4:	8fd1                	or	a5,a5,a2
     1c6:	4481                	li	s1,0
     1c8:	a0c5                	j	2a8 <__divdi3+0x208>
     1ca:	01000537          	lui	a0,0x1000
     1ce:	47c1                	li	a5,16
     1d0:	f2a669e3          	bltu	a2,a0,102 <__divdi3+0x62>
     1d4:	47e1                	li	a5,24
     1d6:	b735                	j	102 <__divdi3+0x62>
     1d8:	4781                	li	a5,0
     1da:	ca09                	beqz	a2,1ec <__divdi3+0x14c>
     1dc:	67c1                	lui	a5,0x10
     1de:	0ef67663          	bgeu	a2,a5,2ca <__divdi3+0x22a>
     1e2:	10063793          	sltiu	a5,a2,256
     1e6:	0017c793          	xori	a5,a5,1
     1ea:	078e                	slli	a5,a5,0x3
     1ec:	00f65733          	srl	a4,a2,a5
     1f0:	9736                	add	a4,a4,a3
     1f2:	00074703          	lbu	a4,0(a4)
     1f6:	02000693          	li	a3,32
     1fa:	97ba                	add	a5,a5,a4
     1fc:	40f68733          	sub	a4,a3,a5
     200:	0cf69c63          	bne	a3,a5,2d8 <__divdi3+0x238>
     204:	40c58633          	sub	a2,a1,a2
     208:	4485                	li	s1,1
     20a:	0102d793          	srli	a5,t0,0x10
     20e:	c23e                	sw	a5,4(sp)
     210:	4592                	lw	a1,4(sp)
     212:	01029793          	slli	a5,t0,0x10
     216:	83c1                	srli	a5,a5,0x10
     218:	8532                	mv	a0,a2
     21a:	cc16                	sw	t0,24(sp)
     21c:	c43e                	sw	a5,8(sp)
     21e:	ca32                	sw	a2,20(sp)
     220:	2615                	jal	544 <__hidden___udivsi3>
     222:	85aa                	mv	a1,a0
     224:	c82a                	sw	a0,16(sp)
     226:	4522                	lw	a0,8(sp)
     228:	2cf5                	jal	524 <__mulsi3>
     22a:	4652                	lw	a2,20(sp)
     22c:	4592                	lw	a1,4(sp)
     22e:	c62a                	sw	a0,12(sp)
     230:	8532                	mv	a0,a2
     232:	2e3d                	jal	570 <__umodsi3>
     234:	43c2                	lw	t2,16(sp)
     236:	4332                	lw	t1,12(sp)
     238:	0542                	slli	a0,a0,0x10
     23a:	01045693          	srli	a3,s0,0x10
     23e:	8ec9                	or	a3,a3,a0
     240:	42e2                	lw	t0,24(sp)
     242:	879e                	mv	a5,t2
     244:	0066fc63          	bgeu	a3,t1,25c <__divdi3+0x1bc>
     248:	9696                	add	a3,a3,t0
     24a:	fff38793          	addi	a5,t2,-1
     24e:	0056e763          	bltu	a3,t0,25c <__divdi3+0x1bc>
     252:	0066f563          	bgeu	a3,t1,25c <__divdi3+0x1bc>
     256:	ffe38793          	addi	a5,t2,-2
     25a:	9696                	add	a3,a3,t0
     25c:	4592                	lw	a1,4(sp)
     25e:	cc3e                	sw	a5,24(sp)
     260:	406687b3          	sub	a5,a3,t1
     264:	853e                	mv	a0,a5
     266:	c63e                	sw	a5,12(sp)
     268:	ca16                	sw	t0,20(sp)
     26a:	2ce9                	jal	544 <__hidden___udivsi3>
     26c:	85aa                	mv	a1,a0
     26e:	c82a                	sw	a0,16(sp)
     270:	4522                	lw	a0,8(sp)
     272:	0442                	slli	s0,s0,0x10
     274:	8041                	srli	s0,s0,0x10
     276:	247d                	jal	524 <__mulsi3>
     278:	4592                	lw	a1,4(sp)
     27a:	c42a                	sw	a0,8(sp)
     27c:	4532                	lw	a0,12(sp)
     27e:	2ccd                	jal	570 <__umodsi3>
     280:	46c2                	lw	a3,16(sp)
     282:	4622                	lw	a2,8(sp)
     284:	0542                	slli	a0,a0,0x10
     286:	8c49                	or	s0,s0,a0
     288:	47e2                	lw	a5,24(sp)
     28a:	85b6                	mv	a1,a3
     28c:	00c47c63          	bgeu	s0,a2,2a4 <__divdi3+0x204>
     290:	42d2                	lw	t0,20(sp)
     292:	fff68593          	addi	a1,a3,-1
     296:	9416                	add	s0,s0,t0
     298:	00546663          	bltu	s0,t0,2a4 <__divdi3+0x204>
     29c:	00c47463          	bgeu	s0,a2,2a4 <__divdi3+0x204>
     2a0:	ffe68593          	addi	a1,a3,-2
     2a4:	07c2                	slli	a5,a5,0x10
     2a6:	8fcd                	or	a5,a5,a1
     2a8:	853e                	mv	a0,a5
     2aa:	4782                	lw	a5,0(sp)
     2ac:	85a6                	mv	a1,s1
     2ae:	cb81                	beqz	a5,2be <__divdi3+0x21e>
     2b0:	00a037b3          	snez	a5,a0
     2b4:	409005b3          	neg	a1,s1
     2b8:	8d9d                	sub	a1,a1,a5
     2ba:	40a00533          	neg	a0,a0
     2be:	50c2                	lw	ra,48(sp)
     2c0:	5432                	lw	s0,44(sp)
     2c2:	54a2                	lw	s1,40(sp)
     2c4:	03410113          	addi	sp,sp,52
     2c8:	8082                	ret
     2ca:	01000737          	lui	a4,0x1000
     2ce:	47c1                	li	a5,16
     2d0:	f0e66ee3          	bltu	a2,a4,1ec <__divdi3+0x14c>
     2d4:	47e1                	li	a5,24
     2d6:	bf19                	j	1ec <__divdi3+0x14c>
     2d8:	00f5d4b3          	srl	s1,a1,a5
     2dc:	00e595b3          	sll	a1,a1,a4
     2e0:	00f357b3          	srl	a5,t1,a5
     2e4:	00e612b3          	sll	t0,a2,a4
     2e8:	8fcd                	or	a5,a5,a1
     2ea:	c43e                	sw	a5,8(sp)
     2ec:	0102d793          	srli	a5,t0,0x10
     2f0:	c23e                	sw	a5,4(sp)
     2f2:	4592                	lw	a1,4(sp)
     2f4:	01029793          	slli	a5,t0,0x10
     2f8:	83c1                	srli	a5,a5,0x10
     2fa:	8526                	mv	a0,s1
     2fc:	cc16                	sw	t0,24(sp)
     2fe:	c63e                	sw	a5,12(sp)
     300:	00e31433          	sll	s0,t1,a4
     304:	2481                	jal	544 <__hidden___udivsi3>
     306:	85aa                	mv	a1,a0
     308:	ca2a                	sw	a0,20(sp)
     30a:	4532                	lw	a0,12(sp)
     30c:	2c21                	jal	524 <__mulsi3>
     30e:	4592                	lw	a1,4(sp)
     310:	c82a                	sw	a0,16(sp)
     312:	8526                	mv	a0,s1
     314:	2cb1                	jal	570 <__umodsi3>
     316:	47a2                	lw	a5,8(sp)
     318:	4652                	lw	a2,20(sp)
     31a:	46c2                	lw	a3,16(sp)
     31c:	0542                	slli	a0,a0,0x10
     31e:	83c1                	srli	a5,a5,0x10
     320:	8fc9                	or	a5,a5,a0
     322:	42e2                	lw	t0,24(sp)
     324:	84b2                	mv	s1,a2
     326:	00d7fc63          	bgeu	a5,a3,33e <__divdi3+0x29e>
     32a:	9796                	add	a5,a5,t0
     32c:	fff60493          	addi	s1,a2,-1
     330:	0057e763          	bltu	a5,t0,33e <__divdi3+0x29e>
     334:	00d7f563          	bgeu	a5,a3,33e <__divdi3+0x29e>
     338:	ffe60493          	addi	s1,a2,-2
     33c:	9796                	add	a5,a5,t0
     33e:	4592                	lw	a1,4(sp)
     340:	8f95                	sub	a5,a5,a3
     342:	853e                	mv	a0,a5
     344:	cc16                	sw	t0,24(sp)
     346:	c83e                	sw	a5,16(sp)
     348:	2af5                	jal	544 <__hidden___udivsi3>
     34a:	85aa                	mv	a1,a0
     34c:	ca2a                	sw	a0,20(sp)
     34e:	4532                	lw	a0,12(sp)
     350:	2ad1                	jal	524 <__mulsi3>
     352:	4592                	lw	a1,4(sp)
     354:	c62a                	sw	a0,12(sp)
     356:	4542                	lw	a0,16(sp)
     358:	2c21                	jal	570 <__umodsi3>
     35a:	00815603          	lhu	a2,8(sp)
     35e:	46d2                	lw	a3,20(sp)
     360:	47b2                	lw	a5,12(sp)
     362:	0542                	slli	a0,a0,0x10
     364:	8e49                	or	a2,a2,a0
     366:	42e2                	lw	t0,24(sp)
     368:	85b6                	mv	a1,a3
     36a:	00f67c63          	bgeu	a2,a5,382 <__divdi3+0x2e2>
     36e:	9616                	add	a2,a2,t0
     370:	fff68593          	addi	a1,a3,-1
     374:	00566763          	bltu	a2,t0,382 <__divdi3+0x2e2>
     378:	00f67563          	bgeu	a2,a5,382 <__divdi3+0x2e2>
     37c:	ffe68593          	addi	a1,a3,-2
     380:	9616                	add	a2,a2,t0
     382:	01049713          	slli	a4,s1,0x10
     386:	8e1d                	sub	a2,a2,a5
     388:	00b764b3          	or	s1,a4,a1
     38c:	bdbd                	j	20a <__divdi3+0x16a>
     38e:	18d5e763          	bltu	a1,a3,51c <__divdi3+0x47c>
     392:	67c1                	lui	a5,0x10
     394:	02f6fe63          	bgeu	a3,a5,3d0 <__divdi3+0x330>
     398:	1006b793          	sltiu	a5,a3,256
     39c:	0017c793          	xori	a5,a5,1
     3a0:	078e                	slli	a5,a5,0x3
     3a2:	6705                	lui	a4,0x1
     3a4:	00f6d533          	srl	a0,a3,a5
     3a8:	0d870713          	addi	a4,a4,216 # 10d8 <__clz_tab>
     3ac:	972a                	add	a4,a4,a0
     3ae:	00074503          	lbu	a0,0(a4)
     3b2:	953e                	add	a0,a0,a5
     3b4:	02000793          	li	a5,32
     3b8:	40a784b3          	sub	s1,a5,a0
     3bc:	02a79163          	bne	a5,a0,3de <__divdi3+0x33e>
     3c0:	4785                	li	a5,1
     3c2:	eeb6e3e3          	bltu	a3,a1,2a8 <__divdi3+0x208>
     3c6:	00c33633          	sltu	a2,t1,a2
     3ca:	00164793          	xori	a5,a2,1
     3ce:	bde9                	j	2a8 <__divdi3+0x208>
     3d0:	01000737          	lui	a4,0x1000
     3d4:	47c1                	li	a5,16
     3d6:	fce6e6e3          	bltu	a3,a4,3a2 <__divdi3+0x302>
     3da:	47e1                	li	a5,24
     3dc:	b7d9                	j	3a2 <__divdi3+0x302>
     3de:	009697b3          	sll	a5,a3,s1
     3e2:	00a656b3          	srl	a3,a2,a0
     3e6:	8edd                	or	a3,a3,a5
     3e8:	00a5d433          	srl	s0,a1,a0
     3ec:	009617b3          	sll	a5,a2,s1
     3f0:	00a35533          	srl	a0,t1,a0
     3f4:	009595b3          	sll	a1,a1,s1
     3f8:	c43e                	sw	a5,8(sp)
     3fa:	00b567b3          	or	a5,a0,a1
     3fe:	c63e                	sw	a5,12(sp)
     400:	0106d793          	srli	a5,a3,0x10
     404:	c23e                	sw	a5,4(sp)
     406:	4592                	lw	a1,4(sp)
     408:	01069793          	slli	a5,a3,0x10
     40c:	83c1                	srli	a5,a5,0x10
     40e:	8522                	mv	a0,s0
     410:	d01a                	sw	t1,32(sp)
     412:	ce36                	sw	a3,28(sp)
     414:	c83e                	sw	a5,16(sp)
     416:	223d                	jal	544 <__hidden___udivsi3>
     418:	85aa                	mv	a1,a0
     41a:	cc2a                	sw	a0,24(sp)
     41c:	4542                	lw	a0,16(sp)
     41e:	2219                	jal	524 <__mulsi3>
     420:	4592                	lw	a1,4(sp)
     422:	ca2a                	sw	a0,20(sp)
     424:	8522                	mv	a0,s0
     426:	22a9                	jal	570 <__umodsi3>
     428:	47b2                	lw	a5,12(sp)
     42a:	42e2                	lw	t0,24(sp)
     42c:	4652                	lw	a2,20(sp)
     42e:	0107d413          	srli	s0,a5,0x10
     432:	0542                	slli	a0,a0,0x10
     434:	8c49                	or	s0,s0,a0
     436:	46f2                	lw	a3,28(sp)
     438:	5302                	lw	t1,32(sp)
     43a:	8796                	mv	a5,t0
     43c:	00c47c63          	bgeu	s0,a2,454 <__divdi3+0x3b4>
     440:	9436                	add	s0,s0,a3
     442:	fff28793          	addi	a5,t0,-1
     446:	00d46763          	bltu	s0,a3,454 <__divdi3+0x3b4>
     44a:	00c47563          	bgeu	s0,a2,454 <__divdi3+0x3b4>
     44e:	ffe28793          	addi	a5,t0,-2
     452:	9436                	add	s0,s0,a3
     454:	4592                	lw	a1,4(sp)
     456:	d03e                	sw	a5,32(sp)
     458:	40c407b3          	sub	a5,s0,a2
     45c:	853e                	mv	a0,a5
     45e:	d21a                	sw	t1,36(sp)
     460:	ca3e                	sw	a5,20(sp)
     462:	ce36                	sw	a3,28(sp)
     464:	20c5                	jal	544 <__hidden___udivsi3>
     466:	85aa                	mv	a1,a0
     468:	cc2a                	sw	a0,24(sp)
     46a:	4542                	lw	a0,16(sp)
     46c:	2865                	jal	524 <__mulsi3>
     46e:	4592                	lw	a1,4(sp)
     470:	842a                	mv	s0,a0
     472:	4552                	lw	a0,20(sp)
     474:	28f5                	jal	570 <__umodsi3>
     476:	00c15603          	lhu	a2,12(sp)
     47a:	43e2                	lw	t2,24(sp)
     47c:	0542                	slli	a0,a0,0x10
     47e:	8e49                	or	a2,a2,a0
     480:	5782                	lw	a5,32(sp)
     482:	5312                	lw	t1,36(sp)
     484:	859e                	mv	a1,t2
     486:	00867d63          	bgeu	a2,s0,4a0 <__divdi3+0x400>
     48a:	46f2                	lw	a3,28(sp)
     48c:	fff38593          	addi	a1,t2,-1
     490:	9636                	add	a2,a2,a3
     492:	00d66763          	bltu	a2,a3,4a0 <__divdi3+0x400>
     496:	00867563          	bgeu	a2,s0,4a0 <__divdi3+0x400>
     49a:	ffe38593          	addi	a1,t2,-2
     49e:	9636                	add	a2,a2,a3
     4a0:	40860733          	sub	a4,a2,s0
     4a4:	4622                	lw	a2,8(sp)
     4a6:	66c1                	lui	a3,0x10
     4a8:	07c2                	slli	a5,a5,0x10
     4aa:	8fcd                	or	a5,a5,a1
     4ac:	fff68293          	addi	t0,a3,-1 # ffff <lib_pid.c.7f95fc39+0xc7ad>
     4b0:	0057f433          	and	s0,a5,t0
     4b4:	005672b3          	and	t0,a2,t0
     4b8:	8241                	srli	a2,a2,0x10
     4ba:	c232                	sw	a2,4(sp)
     4bc:	8522                	mv	a0,s0
     4be:	8596                	mv	a1,t0
     4c0:	2095                	jal	524 <__mulsi3>
     4c2:	83aa                	mv	t2,a0
     4c4:	4592                	lw	a1,4(sp)
     4c6:	8522                	mv	a0,s0
     4c8:	28b1                	jal	524 <__mulsi3>
     4ca:	842a                	mv	s0,a0
     4cc:	8596                	mv	a1,t0
     4ce:	0107d513          	srli	a0,a5,0x10
     4d2:	2889                	jal	524 <__mulsi3>
     4d4:	82aa                	mv	t0,a0
     4d6:	4592                	lw	a1,4(sp)
     4d8:	0107d513          	srli	a0,a5,0x10
     4dc:	20a1                	jal	524 <__mulsi3>
     4de:	0103d613          	srli	a2,t2,0x10
     4e2:	005406b3          	add	a3,s0,t0
     4e6:	00d60433          	add	s0,a2,a3
     4ea:	00547463          	bgeu	s0,t0,4f2 <__divdi3+0x452>
     4ee:	66c1                	lui	a3,0x10
     4f0:	9536                	add	a0,a0,a3
     4f2:	01045693          	srli	a3,s0,0x10
     4f6:	9536                	add	a0,a0,a3
     4f8:	02a76063          	bltu	a4,a0,518 <__divdi3+0x478>
     4fc:	cca715e3          	bne	a4,a0,1c6 <__divdi3+0x126>
     500:	6741                	lui	a4,0x10
     502:	177d                	addi	a4,a4,-1 # ffff <lib_pid.c.7f95fc39+0xc7ad>
     504:	8c79                	and	s0,s0,a4
     506:	0442                	slli	s0,s0,0x10
     508:	00e3f733          	and	a4,t2,a4
     50c:	00931333          	sll	t1,t1,s1
     510:	943a                	add	s0,s0,a4
     512:	4481                	li	s1,0
     514:	d8837ae3          	bgeu	t1,s0,2a8 <__divdi3+0x208>
     518:	17fd                	addi	a5,a5,-1 # ffff <lib_pid.c.7f95fc39+0xc7ad>
     51a:	b175                	j	1c6 <__divdi3+0x126>
     51c:	4481                	li	s1,0
     51e:	4781                	li	a5,0
     520:	b361                	j	2a8 <__divdi3+0x208>
	...

00000524 <__mulsi3>:
     524:	862a                	mv	a2,a0
     526:	4501                	li	a0,0
     528:	0015f693          	andi	a3,a1,1
     52c:	c291                	beqz	a3,530 <__mulsi3+0xc>
     52e:	9532                	add	a0,a0,a2
     530:	8185                	srli	a1,a1,0x1
     532:	0606                	slli	a2,a2,0x1
     534:	f9f5                	bnez	a1,528 <__mulsi3+0x4>
     536:	8082                	ret
     538:	0000                	unimp
	...

0000053c <__divsi3>:
     53c:	02054e63          	bltz	a0,578 <__umodsi3+0x8>
     540:	0405c363          	bltz	a1,586 <__umodsi3+0x16>

00000544 <__hidden___udivsi3>:
     544:	862e                	mv	a2,a1
     546:	85aa                	mv	a1,a0
     548:	557d                	li	a0,-1
     54a:	c215                	beqz	a2,56e <__hidden___udivsi3+0x2a>
     54c:	4685                	li	a3,1
     54e:	00b67863          	bgeu	a2,a1,55e <__hidden___udivsi3+0x1a>
     552:	00c05663          	blez	a2,55e <__hidden___udivsi3+0x1a>
     556:	0606                	slli	a2,a2,0x1
     558:	0686                	slli	a3,a3,0x1
     55a:	feb66ce3          	bltu	a2,a1,552 <__hidden___udivsi3+0xe>
     55e:	4501                	li	a0,0
     560:	00c5e463          	bltu	a1,a2,568 <__hidden___udivsi3+0x24>
     564:	8d91                	sub	a1,a1,a2
     566:	8d55                	or	a0,a0,a3
     568:	8285                	srli	a3,a3,0x1
     56a:	8205                	srli	a2,a2,0x1
     56c:	faf5                	bnez	a3,560 <__hidden___udivsi3+0x1c>
     56e:	8082                	ret

00000570 <__umodsi3>:
     570:	8286                	mv	t0,ra
     572:	3fc9                	jal	544 <__hidden___udivsi3>
     574:	852e                	mv	a0,a1
     576:	8282                	jr	t0
     578:	40a00533          	neg	a0,a0
     57c:	00b04763          	bgtz	a1,58a <__umodsi3+0x1a>
     580:	40b005b3          	neg	a1,a1
     584:	b7c1                	j	544 <__hidden___udivsi3>
     586:	40b005b3          	neg	a1,a1
     58a:	8286                	mv	t0,ra
     58c:	3f65                	jal	544 <__hidden___udivsi3>
     58e:	40a00533          	neg	a0,a0
     592:	8282                	jr	t0

00000594 <__modsi3>:
     594:	8286                	mv	t0,ra
     596:	0005c763          	bltz	a1,5a4 <__modsi3+0x10>
     59a:	00054963          	bltz	a0,5ac <__modsi3+0x18>
     59e:	375d                	jal	544 <__hidden___udivsi3>
     5a0:	852e                	mv	a0,a1
     5a2:	8282                	jr	t0
     5a4:	40b005b3          	neg	a1,a1
     5a8:	fe055be3          	bgez	a0,59e <__modsi3+0xa>
     5ac:	40a00533          	neg	a0,a0
     5b0:	3f51                	jal	544 <__hidden___udivsi3>
     5b2:	40b00533          	neg	a0,a1
     5b6:	8282                	jr	t0
	...

000005ba <mini_pad>:
	if(pad_to == 0) pad_to = len;
     5ba:	c699                	beqz	a3,5c8 <mini_pad+0xe>
	int overflow = 0;
     5bc:	4301                	li	t1,0
	if(len > pad_to) {
     5be:	00b6d763          	bge	a3,a1,5cc <mini_pad+0x12>
		len = pad_to;
     5c2:	85b6                	mv	a1,a3
		overflow = 1;
     5c4:	4305                	li	t1,1
     5c6:	a019                	j	5cc <mini_pad+0x12>
	int overflow = 0;
     5c8:	4301                	li	t1,0
	if(pad_to == 0) pad_to = len;
     5ca:	86ae                	mv	a3,a1
	for(i = pad_to - len; i > 0; i --) {
     5cc:	8e8d                	sub	a3,a3,a1
	char * pbuffer = buffer;
     5ce:	87ba                	mv	a5,a4
     5d0:	00e683b3          	add	t2,a3,a4
	for(i = pad_to - len; i > 0; i --) {
     5d4:	40f382b3          	sub	t0,t2,a5
     5d8:	04504a63          	bgtz	t0,62c <mini_pad+0x72>
     5dc:	fff6c793          	not	a5,a3
     5e0:	87fd                	srai	a5,a5,0x1f
     5e2:	8efd                	and	a3,a3,a5
     5e4:	96ba                	add	a3,a3,a4
     5e6:	4781                	li	a5,0
	for(i = len; i > 0; i --) {
     5e8:	40f58633          	sub	a2,a1,a5
     5ec:	00f682b3          	add	t0,a3,a5
     5f0:	04c04263          	bgtz	a2,634 <mini_pad+0x7a>
     5f4:	fff5c793          	not	a5,a1
     5f8:	87fd                	srai	a5,a5,0x1f
     5fa:	8dfd                	and	a1,a1,a5
     5fc:	95b6                	add	a1,a1,a3
	len = pbuffer - buffer;
     5fe:	40e58533          	sub	a0,a1,a4
	if(overflow) {
     602:	02030463          	beqz	t1,62a <mini_pad+0x70>
		for (i = 0; i < 3 && pbuffer > buffer; i ++) {
     606:	02b77263          	bgeu	a4,a1,62a <mini_pad+0x70>
			*(pbuffer-- - 1) = '*';
     60a:	02a00793          	li	a5,42
     60e:	fef58fa3          	sb	a5,-1(a1)
     612:	fff58693          	addi	a3,a1,-1
		for (i = 0; i < 3 && pbuffer > buffer; i ++) {
     616:	00d77a63          	bgeu	a4,a3,62a <mini_pad+0x70>
			*(pbuffer-- - 1) = '*';
     61a:	fef58f23          	sb	a5,-2(a1)
     61e:	ffe58693          	addi	a3,a1,-2
		for (i = 0; i < 3 && pbuffer > buffer; i ++) {
     622:	00d77463          	bgeu	a4,a3,62a <mini_pad+0x70>
			*(pbuffer-- - 1) = '*';
     626:	fef58ea3          	sb	a5,-3(a1)
}
     62a:	8082                	ret
		*(pbuffer++) = pad_char;
     62c:	0785                	addi	a5,a5,1
     62e:	fec78fa3          	sb	a2,-1(a5)
	for(i = pad_to - len; i > 0; i --) {
     632:	b74d                	j	5d4 <mini_pad+0x1a>
		*(pbuffer++) = *(ptr++);
     634:	00f50633          	add	a2,a0,a5
     638:	00064603          	lbu	a2,0(a2)
     63c:	0785                	addi	a5,a5,1
     63e:	00c28023          	sb	a2,0(t0)
	for(i = len; i > 0; i --) {
     642:	b75d                	j	5e8 <mini_pad+0x2e>

00000644 <_puts>:
{
     644:	832a                	mv	t1,a0
     646:	852e                	mv	a0,a1
	if(!buf) return len;
     648:	ce01                	beqz	a2,660 <_puts+0x1c>
	char * p0 = b->buffer;
     64a:	00062283          	lw	t0,0(a2)
	for (i = 0; i < len; i++) {
     64e:	4701                	li	a4,0
		if(b->pbuffer == b->buffer + b->buffer_len - 1) {
     650:	425c                	lw	a5,4(a2)
	for (i = 0; i < len; i++) {
     652:	00a74863          	blt	a4,a0,662 <_puts+0x1e>
	*(b->pbuffer) = 0;
     656:	00078023          	sb	zero,0(a5)
	return b->pbuffer - p0;
     65a:	4248                	lw	a0,4(a2)
     65c:	40550533          	sub	a0,a0,t0
}
     660:	8082                	ret
		if(b->pbuffer == b->buffer + b->buffer_len - 1) {
     662:	460c                	lw	a1,8(a2)
     664:	4214                	lw	a3,0(a2)
     666:	15fd                	addi	a1,a1,-1
     668:	96ae                	add	a3,a3,a1
     66a:	fed786e3          	beq	a5,a3,656 <_puts+0x12>
		*(b->pbuffer ++) = s[i];
     66e:	00178693          	addi	a3,a5,1
     672:	c254                	sw	a3,4(a2)
     674:	00e306b3          	add	a3,t1,a4
     678:	0006c683          	lbu	a3,0(a3) # 10000 <lib_pid.c.7f95fc39+0xc7ae>
	for (i = 0; i < len; i++) {
     67c:	0705                	addi	a4,a4,1
		*(b->pbuffer ++) = s[i];
     67e:	00d78023          	sb	a3,0(a5)
	for (i = 0; i < len; i++) {
     682:	b7f9                	j	650 <_puts+0xc>

00000684 <PrintHex>:
	while( (*DMDATA0) & 0x80 );
     684:	e00007b7          	lui	a5,0xe0000
     688:	0f478793          	addi	a5,a5,244 # e00000f4 <_eusrstack+0xbffff8f4>
     68c:	4398                	lw	a4,0(a5)
     68e:	08077713          	andi	a4,a4,128
     692:	ff6d                	bnez	a4,68c <PrintHex+0x8>
	*DMDATA0 = 0x78302088; //" 0x"
     694:	78302737          	lui	a4,0x78302
     698:	08870713          	addi	a4,a4,136 # 78302088 <_eusrstack+0x58301888>
		while( (*DMDATA0) & 0x80 );
     69c:	e00006b7          	lui	a3,0xe0000
	*DMDATA0 = 0x78302088; //" 0x"
     6a0:	c398                	sw	a4,0(a5)
		while( (*DMDATA0) & 0x80 );
     6a2:	0f468693          	addi	a3,a3,244 # e00000f4 <_eusrstack+0xbffff8f4>
	for( shift = 28; shift >= 0; shift -= 4 )
     6a6:	4771                	li	a4,28
		s += ( s < 10 ) ? '0' : ('a' - 10);
     6a8:	45a5                	li	a1,9
	for( shift = 28; shift >= 0; shift -= 4 )
     6aa:	5671                	li	a2,-4
		while( (*DMDATA0) & 0x80 );
     6ac:	429c                	lw	a5,0(a3)
     6ae:	0807f793          	andi	a5,a5,128
     6b2:	ffed                	bnez	a5,6ac <PrintHex+0x28>
		int s = (n>>shift) & 0xf;
     6b4:	00e55333          	srl	t1,a0,a4
     6b8:	00f37313          	andi	t1,t1,15
		s += ( s < 10 ) ? '0' : ('a' - 10);
     6bc:	0065b7b3          	sltu	a5,a1,t1
     6c0:	40f007b3          	neg	a5,a5
     6c4:	0277f793          	andi	a5,a5,39
     6c8:	03078793          	addi	a5,a5,48
     6cc:	979a                	add	a5,a5,t1
		*DMDATA0 = 0x85 | (s<<8); //" 0x"
     6ce:	07a2                	slli	a5,a5,0x8
     6d0:	0857e793          	ori	a5,a5,133
     6d4:	c29c                	sw	a5,0(a3)
	for( shift = 28; shift >= 0; shift -= 4 )
     6d6:	1771                	addi	a4,a4,-4
     6d8:	fcc71ae3          	bne	a4,a2,6ac <PrintHex+0x28>
}
     6dc:	8082                	ret

000006de <mini_itoa.part.0>:
int mini_itoa(long value, unsigned int radix, int uppercase, int unsig, char *buffer)
     6de:	1101                	addi	sp,sp,-32
     6e0:	ce06                	sw	ra,28(sp)
     6e2:	cc22                	sw	s0,24(sp)
     6e4:	ca26                	sw	s1,20(sp)
	int	negative = 0;
     6e6:	c002                	sw	zero,0(sp)
int mini_itoa(long value, unsigned int radix, int uppercase, int unsig, char *buffer)
     6e8:	832a                	mv	t1,a0
	if (value < 0 && !unsig) {
     6ea:	00055763          	bgez	a0,6f8 <mini_itoa.part.0+0x1a>
     6ee:	e689                	bnez	a3,6f8 <mini_itoa.part.0+0x1a>
		negative = 1;
     6f0:	4785                	li	a5,1
		value = -value;
     6f2:	40a00333          	neg	t1,a0
		negative = 1;
     6f6:	c03e                	sw	a5,0(sp)
     6f8:	8a05                	andi	a2,a2,1
     6fa:	06100413          	li	s0,97
     6fe:	c219                	beqz	a2,704 <mini_itoa.part.0+0x26>
     700:	04100413          	li	s0,65
	int	negative = 0;
     704:	84ba                	mv	s1,a4
		*(pbuffer++) = (digit < 10 ? '0' + digit : (uppercase ? 'A' : 'a') + digit - 10);
     706:	1459                	addi	s0,s0,-10
		int digit = value % radix;
     708:	851a                	mv	a0,t1
     70a:	c83a                	sw	a4,16(sp)
     70c:	c21a                	sw	t1,4(sp)
     70e:	c62e                	sw	a1,12(sp)
     710:	c41a                	sw	t1,8(sp)
     712:	3db9                	jal	570 <__umodsi3>
		*(pbuffer++) = (digit < 10 ? '0' + digit : (uppercase ? 'A' : 'a') + digit - 10);
     714:	47a5                	li	a5,9
     716:	4322                	lw	t1,8(sp)
     718:	45b2                	lw	a1,12(sp)
     71a:	4742                	lw	a4,16(sp)
     71c:	0ff57693          	zext.b	a3,a0
     720:	06a7e163          	bltu	a5,a0,782 <mini_itoa.part.0+0xa4>
     724:	03068693          	addi	a3,a3,48
     728:	0ff6f693          	zext.b	a3,a3
     72c:	00148793          	addi	a5,s1,1
     730:	00d48023          	sb	a3,0(s1)
		value /= radix;
     734:	851a                	mv	a0,t1
     736:	c83a                	sw	a4,16(sp)
		*(pbuffer++) = (digit < 10 ? '0' + digit : (uppercase ? 'A' : 'a') + digit - 10);
     738:	c63e                	sw	a5,12(sp)
		value /= radix;
     73a:	c42e                	sw	a1,8(sp)
     73c:	3521                	jal	544 <__hidden___udivsi3>
	} while (value > 0);
     73e:	4692                	lw	a3,4(sp)
     740:	45a2                	lw	a1,8(sp)
     742:	47b2                	lw	a5,12(sp)
     744:	4742                	lw	a4,16(sp)
		value /= radix;
     746:	832a                	mv	t1,a0
	} while (value > 0);
     748:	02b6fb63          	bgeu	a3,a1,77e <mini_itoa.part.0+0xa0>
	if (negative)
     74c:	4682                	lw	a3,0(sp)
     74e:	c699                	beqz	a3,75c <mini_itoa.part.0+0x7e>
		*(pbuffer++) = '-';
     750:	02d00693          	li	a3,45
     754:	00d78023          	sb	a3,0(a5)
     758:	00248793          	addi	a5,s1,2
	len = (pbuffer - buffer);
     75c:	40e78533          	sub	a0,a5,a4
	for (i = 0; i < len / 2; i++) {
     760:	01f55693          	srli	a3,a0,0x1f
     764:	96aa                	add	a3,a3,a0
	*(pbuffer) = '\0';
     766:	00078023          	sb	zero,0(a5)
	for (i = 0; i < len / 2; i++) {
     76a:	8685                	srai	a3,a3,0x1
     76c:	4601                	li	a2,0
     76e:	17fd                	addi	a5,a5,-1
     770:	00d64b63          	blt	a2,a3,786 <mini_itoa.part.0+0xa8>
}
     774:	40f2                	lw	ra,28(sp)
     776:	4462                	lw	s0,24(sp)
     778:	44d2                	lw	s1,20(sp)
     77a:	6105                	addi	sp,sp,32
     77c:	8082                	ret
		*(pbuffer++) = (digit < 10 ? '0' + digit : (uppercase ? 'A' : 'a') + digit - 10);
     77e:	84be                	mv	s1,a5
     780:	b761                	j	708 <mini_itoa.part.0+0x2a>
     782:	96a2                	add	a3,a3,s0
     784:	b755                	j	728 <mini_itoa.part.0+0x4a>
		char j = buffer[i];
     786:	00c705b3          	add	a1,a4,a2
		buffer[i] = buffer[len-i-1];
     78a:	0007c283          	lbu	t0,0(a5)
		char j = buffer[i];
     78e:	0005c303          	lbu	t1,0(a1)
	for (i = 0; i < len / 2; i++) {
     792:	0605                	addi	a2,a2,1
		buffer[i] = buffer[len-i-1];
     794:	00558023          	sb	t0,0(a1)
		buffer[len-i-1] = j;
     798:	00678023          	sb	t1,0(a5)
	for (i = 0; i < len / 2; i++) {
     79c:	bfc9                	j	76e <mini_itoa.part.0+0x90>

0000079e <gpio_set_mode>:
	
	// Make array of uint8_t from [pin] enum. See definition for details
	uint8_t *byte = (uint8_t *)&pin;
	
	// Set the RCC Register to enable clock on the specified port
	GPIO_RCC->APB2PCENR |= (RCC_APB2PCENR_AFIO | (RCC_APB2PCENR_IOPxEN << byte[0]));
     79e:	400216b7          	lui	a3,0x40021
     7a2:	4e90                	lw	a2,24(a3)
     7a4:	4791                	li	a5,4
     7a6:	00a797b3          	sll	a5,a5,a0
     7aa:	8fd1                	or	a5,a5,a2
     7ac:	0017e793          	ori	a5,a5,1
     7b0:	ce9c                	sw	a5,24(a3)
     7b2:	0ff57713          	zext.b	a4,a0

	// Clear then set the GPIO Config Register
	GPIO_PORT_MAP[ byte[0] ]->CFGLR &=        ~(0x0F  << (4 * byte[1]));
     7b6:	6785                	lui	a5,0x1
     7b8:	070a                	slli	a4,a4,0x2
     7ba:	1ec78793          	addi	a5,a5,492 # 11ec <GPIO_PORT_MAP>
     7be:	97ba                	add	a5,a5,a4
     7c0:	4398                	lw	a4,0(a5)
     7c2:	8119                	srli	a0,a0,0x6
     7c4:	3fc57513          	andi	a0,a0,1020
     7c8:	4314                	lw	a3,0(a4)
     7ca:	47bd                	li	a5,15
     7cc:	00a797b3          	sll	a5,a5,a0
     7d0:	fff7c793          	not	a5,a5
     7d4:	8ff5                	and	a5,a5,a3
     7d6:	c31c                	sw	a5,0(a4)
	GPIO_PORT_MAP[ byte[0] ]->CFGLR |=  (mode & 0x0F) << (4 * byte[1]);
     7d8:	431c                	lw	a5,0(a4)
     7da:	00a595b3          	sll	a1,a1,a0
     7de:	8ddd                	or	a1,a1,a5
     7e0:	c30c                	sw	a1,0(a4)

	// If [mode] is INPUT_PULLUP or INPUT_PULLDOWN, set the [OUTDR] Register
	if(mode == INPUT_PULLUP || mode == INPUT_PULLDOWN)
		gpio_digital_write(pin, mode >> 4);
}
     7e2:	8082                	ret

000007e4 <internal_handle_input.constprop.0>:
void handle_debug_input( int numbytes, uint8_t * data ) __attribute__((weak));
void handle_debug_input( int numbytes, uint8_t * data ) { (void)numbytes; (void)data; }

static void internal_handle_input( volatile uint32_t * dmdata0 )
{
	uint32_t dmd0 = *dmdata0;
     7e4:	e00007b7          	lui	a5,0xe0000
     7e8:	0f47a783          	lw	a5,244(a5) # e00000f4 <_eusrstack+0xbffff8f4>
	int bytes = (dmd0 & 0x3f) - 4;
	if( bytes > 0 && bytes < 16 )
	{
		handle_debug_input( bytes, ((uint8_t*)dmdata0) + 1 );
	}
}
     7ec:	8082                	ret

000007ee <_write.constprop.0>:
//     status word = 0xcx = timed out.
// declare as weak to allow overriding.
WEAK int _write(int fd, const char *buf, int size)
{
	(void)fd;
	if( ( *DMDATA0 & 0xc0 ) == 0xc0 ) return 0;
     7ee:	e00007b7          	lui	a5,0xe0000
     7f2:	0f478793          	addi	a5,a5,244 # e00000f4 <_eusrstack+0xbffff8f4>
     7f6:	4398                	lw	a4,0(a5)
WEAK int _write(int fd, const char *buf, int size)
     7f8:	1121                	addi	sp,sp,-24
     7fa:	ca06                	sw	ra,20(sp)
     7fc:	c822                	sw	s0,16(sp)
     7fe:	c626                	sw	s1,12(sp)
	if( ( *DMDATA0 & 0xc0 ) == 0xc0 ) return 0;
     800:	0c077713          	andi	a4,a4,192
     804:	0c000693          	li	a3,192
     808:	00d70b63          	beq	a4,a3,81e <_write.constprop.0+0x30>

	char buffer[4] = { 0 };
     80c:	c402                	sw	zero,8(sp)
     80e:	842e                	mv	s0,a1
	int place = 0;
	uint32_t lastdmd;
	uint32_t timeout = FUNCONF_DEBUGPRINTF_TIMEOUT; // Give up after ~120ms

	if( size == 0 )
     810:	eddd                	bnez	a1,8ce <_write.constprop.0+0xe0>
	{
		lastdmd = (*DMDATA0);
     812:	439c                	lw	a5,0(a5)
		if( lastdmd && !(lastdmd&0x80) ) internal_handle_input( (uint32_t*)DMDATA0 );
     814:	c789                	beqz	a5,81e <_write.constprop.0+0x30>
     816:	0807f793          	andi	a5,a5,128
     81a:	e391                	bnez	a5,81e <_write.constprop.0+0x30>
     81c:	37e1                	jal	7e4 <internal_handle_input.constprop.0>
	if( ( *DMDATA0 & 0xc0 ) == 0xc0 ) return 0;
     81e:	4401                	li	s0,0

		//buf += tosend;
		place += tosend;
	}
	return size;
}
     820:	40d2                	lw	ra,20(sp)
     822:	8522                	mv	a0,s0
     824:	4442                	lw	s0,16(sp)
     826:	44b2                	lw	s1,12(sp)
     828:	0161                	addi	sp,sp,24
     82a:	8082                	ret
		int tosend = size - place;
     82c:	409407b3          	sub	a5,s0,s1
		if( tosend > 7 ) tosend = 7;
     830:	471d                	li	a4,7
     832:	00f75363          	bge	a4,a5,838 <_write.constprop.0+0x4a>
     836:	87ba                	mv	a5,a4
     838:	001006b7          	lui	a3,0x100
		while( ( lastdmd = (*DMDATA0) ) & 0x80 )
     83c:	e0000737          	lui	a4,0xe0000
		if( tosend > 7 ) tosend = 7;
     840:	0685                	addi	a3,a3,1 # 100001 <lib_pid.c.7f95fc39+0xfc7af>
		while( ( lastdmd = (*DMDATA0) ) & 0x80 )
     842:	0f470713          	addi	a4,a4,244 # e00000f4 <_eusrstack+0xbffff8f4>
     846:	4310                	lw	a2,0(a4)
     848:	08067593          	andi	a1,a2,128
     84c:	e1a5                	bnez	a1,8ac <_write.constprop.0+0xbe>
		if( lastdmd ) internal_handle_input( (uint32_t*)DMDATA0 );
     84e:	c611                	beqz	a2,85a <_write.constprop.0+0x6c>
     850:	c22a                	sw	a0,4(sp)
     852:	c03e                	sw	a5,0(sp)
     854:	3f41                	jal	7e4 <internal_handle_input.constprop.0>
     856:	4512                	lw	a0,4(sp)
     858:	4782                	lw	a5,0(sp)
     85a:	0034                	addi	a3,sp,8
		if( tosend > 7 ) tosend = 7;
     85c:	470d                	li	a4,3
     85e:	85b6                	mv	a1,a3
		while( t < tosend )
     860:	04f74d63          	blt	a4,a5,8ba <_write.constprop.0+0xcc>
		*DMDATA1 = *(uint32_t*)&(buffer[0]);
     864:	46a2                	lw	a3,8(sp)
     866:	e0000737          	lui	a4,0xe0000
		while( t < tosend && t < 3 )
     86a:	460d                	li	a2,3
		*DMDATA1 = *(uint32_t*)&(buffer[0]);
     86c:	0ed72c23          	sw	a3,248(a4) # e00000f8 <_eusrstack+0xbffff8f8>
     870:	009506b3          	add	a3,a0,s1
		t = 0;
     874:	4701                	li	a4,0
			buffer[t+1] = buf[t+place];
     876:	0006c283          	lbu	t0,0(a3)
     87a:	0705                	addi	a4,a4,1
     87c:	00e58333          	add	t1,a1,a4
     880:	00530023          	sb	t0,0(t1)
		while( t < tosend && t < 3 )
     884:	00e78563          	beq	a5,a4,88e <_write.constprop.0+0xa0>
     888:	0685                	addi	a3,a3,1
     88a:	fec716e3          	bne	a4,a2,876 <_write.constprop.0+0x88>
		buffer[0] = 0x80 | (tosend + 4);
     88e:	00478713          	addi	a4,a5,4
     892:	f8076713          	ori	a4,a4,-128
     896:	00e10423          	sb	a4,8(sp)
		*DMDATA0 = *(uint32_t*)&(buffer[0]);
     89a:	46a2                	lw	a3,8(sp)
     89c:	e0000737          	lui	a4,0xe0000
		place += tosend;
     8a0:	94be                	add	s1,s1,a5
		*DMDATA0 = *(uint32_t*)&(buffer[0]);
     8a2:	0ed72a23          	sw	a3,244(a4) # e00000f4 <_eusrstack+0xbffff8f4>
	while( place < size )
     8a6:	f884c3e3          	blt	s1,s0,82c <_write.constprop.0+0x3e>
     8aa:	bf9d                	j	820 <_write.constprop.0+0x32>
			if( timeout-- == 0 )
     8ac:	16fd                	addi	a3,a3,-1
     8ae:	fec1                	bnez	a3,846 <_write.constprop.0+0x58>
				*DMDATA0 |= 0xc0;
     8b0:	431c                	lw	a5,0(a4)
     8b2:	0c07e793          	ori	a5,a5,192
     8b6:	c31c                	sw	a5,0(a4)
				return 0;
     8b8:	b79d                	j	81e <_write.constprop.0+0x30>
			buffer[t-3] = buf[t+place];
     8ba:	00e48633          	add	a2,s1,a4
     8be:	962a                	add	a2,a2,a0
     8c0:	00064603          	lbu	a2,0(a2)
			t++;
     8c4:	0705                	addi	a4,a4,1
     8c6:	0685                	addi	a3,a3,1
			buffer[t-3] = buf[t+place];
     8c8:	fec68fa3          	sb	a2,-1(a3)
     8cc:	bf51                	j	860 <_write.constprop.0+0x72>
     8ce:	4481                	li	s1,0
     8d0:	bfd9                	j	8a6 <_write.constprop.0+0xb8>

000008d2 <__puts_uart>:
{
     8d2:	1161                	addi	sp,sp,-8
     8d4:	c022                	sw	s0,0(sp)
     8d6:	c206                	sw	ra,4(sp)
     8d8:	842e                	mv	s0,a1
	_write( 0, s, len );
     8da:	3f11                	jal	7ee <_write.constprop.0>
}
     8dc:	4092                	lw	ra,4(sp)
     8de:	8522                	mv	a0,s0
     8e0:	4402                	lw	s0,0(sp)
     8e2:	0121                	addi	sp,sp,8
     8e4:	8082                	ret

000008e6 <handle_reset>:
	asm volatile( "\n\
     8e6:	20000197          	auipc	gp,0x20000
     8ea:	b1618193          	addi	gp,gp,-1258 # 200003fc <__global_pointer$>
     8ee:	40418113          	addi	sp,gp,1028 # 20000800 <_eusrstack>
     8f2:	6509                	lui	a0,0x2
     8f4:	88050513          	addi	a0,a0,-1920 # 1880 <ch32fun.c.e1d0904f+0x4f5>
     8f8:	30051073          	csrw	mstatus,a0
     8fc:	468d                	li	a3,3
     8fe:	fffff517          	auipc	a0,0xfffff
     902:	70250513          	addi	a0,a0,1794 # 0 <InterruptVector>
     906:	8d55                	or	a0,a0,a3
     908:	30551073          	csrw	mtvec,a0
asm volatile(
     90c:	c0c18513          	addi	a0,gp,-1012 # 20000008 <g_measured_temperature>
     910:	c1818593          	addi	a1,gp,-1000 # 20000014 <_ebss>
     914:	4601                	li	a2,0
     916:	00b55663          	bge	a0,a1,922 <handle_reset+0x3c>
     91a:	c110                	sw	a2,0(a0)
     91c:	0511                	addi	a0,a0,4
     91e:	feb54ee3          	blt	a0,a1,91a <handle_reset+0x34>
     922:	00001517          	auipc	a0,0x1
     926:	8da50513          	addi	a0,a0,-1830 # 11fc <_data_lma>
     92a:	c0418593          	addi	a1,gp,-1020 # 20000000 <led_val.0>
     92e:	c0c18613          	addi	a2,gp,-1012 # 20000008 <g_measured_temperature>
     932:	00c58863          	beq	a1,a2,942 <handle_reset+0x5c>
     936:	4114                	lw	a3,0(a0)
     938:	c194                	sw	a3,0(a1)
     93a:	0511                	addi	a0,a0,4
     93c:	0591                	addi	a1,a1,4
     93e:	fec59ae3          	bne	a1,a2,932 <handle_reset+0x4c>
	SysTick->CTLR = 5;
     942:	e000f7b7          	lui	a5,0xe000f
     946:	4715                	li	a4,5
     948:	c398                	sw	a4,0(a5)
asm volatile(
     94a:	6785                	lui	a5,0x1
     94c:	bf878793          	addi	a5,a5,-1032 # bf8 <main>
     950:	34179073          	csrw	mepc,a5
     954:	30200073          	mret

00000958 <ADC1_2_IRQHandler>:

// Return the Machine Exception Program Register (MEPC)
static inline uint32_t __get_MEPC(void)
{
	uint32_t result;
	__ASM volatile( ADD_ARCH_ZICSR "csrr %0," "mepc" : "=r"(result));
     958:	34102573          	csrr	a0,mepc
	PrintHex( __get_MEPC() ); // "addr2line -e debugprintfdemo.elf 0x000007e6" ---> debugprintfdemo.c:45
     95c:	3325                	jal	684 <PrintHex>
	__ASM volatile( ADD_ARCH_ZICSR "csrr %0, mstatus": "=r"(result) );
     95e:	30002573          	csrr	a0,mstatus
	PrintHex( __get_MSTATUS() );
     962:	330d                	jal	684 <PrintHex>

// Return the Machine Trap Value Register (MTVAL)
static inline uint32_t __get_MTVAL(void)
{
	uint32_t result;
	__ASM volatile( ADD_ARCH_ZICSR "csrr %0," "mtval" : "=r" (result) );
     964:	34302573          	csrr	a0,mtval
	PrintHex( __get_MTVAL() );
     968:	3b31                	jal	684 <PrintHex>
	__ASM volatile( ADD_ARCH_ZICSR "csrr %0," "mcause": "=r"(result));
     96a:	34202573          	csrr	a0,mcause
	PrintHex( __get_MCAUSE() );
     96e:	3b19                	jal	684 <PrintHex>
	while( (*DMDATA0) & 0x80 );
     970:	e00007b7          	lui	a5,0xe0000
     974:	0f478793          	addi	a5,a5,244 # e00000f4 <_eusrstack+0xbffff8f4>
     978:	4398                	lw	a4,0(a5)
     97a:	08077713          	andi	a4,a4,128
     97e:	ff6d                	bnez	a4,978 <ADC1_2_IRQHandler+0x20>
	*DMDATA0 = 0x0a85;
     980:	6705                	lui	a4,0x1
     982:	a8570713          	addi	a4,a4,-1403 # a85 <mini_vpprintf+0xc1>
     986:	c398                	sw	a4,0(a5)
	while( (*DMDATA0) & 0x80 );
     988:	e00007b7          	lui	a5,0xe0000
     98c:	0f478793          	addi	a5,a5,244 # e00000f4 <_eusrstack+0xbffff8f4>
     990:	4398                	lw	a4,0(a5)
     992:	08077713          	andi	a4,a4,128
     996:	ff6d                	bnez	a4,990 <ADC1_2_IRQHandler+0x38>
	*DMDATA0 = 0xaaaaaa83;
     998:	aaaab737          	lui	a4,0xaaaab
     99c:	a8370713          	addi	a4,a4,-1405 # aaaaaa83 <_eusrstack+0x8aaaa283>
     9a0:	c398                	sw	a4,0(a5)
	asm volatile( "1: j 1b" );
     9a2:	a001                	j	9a2 <ADC1_2_IRQHandler+0x4a>

000009a4 <NMI_Handler>:
	RCC->INTR |= RCC_CSSC;	// clear the clock security int flag
     9a4:	40021737          	lui	a4,0x40021
     9a8:	471c                	lw	a5,8(a4)
     9aa:	008006b7          	lui	a3,0x800
     9ae:	8fd5                	or	a5,a5,a3
     9b0:	c71c                	sw	a5,8(a4)

000009b2 <strlen>:
	for (; *s; s++);
     9b2:	87aa                	mv	a5,a0
     9b4:	0007c703          	lbu	a4,0(a5)
     9b8:	e701                	bnez	a4,9c0 <strlen+0xe>
}
     9ba:	40a78533          	sub	a0,a5,a0
     9be:	8082                	ret
	for (; *s; s++);
     9c0:	0785                	addi	a5,a5,1
     9c2:	bfcd                	j	9b4 <strlen+0x2>

000009c4 <mini_vpprintf>:
{
     9c4:	fa410113          	addi	sp,sp,-92
     9c8:	caa2                	sw	s0,84(sp)
     9ca:	c8a6                	sw	s1,80(sp)
     9cc:	cc86                	sw	ra,88(sp)
     9ce:	c02a                	sw	a0,0(sp)
     9d0:	c22e                	sw	a1,4(sp)
     9d2:	8432                	mv	s0,a2
     9d4:	84b6                	mv	s1,a3
	if(puts == (void*)0) {
     9d6:	e509                	bnez	a0,9e0 <mini_vpprintf+0x1c>
		puts = _puts; buf = (void*)0;
     9d8:	64400793          	li	a5,1604
     9dc:	c202                	sw	zero,4(sp)
     9de:	c03e                	sw	a5,0(sp)
	int n = 0;
     9e0:	ca02                	sw	zero,20(sp)
	while ((ch=*(fmt++))) {
     9e2:	00044783          	lbu	a5,0(s0)
     9e6:	00140713          	addi	a4,s0,1
     9ea:	00f10fa3          	sb	a5,31(sp)
     9ee:	eb81                	bnez	a5,9fe <mini_vpprintf+0x3a>
}
     9f0:	40e6                	lw	ra,88(sp)
     9f2:	4456                	lw	s0,84(sp)
     9f4:	4552                	lw	a0,20(sp)
     9f6:	44c6                	lw	s1,80(sp)
     9f8:	05c10113          	addi	sp,sp,92
     9fc:	8082                	ret
     9fe:	c63a                	sw	a4,12(sp)
		if (ch!='%') {
     a00:	02500693          	li	a3,37
     a04:	02d78063          	beq	a5,a3,a24 <mini_vpprintf+0x60>
			len = puts(&ch, len, buf);
     a08:	4612                	lw	a2,4(sp)
     a0a:	4782                	lw	a5,0(sp)
     a0c:	4585                	li	a1,1
     a0e:	01f10513          	addi	a0,sp,31
     a12:	9782                	jalr	a5
	while ((ch=*(fmt++))) {
     a14:	4732                	lw	a4,12(sp)
     a16:	c426                	sw	s1,8(sp)
     a18:	843a                	mv	s0,a4
		n = n + len;
     a1a:	47d2                	lw	a5,20(sp)
     a1c:	44a2                	lw	s1,8(sp)
     a1e:	97aa                	add	a5,a5,a0
     a20:	ca3e                	sw	a5,20(sp)
     a22:	b7c1                	j	9e2 <mini_vpprintf+0x1e>
			ch=*(fmt++);
     a24:	00144783          	lbu	a5,1(s0)
			if (ch == '0') pad_char = '0';
     a28:	03000693          	li	a3,48
			ch=*(fmt++);
     a2c:	00240713          	addi	a4,s0,2
     a30:	00f10fa3          	sb	a5,31(sp)
			if (ch == '0') pad_char = '0';
     a34:	c63e                	sw	a5,12(sp)
     a36:	08d79363          	bne	a5,a3,abc <mini_vpprintf+0xf8>
				ch=*(fmt++);
     a3a:	843a                	mv	s0,a4
     a3c:	4681                	li	a3,0
     a3e:	4701                	li	a4,0
			while (ch >= '0' && ch <= '9') {
     a40:	45a5                	li	a1,9
     a42:	a819                	j	a58 <mini_vpprintf+0x94>
				pad_to = pad_to * 10 + (ch - '0');
     a44:	00271793          	slli	a5,a4,0x2
     a48:	97ba                	add	a5,a5,a4
     a4a:	0786                	slli	a5,a5,0x1
				ch=*(fmt++);
     a4c:	0405                	addi	s0,s0,1
				pad_to = pad_to * 10 + (ch - '0');
     a4e:	00f60733          	add	a4,a2,a5
				ch=*(fmt++);
     a52:	fff44783          	lbu	a5,-1(s0)
     a56:	4685                	li	a3,1
			while (ch >= '0' && ch <= '9') {
     a58:	fd078613          	addi	a2,a5,-48
     a5c:	0ff67513          	zext.b	a0,a2
     a60:	fea5f2e3          	bgeu	a1,a0,a44 <mini_vpprintf+0x80>
     a64:	c299                	beqz	a3,a6a <mini_vpprintf+0xa6>
     a66:	00f10fa3          	sb	a5,31(sp)
			if(pad_to > (signed int) sizeof(bf)) {
     a6a:	c83a                	sw	a4,16(sp)
     a6c:	46e1                	li	a3,24
     a6e:	00e6d363          	bge	a3,a4,a74 <mini_vpprintf+0xb0>
     a72:	c836                	sw	a3,16(sp)
			if (ch == 'l') {
     a74:	06c00613          	li	a2,108
			char l = 0;
     a78:	4681                	li	a3,0
			if (ch == 'l') {
     a7a:	00c79863          	bne	a5,a2,a8a <mini_vpprintf+0xc6>
				ch=*(fmt++);
     a7e:	00044783          	lbu	a5,0(s0)
				l = 1;
     a82:	4685                	li	a3,1
				ch=*(fmt++);
     a84:	0405                	addi	s0,s0,1
     a86:	00f10fa3          	sb	a5,31(sp)
			switch (ch) {
     a8a:	01f14603          	lbu	a2,31(sp)
     a8e:	06400793          	li	a5,100
     a92:	06f60563          	beq	a2,a5,afc <mini_vpprintf+0x138>
     a96:	02c7e763          	bltu	a5,a2,ac4 <mini_vpprintf+0x100>
     a9a:	05800793          	li	a5,88
     a9e:	0af60063          	beq	a2,a5,b3e <mini_vpprintf+0x17a>
     aa2:	06300793          	li	a5,99
     aa6:	0af60d63          	beq	a2,a5,b60 <mini_vpprintf+0x19c>
     aaa:	d239                	beqz	a2,9f0 <mini_vpprintf+0x2c>
					len = puts(&ch, len, buf);
     aac:	4612                	lw	a2,4(sp)
     aae:	4782                	lw	a5,0(sp)
     ab0:	4585                	li	a1,1
     ab2:	01f10513          	addi	a0,sp,31
     ab6:	9782                	jalr	a5
					break;
     ab8:	c426                	sw	s1,8(sp)
     aba:	b785                	j	a1a <mini_vpprintf+0x56>
			char pad_char = ' ';
     abc:	02000693          	li	a3,32
     ac0:	c636                	sw	a3,12(sp)
     ac2:	bfa5                	j	a3a <mini_vpprintf+0x76>
			switch (ch) {
     ac4:	07500793          	li	a5,117
     ac8:	02f60a63          	beq	a2,a5,afc <mini_vpprintf+0x138>
     acc:	07800793          	li	a5,120
     ad0:	06f60763          	beq	a2,a5,b3e <mini_vpprintf+0x17a>
     ad4:	07300793          	li	a5,115
     ad8:	fcf61ae3          	bne	a2,a5,aac <mini_vpprintf+0xe8>
					ptr = va_arg(va, char*);
     adc:	00448793          	addi	a5,s1,4
     ae0:	4084                	lw	s1,0(s1)
     ae2:	cc3a                	sw	a4,24(sp)
     ae4:	c43e                	sw	a5,8(sp)
					len = mini_strlen(ptr);
     ae6:	8526                	mv	a0,s1
     ae8:	35e9                	jal	9b2 <strlen>
					if (pad_to > 0) {
     aea:	4762                	lw	a4,24(sp)
					len = mini_strlen(ptr);
     aec:	85aa                	mv	a1,a0
					if (pad_to > 0) {
     aee:	08e05663          	blez	a4,b7a <mini_vpprintf+0x1b6>
						len = mini_pad(ptr, len, pad_char, pad_to, bf);
     af2:	46c2                	lw	a3,16(sp)
     af4:	4632                	lw	a2,12(sp)
     af6:	1838                	addi	a4,sp,56
     af8:	8526                	mv	a0,s1
     afa:	a01d                	j	b20 <mini_vpprintf+0x15c>
						len = mini_itoa(va_arg(va, unsigned long), 10, 0, (ch=='u'), bf2);
     afc:	00448793          	addi	a5,s1,4
     b00:	c43e                	sw	a5,8(sp)
					if(l) {
     b02:	c695                	beqz	a3,b2e <mini_vpprintf+0x16a>
						len = mini_itoa(va_arg(va, unsigned long), 10, 0, (ch=='u'), bf2);
     b04:	f8b60613          	addi	a2,a2,-117
     b08:	1018                	addi	a4,sp,32
     b0a:	00163693          	seqz	a3,a2
     b0e:	4088                	lw	a0,0(s1)
     b10:	4601                	li	a2,0
     b12:	45a9                	li	a1,10
     b14:	36e9                	jal	6de <mini_itoa.part.0>
					len = mini_pad(bf2, len, pad_char, pad_to, bf);
     b16:	46c2                	lw	a3,16(sp)
     b18:	4632                	lw	a2,12(sp)
     b1a:	1838                	addi	a4,sp,56
     b1c:	85aa                	mv	a1,a0
					len = mini_pad(bf2, len, pad_char, pad_to, bf);
     b1e:	1008                	addi	a0,sp,32
     b20:	3c69                	jal	5ba <mini_pad>
					len = puts(bf, len, buf);
     b22:	4612                	lw	a2,4(sp)
					len = mini_pad(bf2, len, pad_char, pad_to, bf);
     b24:	85aa                	mv	a1,a0
					len = puts(bf, len, buf);
     b26:	1828                	addi	a0,sp,56
     b28:	4782                	lw	a5,0(sp)
     b2a:	9782                	jalr	a5
					break;
     b2c:	b5fd                	j	a1a <mini_vpprintf+0x56>
						if(ch == 'u') {
     b2e:	07500793          	li	a5,117
     b32:	1018                	addi	a4,sp,32
     b34:	4685                	li	a3,1
     b36:	fcf60ce3          	beq	a2,a5,b0e <mini_vpprintf+0x14a>
	if (radix > 16)
     b3a:	4681                	li	a3,0
     b3c:	bfc9                	j	b0e <mini_vpprintf+0x14a>
					if(l) {
     b3e:	4088                	lw	a0,0(s1)
						len = mini_itoa(va_arg(va, unsigned long), 16, (ch=='X'), 1, bf2);
     b40:	fa860613          	addi	a2,a2,-88
						len = mini_itoa(va_arg(va, unsigned long), 10, 0, (ch=='u'), bf2);
     b44:	00448793          	addi	a5,s1,4
     b48:	1018                	addi	a4,sp,32
     b4a:	4685                	li	a3,1
     b4c:	00163613          	seqz	a2,a2
     b50:	45c1                	li	a1,16
     b52:	c43e                	sw	a5,8(sp)
	if (radix > 16)
     b54:	3669                	jal	6de <mini_itoa.part.0>
					len = mini_pad(bf2, len, pad_char, pad_to, bf);
     b56:	46c2                	lw	a3,16(sp)
     b58:	4632                	lw	a2,12(sp)
     b5a:	85aa                	mv	a1,a0
     b5c:	1838                	addi	a4,sp,56
     b5e:	b7c1                	j	b1e <mini_vpprintf+0x15a>
					ch = (char)(va_arg(va, int));
     b60:	00448793          	addi	a5,s1,4
     b64:	c43e                	sw	a5,8(sp)
     b66:	409c                	lw	a5,0(s1)
					len = mini_pad(&ch, 1, pad_char, pad_to, bf);
     b68:	46c2                	lw	a3,16(sp)
     b6a:	4632                	lw	a2,12(sp)
					ch = (char)(va_arg(va, int));
     b6c:	00f10fa3          	sb	a5,31(sp)
					len = mini_pad(&ch, 1, pad_char, pad_to, bf);
     b70:	1838                	addi	a4,sp,56
     b72:	4585                	li	a1,1
     b74:	01f10513          	addi	a0,sp,31
     b78:	b765                	j	b20 <mini_vpprintf+0x15c>
						len = puts(ptr, len, buf);
     b7a:	4612                	lw	a2,4(sp)
     b7c:	8526                	mv	a0,s1
     b7e:	b76d                	j	b28 <mini_vpprintf+0x164>

00000b80 <printf>:
{
     b80:	1111                	addi	sp,sp,-28
     b82:	c632                	sw	a2,12(sp)
	int ret_status = mini_vpprintf(__puts_uart, 0, format, args);
     b84:	862a                	mv	a2,a0
     b86:	6505                	lui	a0,0x1
{
     b88:	c42e                	sw	a1,8(sp)
     b8a:	c836                	sw	a3,16(sp)
	int ret_status = mini_vpprintf(__puts_uart, 0, format, args);
     b8c:	4581                	li	a1,0
	va_start( args, format );
     b8e:	0034                	addi	a3,sp,8
	int ret_status = mini_vpprintf(__puts_uart, 0, format, args);
     b90:	8d250513          	addi	a0,a0,-1838 # 8d2 <__puts_uart>
{
     b94:	c206                	sw	ra,4(sp)
     b96:	ca3a                	sw	a4,20(sp)
     b98:	cc3e                	sw	a5,24(sp)
	va_start( args, format );
     b9a:	c036                	sw	a3,0(sp)
	int ret_status = mini_vpprintf(__puts_uart, 0, format, args);
     b9c:	3525                	jal	9c4 <mini_vpprintf>
}
     b9e:	4092                	lw	ra,4(sp)
     ba0:	0171                	addi	sp,sp,28
     ba2:	8082                	ret

00000ba4 <SystemInit>:
	#endif
#elif defined(CH32X03x)
	FLASH->ACTLR = FLASH_ACTLR_LATENCY_2;                   // +2 Cycle Latency (Recommended per TRM)
#elif defined(CH32V003)
	#if FUNCONF_SYSTEM_CORE_CLOCK > 25000000
		FLASH->ACTLR = FLASH_ACTLR_LATENCY_1;               // +1 Cycle Latency
     ba4:	400227b7          	lui	a5,0x40022
     ba8:	4705                	li	a4,1
     baa:	c398                	sw	a4,0(a5)
#elif defined(FUNCONF_USE_HSI) && FUNCONF_USE_HSI
	#if defined(CH32V30x) || defined(CH32V20x) || defined(CH32V10x)
		EXTEN->EXTEN_CTR |= EXTEN_PLL_HSI_PRE;
	#endif
	#if defined(FUNCONF_USE_PLL) && FUNCONF_USE_PLL
		RCC->CFGR0 = BASE_CFGR0;
     bac:	400217b7          	lui	a5,0x40021
		RCC->CTLR  = BASE_CTLR | RCC_HSION | RCC_PLLON; 			// Use HSI, enable PLL.
     bb0:	01080737          	lui	a4,0x1080
		RCC->CFGR0 = BASE_CFGR0;
     bb4:	0007a223          	sw	zero,4(a5) # 40021004 <_eusrstack+0x20020804>
		RCC->CTLR  = BASE_CTLR | RCC_HSION | RCC_PLLON; 			// Use HSI, enable PLL.
     bb8:	08170713          	addi	a4,a4,129 # 1080081 <lib_pid.c.7f95fc39+0x107c82f>
     bbc:	c398                	sw	a4,0(a5)
		FLASH->ACTLR = FLASH_ACTLR_LATENCY_1;       		// +1 Cycle Latency
	#endif
#endif

#if !defined(CH57x) && !defined(CH58x) && !defined(CH59x)
	RCC->INTR  = 0x009F0000;                               // Clear PLL, CSSC, HSE, HSI and LSI ready flags.
     bbe:	009f0737          	lui	a4,0x9f0
     bc2:	c798                	sw	a4,8(a5)
#endif

#if defined(FUNCONF_USE_PLL) && FUNCONF_USE_PLL && !defined(CH57x) && !defined(CH58x) && !defined(CH59x)
	while((RCC->CTLR & RCC_PLLRDY) == 0);                       	// Wait till PLL is ready
     bc4:	4398                	lw	a4,0(a5)
     bc6:	00671693          	slli	a3,a4,0x6
     bca:	fe06dde3          	bgez	a3,bc4 <SystemInit+0x20>
	uint32_t tmp32 = RCC->CFGR0 & ~(0x03);							// clr the SW
     bce:	43d8                	lw	a4,4(a5)
	RCC->CFGR0 = tmp32 | RCC_SW_PLL;                       			// Select PLL as system clock source
	while ((RCC->CFGR0 & (uint32_t)RCC_SWS) != (uint32_t)0x08); 	// Wait till PLL is used as system clock source
     bd0:	400216b7          	lui	a3,0x40021
	uint32_t tmp32 = RCC->CFGR0 & ~(0x03);							// clr the SW
     bd4:	9b71                	andi	a4,a4,-4
	RCC->CFGR0 = tmp32 | RCC_SW_PLL;                       			// Select PLL as system clock source
     bd6:	00276713          	ori	a4,a4,2
     bda:	c3d8                	sw	a4,4(a5)
	while ((RCC->CFGR0 & (uint32_t)RCC_SWS) != (uint32_t)0x08); 	// Wait till PLL is used as system clock source
     bdc:	4721                	li	a4,8
     bde:	42dc                	lw	a5,4(a3)
     be0:	8bb1                	andi	a5,a5,12
     be2:	fee79ee3          	bne	a5,a4,bde <SystemInit+0x3a>
	*DMDATA1 = 0x00;
     be6:	e00007b7          	lui	a5,0xe0000
     bea:	0e07ac23          	sw	zero,248(a5) # e00000f8 <_eusrstack+0xbffff8f8>
	*DMDATA0 = 0x80;
     bee:	08000713          	li	a4,128
     bf2:	0ee7aa23          	sw	a4,244(a5)
	SetupUART( UART_BRR );
#endif
#if defined( FUNCONF_USE_DEBUGPRINTF ) && FUNCONF_USE_DEBUGPRINTF
	SetupDebugPrintf();
#endif
}
     bf6:	8082                	ret

00000bf8 <main>:



/*** Main ********************************************************************/
int main(void)
{
     bf8:	1101                	addi	sp,sp,-32
     bfa:	ce06                	sw	ra,28(sp)
     bfc:	cc22                	sw	s0,24(sp)
     bfe:	ca26                	sw	s1,20(sp)
static void pwm_init(void)
{
	// NOTE: Uses TIM2 Channel 2 (PD3) and TIM2 Channel 3 (PC0)

	// Enable TIM2 Clock
	RCC->APB1PCENR |= RCC_APB1Periph_TIM2;
     c00:	40021437          	lui	s0,0x40021
	SystemInit();
     c04:	3745                	jal	ba4 <SystemInit>
	RCC->APB1PCENR |= RCC_APB1Periph_TIM2;
     c06:	4c5c                	lw	a5,28(s0)

	// Set GPIO OUTPUT 10MHz, Aleternate Function (Multiplex)
	gpio_set_mode(GPIO_PC0, OUTPUT_10MHZ_PP | OUTPUT_PP_AF);
     c08:	45a5                	li	a1,9
     c0a:	4509                	li	a0,2
	RCC->APB1PCENR |= RCC_APB1Periph_TIM2;
     c0c:	0017e793          	ori	a5,a5,1
     c10:	cc5c                	sw	a5,28(s0)
	gpio_set_mode(GPIO_PC0, OUTPUT_10MHZ_PP | OUTPUT_PP_AF);
     c12:	3671                	jal	79e <gpio_set_mode>
	gpio_set_mode(GPIO_PD3, OUTPUT_10MHZ_PP | OUTPUT_PP_AF);
     c14:	45a5                	li	a1,9
     c16:	30300513          	li	a0,771
     c1a:	3651                	jal	79e <gpio_set_mode>

	// Reset TIM2, Inits all registers
	RCC->APB1PRSTR |=  RCC_APB1Periph_TIM2;
     c1c:	481c                	lw	a5,16(s0)
	RCC->APB1PRSTR &= ~RCC_APB1Periph_TIM2;

	// Set Prescaler to ~17KHz. More efficient switching
	TIM2->PSC = 0x000A;
     c1e:	4729                	li	a4,10
	// Set PWM Max Value (Autoreload Value)
	TIM2->ATRLR = 254;

	// Set the Compare Capture Register for Channel 3
	// TIM2_OC3M = 0b111 - PWM Mode 2 - Enable Preload
	TIM2->CHCTLR1 |= TIM_OC2M_2 | TIM_OC2M_1 | TIM_OC2M_0 | TIM_OC2PE;
     c20:	66a1                	lui	a3,0x8
	RCC->APB1PRSTR |=  RCC_APB1Periph_TIM2;
     c22:	0017e793          	ori	a5,a5,1
     c26:	c81c                	sw	a5,16(s0)
	RCC->APB1PRSTR &= ~RCC_APB1Periph_TIM2;
     c28:	481c                	lw	a5,16(s0)
	TIM2->CHCTLR1 |= TIM_OC2M_2 | TIM_OC2M_1 | TIM_OC2M_0 | TIM_OC2PE;
     c2a:	80068693          	addi	a3,a3,-2048 # 7800 <lib_pid.c.7f95fc39+0x3fae>
	RCC->APB1PRSTR &= ~RCC_APB1Periph_TIM2;
     c2e:	9bf9                	andi	a5,a5,-2
     c30:	c81c                	sw	a5,16(s0)
	TIM2->PSC = 0x000A;
     c32:	400007b7          	lui	a5,0x40000
     c36:	02e79423          	sh	a4,40(a5) # 40000028 <_eusrstack+0x1ffff828>
	TIM2->ATRLR = 254;
     c3a:	0fe00713          	li	a4,254
     c3e:	02e79623          	sh	a4,44(a5)
	TIM2->CHCTLR1 |= TIM_OC2M_2 | TIM_OC2M_1 | TIM_OC2M_0 | TIM_OC2PE;
     c42:	0187d703          	lhu	a4,24(a5)
     c46:	8f55                	or	a4,a4,a3
     c48:	00e79c23          	sh	a4,24(a5)
	TIM2->CHCTLR2 |= TIM_OC3M_2 | TIM_OC3M_1 | TIM_OC3M_0 | TIM_OC3PE;
     c4c:	01c7d703          	lhu	a4,28(a5)
	// Set the Sample Register(s) for all channels at once
	GPIO_ADC1->SAMPTR1 = cycles;
	GPIO_ADC1->SAMPTR2 = cycles;

	// Enable the ADC, and set the triggering to external
	GPIO_ADC1->CTLR2 |= ADC_ADON | ADC_EXTSEL;
     c50:	000e06b7          	lui	a3,0xe0
     c54:	0685                	addi	a3,a3,1 # e0001 <lib_pid.c.7f95fc39+0xdc7af>
     c56:	07876713          	ori	a4,a4,120
     c5a:	00e79e23          	sh	a4,28(a5)

	// Enable auto-reload
	TIM2->CTLR1 |= TIM_ARPE;
     c5e:	0007d703          	lhu	a4,0(a5)
     c62:	08076713          	ori	a4,a4,128
     c66:	00e79023          	sh	a4,0(a5)

	// Enable channel output, polarity is ACTIVE_HIGH
	TIM2->CCER |= TIM_CC2E | TIM_CC2P;
     c6a:	0207d703          	lhu	a4,32(a5)
     c6e:	03076713          	ori	a4,a4,48
     c72:	02e79023          	sh	a4,32(a5)
	TIM2->CCER |= TIM_CC3E | TIM_CC3P;
     c76:	0207d703          	lhu	a4,32(a5)
     c7a:	30076713          	ori	a4,a4,768
     c7e:	02e79023          	sh	a4,32(a5)

	// Initialise Counter
	TIM2->SWEVGR |= TIM_UG;
     c82:	0147d703          	lhu	a4,20(a5)
     c86:	00176713          	ori	a4,a4,1
     c8a:	00e79a23          	sh	a4,20(a5)

	// Enable TIM2
	TIM2->CTLR1 |= TIM_CEN;
     c8e:	0007d703          	lhu	a4,0(a5)
     c92:	00176713          	ori	a4,a4,1
     c96:	00e79023          	sh	a4,0(a5)
static  void pwm_set_duty(const uint8_t ch, const uint32_t duty)
{
	switch(ch)
	{
		case 2:
			TIM2->CH2CVR = duty;
     c9a:	0ff00713          	li	a4,255
     c9e:	df98                	sw	a4,56(a5)
			break;
		case 3:
			TIM2->CH3CVR = duty;
     ca0:	0207ae23          	sw	zero,60(a5)
	GPIO_RCC->APB2PCENR |= RCC_APB2Periph_ADC1;
     ca4:	4c1c                	lw	a5,24(s0)
	GPIO_RCC->CFGR0 &= ~ADC_CLOCK_DIV_128;
     ca6:	7741                	lui	a4,0xffff0
     ca8:	7ff70713          	addi	a4,a4,2047 # ffff07ff <_eusrstack+0xdffeffff>
	GPIO_RCC->APB2PCENR |= RCC_APB2Periph_ADC1;
     cac:	2007e793          	ori	a5,a5,512
     cb0:	cc1c                	sw	a5,24(s0)
	GPIO_RCC->CFGR0 &= ~ADC_CLOCK_DIV_128;
     cb2:	405c                	lw	a5,4(s0)
     cb4:	8ff9                	and	a5,a5,a4
     cb6:	c05c                	sw	a5,4(s0)
	GPIO_RCC->CFGR0 |= div;
     cb8:	405c                	lw	a5,4(s0)
	GPIO_ADC1->SAMPTR1 = cycles;
     cba:	24925737          	lui	a4,0x24925
     cbe:	92470713          	addi	a4,a4,-1756 # 24924924 <_eusrstack+0x4924124>
	GPIO_RCC->CFGR0 |= div;
     cc2:	c05c                	sw	a5,4(s0)
	GPIO_RCC->APB2PRSTR |=  RCC_APB2Periph_ADC1;
     cc4:	445c                	lw	a5,12(s0)
     cc6:	2007e793          	ori	a5,a5,512
     cca:	c45c                	sw	a5,12(s0)
	GPIO_RCC->APB2PRSTR &= ~RCC_APB2Periph_ADC1;
     ccc:	445c                	lw	a5,12(s0)
     cce:	dff7f793          	andi	a5,a5,-513
     cd2:	c45c                	sw	a5,12(s0)
	GPIO_ADC1->RSQR1 = 0;
     cd4:	400127b7          	lui	a5,0x40012
     cd8:	40078793          	addi	a5,a5,1024 # 40012400 <_eusrstack+0x20011c00>
     cdc:	0207a623          	sw	zero,44(a5)
	GPIO_ADC1->RSQR2 = 0;
     ce0:	0207a823          	sw	zero,48(a5)
	GPIO_ADC1->RSQR3 = 0;
     ce4:	0207aa23          	sw	zero,52(a5)
	GPIO_ADC1->SAMPTR1 = cycles;
     ce8:	c7d8                	sw	a4,12(a5)
	GPIO_ADC1->SAMPTR2 = cycles;
     cea:	cb98                	sw	a4,16(a5)
	GPIO_ADC1->CTLR2 |= ADC_ADON | ADC_EXTSEL;
     cec:	4798                	lw	a4,8(a5)
     cee:	8f55                	or	a4,a4,a3
     cf0:	c798                	sw	a4,8(a5)
	
	// Reset calibration, wait for it to finish
	GPIO_ADC1->CTLR2 |= ADC_RSTCAL;
     cf2:	4798                	lw	a4,8(a5)
     cf4:	00876713          	ori	a4,a4,8
     cf8:	c798                	sw	a4,8(a5)
	while(GPIO_ADC1->CTLR2 & ADC_RSTCAL);
     cfa:	4798                	lw	a4,8(a5)
     cfc:	8b21                	andi	a4,a4,8
     cfe:	ff75                	bnez	a4,cfa <main+0x102>

	// Calibrate the ADC, want for it to finish
	GPIO_ADC1->CTLR2 |= ADC_CAL;
     d00:	4798                	lw	a4,8(a5)
     d02:	00476713          	ori	a4,a4,4
     d06:	c798                	sw	a4,8(a5)
	while(GPIO_ADC1->CTLR2 & ADC_CAL);
     d08:	40012737          	lui	a4,0x40012
     d0c:	40070713          	addi	a4,a4,1024 # 40012400 <_eusrstack+0x20011c00>
     d10:	471c                	lw	a5,8(a4)
     d12:	8b91                	andi	a5,a5,4
     d14:	fff5                	bnez	a5,d10 <main+0x118>
	gpio_set_mode(OPAMP_CHA1_NEG, INPUT_FLOATING);
     d16:	4591                	li	a1,4
     d18:	10000513          	li	a0,256
     d1c:	3449                	jal	79e <gpio_set_mode>
	gpio_set_mode(OPAMP_CHA1_POS, INPUT_FLOATING);
     d1e:	4591                	li	a1,4
     d20:	20000513          	li	a0,512
     d24:	3cad                	jal	79e <gpio_set_mode>
	gpio_set_mode(OPAMP_CHA2_POS, INPUT_FLOATING);
     d26:	4591                	li	a1,4
     d28:	70300513          	li	a0,1795
     d2c:	3c8d                	jal	79e <gpio_set_mode>
	gpio_set_mode(THERM_ADC_PIN,  INPUT_ANALOG);
     d2e:	4581                	li	a1,0
     d30:	50300513          	li	a0,1283
     d34:	34ad                	jal	79e <gpio_set_mode>
	gpio_set_mode(BSENS_ADC_PIN,  INPUT_ANALOG);
     d36:	4581                	li	a1,0
     d38:	60300513          	li	a0,1539
     d3c:	348d                	jal	79e <gpio_set_mode>
	gpio_set_mode(OPAMP_ADC_PIN,  INPUT_ANALOG);	
     d3e:	4581                	li	a1,0
     d40:	40300513          	li	a0,1027
     d44:	3ca9                	jal	79e <gpio_set_mode>
	GPIO_EXTEN->EXTEN_CTR |= GPIO_EXTEN_OPA_EN;
     d46:	400247b7          	lui	a5,0x40024
     d4a:	80078793          	addi	a5,a5,-2048 # 40023800 <_eusrstack+0x20023000>
     d4e:	4398                	lw	a4,0(a5)
     d50:	66c1                	lui	a3,0x10
     d52:	8f55                	or	a4,a4,a3
     d54:	c398                	sw	a4,0(a5)
		(GPIO_EXTEN->EXTEN_CTR & ~GPIO_EXTEN_OPA_PSEL) |
     d56:	4398                	lw	a4,0(a5)
     d58:	fffc06b7          	lui	a3,0xfffc0
     d5c:	16fd                	addi	a3,a3,-1 # fffbffff <_eusrstack+0xdffbf7ff>
     d5e:	8f75                	and	a4,a4,a3
	GPIO_EXTEN->EXTEN_CTR =
     d60:	c398                	sw	a4,0(a5)
		(GPIO_EXTEN->EXTEN_CTR & ~GPIO_EXTEN_OPA_NSEL) |
     d62:	4398                	lw	a4,0(a5)
     d64:	7681                	lui	a3,0xfffe0
     d66:	16fd                	addi	a3,a3,-1 # fffdffff <_eusrstack+0xdffdf7ff>
     d68:	8f75                	and	a4,a4,a3
	GPIO_EXTEN->EXTEN_CTR =
     d6a:	c398                	sw	a4,0(a5)
	SysTick->CTLR = 0x0000;
     d6c:	e000f7b7          	lui	a5,0xe000f
	SysTick->CMP = SYSTICK_ONE_MILLISECOND - 1;
     d70:	6731                	lui	a4,0xc
	SysTick->CTLR = 0x0000;
     d72:	0007a023          	sw	zero,0(a5) # e000f000 <_eusrstack+0xc000e800>
	SysTick->CMP = SYSTICK_ONE_MILLISECOND - 1;
     d76:	b7f70713          	addi	a4,a4,-1153 # bb7f <lib_pid.c.7f95fc39+0x832d>
     d7a:	cb98                	sw	a4,16(a5)
	SysTick->CNT = 0x00000000;
     d7c:	0007a423          	sw	zero,8(a5)
	g_systick_millis = 0x00000000;
     d80:	c001a823          	sw	zero,-1008(gp) # 2000000c <g_systick_millis>
	SysTick->CTLR |= SYSTICK_CTLR_STE   |  // Enable Counter
     d84:	4398                	lw	a4,0(a5)
	uint32_t millis_prev_pid_temp_update = 0;
     d86:	4681                	li	a3,0
	pid_ctrl_t heater_pid =
     d88:	4281                	li	t0,0
	SysTick->CTLR |= SYSTICK_CTLR_STE   |  // Enable Counter
     d8a:	00776713          	ori	a4,a4,7
     d8e:	c398                	sw	a4,0(a5)
	NVIC->IENR[((uint32_t)(IRQn) >> 5)] = (1 << ((uint32_t)(IRQn) & 0x1F));
     d90:	e000e7b7          	lui	a5,0xe000e
     d94:	6705                	lui	a4,0x1
     d96:	10e7a023          	sw	a4,256(a5) # e000e100 <_eusrstack+0xc000d900>
	g_heater_running = true;
     d9a:	4785                	li	a5,1
     d9c:	c0f18b23          	sb	a5,-1002(gp) # 20000012 <g_heater_running>
	g_target_temperature = 200;
     da0:	0c800713          	li	a4,200
     da4:	c0e19a23          	sh	a4,-1004(gp) # 20000010 <g_target_temperature>
	uint32_t millis_prev_led_update = 0;
     da8:	c002                	sw	zero,0(sp)
	pid_ctrl_t heater_pid =
     daa:	4301                	li	t1,0
		if(g_systick_millis - millis_prev_led_update > MILLIS_LED_UPDATE)
     dac:	4702                	lw	a4,0(sp)
     dae:	c101a783          	lw	a5,-1008(gp) # 2000000c <g_systick_millis>
     db2:	8f99                	sub	a5,a5,a4
     db4:	4765                	li	a4,25
     db6:	04f77863          	bgeu	a4,a5,e06 <main+0x20e>

	static int16_t led_val = LED_MIN_VAL;
	static int8_t  led_inc = 5;
	
	// If the system is running, Fade the LED in and out steadily
	if(fading)
     dba:	c161c783          	lbu	a5,-1002(gp) # 20000012 <g_heater_running>
     dbe:	1a078063          	beqz	a5,f5e <main+0x366>
	{
		led_val += led_inc;
     dc2:	c0618783          	lb	a5,-1018(gp) # 20000002 <led_inc.1>
     dc6:	c041d703          	lhu	a4,-1020(gp) # 20000000 <led_val.0>

		// Flip to decrimenting if maximum is hit
		if(led_val >= LED_MAX_VAL) { led_val = LED_MAX_VAL; led_inc = -led_inc; }
     dca:	0fe00513          	li	a0,254
		led_val += led_inc;
     dce:	973e                	add	a4,a4,a5
     dd0:	0742                	slli	a4,a4,0x10
     dd2:	8741                	srai	a4,a4,0x10
		if(led_val >= LED_MAX_VAL) { led_val = LED_MAX_VAL; led_inc = -led_inc; }
     dd4:	00e55b63          	bge	a0,a4,dea <main+0x1f2>
     dd8:	0ff00713          	li	a4,255
     ddc:	c0e19223          	sh	a4,-1020(gp) # 20000000 <led_val.0>

		// Flip to incrimenting if the minimum is hit
		if(led_val <= LED_MIN_VAL) { led_val = LED_MIN_VAL; led_inc = -led_inc; }
     de0:	40f007b3          	neg	a5,a5
     de4:	c0f18323          	sb	a5,-1018(gp) # 20000002 <led_inc.1>
     de8:	a039                	j	df6 <main+0x1fe>
     dea:	02800513          	li	a0,40
     dee:	16e55563          	bge	a0,a4,f58 <main+0x360>
		led_val += led_inc;
     df2:	c0e19223          	sh	a4,-1020(gp) # 20000000 <led_val.0>
	// If the system isn't running, set the LED to maximum value
	} else { led_val = LED_MAX_VAL; }


	// Set the LED PWM to the calculated value
	pwm_set_duty(PWM_CHANNEL_LED, (uint8_t)led_val);
     df6:	c041c703          	lbu	a4,-1020(gp) # 20000000 <led_val.0>
			TIM2->CH2CVR = duty;
     dfa:	400007b7          	lui	a5,0x40000
     dfe:	df98                	sw	a4,56(a5)
			millis_prev_led_update = g_systick_millis;
     e00:	c101a783          	lw	a5,-1008(gp) # 2000000c <g_systick_millis>
     e04:	c03e                	sw	a5,0(sp)
		if(g_systick_millis - millis_prev_pid_temp_update > MILLIS_PID_TEMP_UPDATE)
     e06:	c101a783          	lw	a5,-1008(gp) # 2000000c <g_systick_millis>
     e0a:	06400713          	li	a4,100
     e0e:	8f95                	sub	a5,a5,a3
     e10:	f8f77ee3          	bgeu	a4,a5,dac <main+0x1b4>
inline uint16_t gpio_analog_read(const GPIO_ANALOG_CHANNEL chan)
{
	// Set rule channel conversion for single conversion on passed channel
	// GPIO_ADC1->RSQR1 = 0;
	// GPIO_ADC1->RSQR2 = 0;
	GPIO_ADC1->RSQR3 = (uint32_t)chan;
     e14:	400127b7          	lui	a5,0x40012
     e18:	40078793          	addi	a5,a5,1024 # 40012400 <_eusrstack+0x20011c00>
     e1c:	4715                	li	a4,5
     e1e:	dbd8                	sw	a4,52(a5)

	GPIO_ADC1->CTLR2 |= ADC_SWSTART;
     e20:	4798                	lw	a4,8(a5)
     e22:	004006b7          	lui	a3,0x400
     e26:	8f55                	or	a4,a4,a3
     e28:	c798                	sw	a4,8(a5)
	while(!(GPIO_ADC1->STATR & ADC_EOC));
     e2a:	4398                	lw	a4,0(a5)
     e2c:	8b09                	andi	a4,a4,2
     e2e:	df75                	beqz	a4,e2a <main+0x232>

	// Get the resulting data from the ADC
	return GPIO_ADC1->RDATAR;
     e30:	47ec                	lw	a1,76(a5)
	if(adc >= thermistor_pair[0].adc)
     e32:	3f000713          	li	a4,1008
		return thermistor_pair[0].temp_c;
     e36:	4781                	li	a5,0
     e38:	05c2                	slli	a1,a1,0x10
     e3a:	81c1                	srli	a1,a1,0x10
	if(adc >= thermistor_pair[0].adc)
     e3c:	06b76763          	bltu	a4,a1,eaa <main+0x2b2>
	if(adc <= thermistor_pair[therm_max_index].adc)
     e40:	02500713          	li	a4,37
		return thermistor_pair[therm_max_index].temp_c;
     e44:	12c00793          	li	a5,300
	if(adc <= thermistor_pair[therm_max_index].adc)
     e48:	06b77163          	bgeu	a4,a1,eaa <main+0x2b2>
     e4c:	6505                	lui	a0,0x1
     e4e:	fa850793          	addi	a5,a0,-88 # fa8 <thermistor_pair>
     e52:	4701                	li	a4,0
     e54:	fa850513          	addi	a0,a0,-88
	for(uint16_t ti = 0; ti < therm_max_index; ti++)
     e58:	04b00393          	li	t2,75
		adc0  = thermistor_pair[ti].adc;
     e5c:	0027d683          	lhu	a3,2(a5)
		if(adc <= adc0 && adc >= adc1)
     e60:	10b6e463          	bltu	a3,a1,f68 <main+0x370>
		adc1  = thermistor_pair[ti + 1].adc;
     e64:	0067d603          	lhu	a2,6(a5)
		if(adc <= adc0 && adc >= adc1)
     e68:	10c5e063          	bltu	a1,a2,f68 <main+0x370>
			temp0 = thermistor_pair[ti].temp_c;
     e6c:	00271793          	slli	a5,a4,0x2
			temp1 = thermistor_pair[ti + 1].temp_c;
     e70:	0705                	addi	a4,a4,1 # 1001 <thermistor_pair+0x59>
     e72:	070a                	slli	a4,a4,0x2
			temp0 = thermistor_pair[ti].temp_c;
     e74:	97aa                	add	a5,a5,a0
			temp1 = thermistor_pair[ti + 1].temp_c;
     e76:	972a                	add	a4,a4,a0
			temp0 = thermistor_pair[ti].temp_c;
     e78:	0007d403          	lhu	s0,0(a5)
			output = temp0 + (uint32_t)(adc0 - adc) * (temp1 - temp0) / (adc0 - adc1);
     e7c:	00075503          	lhu	a0,0(a4)
     e80:	40b685b3          	sub	a1,a3,a1
     e84:	c61a                	sw	t1,12(sp)
     e86:	8d01                	sub	a0,a0,s0
     e88:	c416                	sw	t0,8(sp)
     e8a:	c832                	sw	a2,16(sp)
     e8c:	c236                	sw	a3,4(sp)
     e8e:	e96ff0ef          	jal	524 <__mulsi3>
     e92:	4692                	lw	a3,4(sp)
     e94:	4642                	lw	a2,16(sp)
     e96:	40c685b3          	sub	a1,a3,a2
     e9a:	eaaff0ef          	jal	544 <__hidden___udivsi3>
     e9e:	00a407b3          	add	a5,s0,a0
			break;
     ea2:	42a2                	lw	t0,8(sp)
     ea4:	4332                	lw	t1,12(sp)
			output = temp0 + (uint32_t)(adc0 - adc) * (temp1 - temp0) / (adc0 - adc1);
     ea6:	07c2                	slli	a5,a5,0x10
     ea8:	83c1                	srli	a5,a5,0x10
			g_measured_temperature = thermistor_adc_to_temp(thermistor_adc);
     eaa:	c0f19623          	sh	a5,-1012(gp) # 20000008 <g_measured_temperature>
			heater_pwm = pid_calculate(&heater_pid, g_measured_temperature, g_target_temperature);
     eae:	c141d703          	lhu	a4,-1004(gp) # 20000010 <g_target_temperature>
	// Calculate the current Error and Derivative
	int32_t error = sp - pv;
	int32_t derivative = error - pid->_prev_error;

	// Prevent Integral Windup by clamping
	pid->_integral = CLAMP_MIN_MAX(pid->_integral, -pid->_iclamp, pid->_iclamp);
     eb2:	6685                	lui	a3,0x1
     eb4:	3ec68693          	addi	a3,a3,1004 # 13ec <ch32fun.c.e1d0904f+0x61>
	int32_t error = sp - pv;
     eb8:	40f70433          	sub	s0,a4,a5
	pid->_integral = CLAMP_MIN_MAX(pid->_integral, -pid->_iclamp, pid->_iclamp);
     ebc:	0066d363          	bge	a3,t1,ec2 <main+0x2ca>
     ec0:	8336                	mv	t1,a3
     ec2:	76fd                	lui	a3,0xfffff
     ec4:	c1468693          	addi	a3,a3,-1004 # ffffec14 <_eusrstack+0xdfffe414>
     ec8:	00d35363          	bge	t1,a3,ece <main+0x2d6>
     ecc:	8336                	mv	t1,a3
	//if(pid->_integral >  pid->_iclamp)   pid->_integral =  pid->_iclamp;
	//if(pid->_integral < -pid->_iclamp)   pid->_integral = -pid->_iclamp;


	int64_t P = (int32_t)pid->Kp * error;
     ece:	00541693          	slli	a3,s0,0x5
     ed2:	8e81                	sub	a3,a3,s0
     ed4:	068a                	slli	a3,a3,0x2
	int64_t I = (int32_t)pid->Ki * pid->_integral;
     ed6:	00231393          	slli	t2,t1,0x2
	int64_t P = (int32_t)pid->Kp * error;
     eda:	96a2                	add	a3,a3,s0
	int64_t I = (int32_t)pid->Ki * pid->_integral;
     edc:	939a                	add	t2,t2,t1
	int64_t P = (int32_t)pid->Kp * error;
     ede:	00369593          	slli	a1,a3,0x3
	int64_t I = (int32_t)pid->Ki * pid->_integral;
     ee2:	41f3d613          	srai	a2,t2,0x1f
	int64_t P = (int32_t)pid->Kp * error;
     ee6:	86fd                	srai	a3,a3,0x1f
	int64_t D = (int32_t)pid->Kd * derivative;
	// Add the PID values, then scale to preserve resolution of intagers
	int32_t cv = (int64_t)(P + I + D) / pid->scale;
     ee8:	93ae                	add	t2,t2,a1
     eea:	96b2                	add	a3,a3,a2
     eec:	00b3b5b3          	sltu	a1,t2,a1
     ef0:	95b6                	add	a1,a1,a3
	int32_t derivative = error - pid->_prev_error;
     ef2:	405406b3          	sub	a3,s0,t0
	int64_t D = (int32_t)pid->Kd * derivative;
     ef6:	00169513          	slli	a0,a3,0x1
     efa:	9536                	add	a0,a0,a3
     efc:	050e                	slli	a0,a0,0x3
     efe:	9536                	add	a0,a0,a3
     f00:	0506                	slli	a0,a0,0x1
     f02:	41f55693          	srai	a3,a0,0x1f
	int32_t cv = (int64_t)(P + I + D) / pid->scale;
     f06:	951e                	add	a0,a0,t2
     f08:	007533b3          	sltu	t2,a0,t2
     f0c:	95b6                	add	a1,a1,a3
     f0e:	06400613          	li	a2,100
     f12:	4681                	li	a3,0
     f14:	959e                	add	a1,a1,t2
     f16:	c43e                	sw	a5,8(sp)
	int64_t I = (int32_t)pid->Ki * pid->_integral;
     f18:	c21a                	sw	t1,4(sp)
	int32_t cv = (int64_t)(P + I + D) / pid->scale;
     f1a:	986ff0ef          	jal	a0 <__divdi3>

	// Only accumulate the integration value if the output is not in saturation
	if(cv <= pid->out_max && cv >= pid->out_min)    pid->_integral += error;
     f1e:	0ff00693          	li	a3,255
     f22:	4312                	lw	t1,4(sp)
     f24:	47a2                	lw	a5,8(sp)
     f26:	00a6c663          	blt	a3,a0,f32 <main+0x33a>
	
	// Clamp the CV Output to the min/max
	cv = CLAMP_MIN_MAX(cv, pid->out_min, pid->out_max);
     f2a:	4601                	li	a2,0
	if(cv <= pid->out_max && cv >= pid->out_min)    pid->_integral += error;
     f2c:	00054863          	bltz	a0,f3c <main+0x344>
     f30:	9322                	add	t1,t1,s0
	cv = CLAMP_MIN_MAX(cv, pid->out_min, pid->out_max);
     f32:	862a                	mv	a2,a0
     f34:	00a6d463          	bge	a3,a0,f3c <main+0x344>
     f38:	0ff00613          	li	a2,255
     f3c:	c21a                	sw	t1,4(sp)
			TIM2->CH3CVR = duty;
     f3e:	400006b7          	lui	a3,0x40000
			printf("temp: %d\tpwm: %lu\n", g_measured_temperature, heater_pwm);
     f42:	6505                	lui	a0,0x1
			TIM2->CH3CVR = duty;
     f44:	ded0                	sw	a2,60(a3)
			printf("temp: %d\tpwm: %lu\n", g_measured_temperature, heater_pwm);
     f46:	85be                	mv	a1,a5
     f48:	1d850513          	addi	a0,a0,472 # 11d8 <__clz_tab+0x100>
     f4c:	3915                	jal	b80 <printf>
			millis_prev_pid_temp_update = g_systick_millis;
     f4e:	c101a683          	lw	a3,-1008(gp) # 2000000c <g_systick_millis>
     f52:	4312                	lw	t1,4(sp)

	// Update the previous error for derivative
	pid->_prev_error = error;
     f54:	82a2                	mv	t0,s0
     f56:	bd99                	j	dac <main+0x1b4>
		if(led_val <= LED_MIN_VAL) { led_val = LED_MIN_VAL; led_inc = -led_inc; }
     f58:	c0a19223          	sh	a0,-1020(gp) # 20000000 <led_val.0>
     f5c:	b551                	j	de0 <main+0x1e8>
	} else { led_val = LED_MAX_VAL; }
     f5e:	0ff00793          	li	a5,255
     f62:	c0f19223          	sh	a5,-1020(gp) # 20000000 <led_val.0>
     f66:	bd41                	j	df6 <main+0x1fe>
	for(uint16_t ti = 0; ti < therm_max_index; ti++)
     f68:	0705                	addi	a4,a4,1
     f6a:	0791                	addi	a5,a5,4
     f6c:	ee7718e3          	bne	a4,t2,e5c <main+0x264>
		return thermistor_pair[0].temp_c;
     f70:	4781                	li	a5,0
     f72:	bf25                	j	eaa <main+0x2b2>

00000f74 <SysTick_Handler>:
{
     f74:	1151                	addi	sp,sp,-12
     f76:	c03e                	sw	a5,0(sp)
	SysTick->CMP += SYSTICK_ONE_MILLISECOND;
     f78:	e000f7b7          	lui	a5,0xe000f
{
     f7c:	c23a                	sw	a4,4(sp)
	SysTick->CMP += SYSTICK_ONE_MILLISECOND;
     f7e:	4b98                	lw	a4,16(a5)
{
     f80:	c436                	sw	a3,8(sp)
	SysTick->CMP += SYSTICK_ONE_MILLISECOND;
     f82:	66b1                	lui	a3,0xc
     f84:	b8068693          	addi	a3,a3,-1152 # bb80 <lib_pid.c.7f95fc39+0x832e>
     f88:	9736                	add	a4,a4,a3
     f8a:	cb98                	sw	a4,16(a5)
	SysTick->SR = 0x00000000;
     f8c:	0007a223          	sw	zero,4(a5) # e000f004 <_eusrstack+0xc000e804>
	g_systick_millis++;
     f90:	c101a783          	lw	a5,-1008(gp) # 2000000c <g_systick_millis>
}
     f94:	46a2                	lw	a3,8(sp)
	g_systick_millis++;
     f96:	0785                	addi	a5,a5,1
     f98:	c0f1a823          	sw	a5,-1008(gp) # 2000000c <g_systick_millis>
}
     f9c:	4712                	lw	a4,4(sp)
     f9e:	4782                	lw	a5,0(sp)
     fa0:	0131                	addi	sp,sp,12
     fa2:	30200073          	mret
	...

00000fa8 <thermistor_pair>:
     fa8:	03f10000 03ee0004 03ea0008 03e5000c     ................
     fb8:	03e00010 03da0014 03d30018 03cb001c     ................
     fc8:	03c20020 03b70024 03ac0028 039f002c      ...$...(...,...
     fd8:	03900030 03800034 036f0038 035c003c     0...4...8.o.<.\.
     fe8:	03480040 03330044 031c0048 0304004c     @.H.D.3.H...L...
     ff8:	02eb0050 02d10054 02b60058 029b005c     P...T...X...\...
    1008:	027f0060 02630064 02470068 022c006c     `...d.c.h.G.l.,.
    1018:	02100070 01f50074 01db0078 01c1007c     p...t...x...|...
    1028:	01a80080 01900084 01790088 0163008c     ..........y...c.
    1038:	014f0090 013b0094 01280098 0116009c     ..O...;...(.....
    1048:	010500a0 00f500a4 00e600a8 00d800ac     ................
    1058:	00cb00b0 00bf00b4 00b300b8 00a800bc     ................
    1068:	009e00c0 009500c4 008c00c8 008400cc     ................
    1078:	007c00d0 007500d4 006e00d8 006800dc     ..|...u...n...h.
    1088:	006200e0 005c00e4 005700e8 005300ec     ..b...\...W...S.
    1098:	004e00f0 004a00f4 004600f8 004200fc     ..N...J...F...B.
    10a8:	003f0100 003c0104 00390108 0036010c     ..?...<...9...6.
    10b8:	00330110 00310114 002e0118 002c011c     ..3...1.......,.
    10c8:	002a0120 00280124 00260128 0025012c      .*.$.(.(.&.,.%.

000010d8 <__clz_tab>:
    10d8:	02020100 03030303 04040404 04040404     ................
    10e8:	05050505 05050505 05050505 05050505     ................
    10f8:	06060606 06060606 06060606 06060606     ................
    1108:	06060606 06060606 06060606 06060606     ................
    1118:	07070707 07070707 07070707 07070707     ................
    1128:	07070707 07070707 07070707 07070707     ................
    1138:	07070707 07070707 07070707 07070707     ................
    1148:	07070707 07070707 07070707 07070707     ................
    1158:	08080808 08080808 08080808 08080808     ................
    1168:	08080808 08080808 08080808 08080808     ................
    1178:	08080808 08080808 08080808 08080808     ................
    1188:	08080808 08080808 08080808 08080808     ................
    1198:	08080808 08080808 08080808 08080808     ................
    11a8:	08080808 08080808 08080808 08080808     ................
    11b8:	08080808 08080808 08080808 08080808     ................
    11c8:	08080808 08080808 08080808 08080808     ................
    11d8:	706d6574 6425203a 6d777009 6c25203a     temp: %d.pwm: %l
    11e8:	00000a75                                u...

000011ec <GPIO_PORT_MAP>:
    11ec:	40010800 00000000 40011000 40011400     ...@.......@...@
