
build/tcrhmag.elf:     file format elf32-littleriscv


Disassembly of section .init:

00000000 <InterruptVector>:
	void InterruptVector()         __attribute__((naked)) __attribute((section(".init"))) __attribute((weak,alias("InterruptVectorDefault"))) __attribute((naked));
	void InterruptVectorDefault()  __attribute__((naked)) __attribute((section(".init"))) __attribute((naked));
	void InterruptVectorDefault( void )
	{
		#if !defined(FUNCONF_TINYVECTOR) || !FUNCONF_TINYVECTOR
			asm volatile( DEFAULT_INTERRUPT_VECTOR_CONTENTS );
   0:	1060106f          	j	1106 <handle_reset>
   4:	00000000          	.word	0x00000000
   8:	000011cc          	.word	0x000011cc
   c:	00001178          	.word	0x00001178
	...
  30:	00001d00          	.word	0x00001d00
  34:	00000000          	.word	0x00000000
  38:	00001178          	.word	0x00001178
  3c:	00000000          	.word	0x00000000
  40:	00001178          	.word	0x00001178
  44:	00001178          	.word	0x00001178
  48:	00001178          	.word	0x00001178
  4c:	00001178          	.word	0x00001178
  50:	00001c38          	.word	0x00001c38
  54:	00001178          	.word	0x00001178
  58:	00001178          	.word	0x00001178
  5c:	00001178          	.word	0x00001178
  60:	00001178          	.word	0x00001178
  64:	00001178          	.word	0x00001178
  68:	00001178          	.word	0x00001178
  6c:	00001178          	.word	0x00001178
  70:	00001178          	.word	0x00001178
  74:	00001178          	.word	0x00001178
  78:	00001178          	.word	0x00001178
  7c:	00001178          	.word	0x00001178
  80:	00001178          	.word	0x00001178
  84:	00001178          	.word	0x00001178
  88:	00001178          	.word	0x00001178
  8c:	00001178          	.word	0x00001178
  90:	00001178          	.word	0x00001178
  94:	00001178          	.word	0x00001178
  98:	00001178          	.word	0x00001178
  9c:	0000                	unimp
	...

Disassembly of section .text:

000000a0 <__divdi3>:
      a0:	fcc10113          	addi	sp,sp,-52
      a4:	d806                	sw	ra,48(sp)
      a6:	d622                	sw	s0,44(sp)
      a8:	d426                	sw	s1,40(sp)
      aa:	c002                	sw	zero,0(sp)
      ac:	832a                	mv	t1,a0
      ae:	0005db63          	bgez	a1,c4 <__divdi3+0x24>
      b2:	00a037b3          	snez	a5,a0
      b6:	40b005b3          	neg	a1,a1
      ba:	8d9d                	sub	a1,a1,a5
      bc:	57fd                	li	a5,-1
      be:	40a00333          	neg	t1,a0
      c2:	c03e                	sw	a5,0(sp)
      c4:	0006dd63          	bgez	a3,de <__divdi3+0x3e>
      c8:	4782                	lw	a5,0(sp)
      ca:	40d006b3          	neg	a3,a3
      ce:	fff7c793          	not	a5,a5
      d2:	c03e                	sw	a5,0(sp)
      d4:	00c037b3          	snez	a5,a2
      d8:	8e9d                	sub	a3,a3,a5
      da:	40c00633          	neg	a2,a2
      de:	82b2                	mv	t0,a2
      e0:	841a                	mv	s0,t1
      e2:	84ae                	mv	s1,a1
      e4:	2a069563          	bnez	a3,38e <__divdi3+0x2ee>
      e8:	6689                	lui	a3,0x2
      ea:	e8068693          	addi	a3,a3,-384 # 1e80 <__clz_tab>
      ee:	0ec5f563          	bgeu	a1,a2,1d8 <__divdi3+0x138>
      f2:	67c1                	lui	a5,0x10
      f4:	0cf67b63          	bgeu	a2,a5,1ca <__divdi3+0x12a>
      f8:	10063793          	sltiu	a5,a2,256
      fc:	0017c793          	xori	a5,a5,1
     100:	078e                	slli	a5,a5,0x3
     102:	00f65533          	srl	a0,a2,a5
     106:	96aa                	add	a3,a3,a0
     108:	0006c683          	lbu	a3,0(a3)
     10c:	02000513          	li	a0,32
     110:	97b6                	add	a5,a5,a3
     112:	40f506b3          	sub	a3,a0,a5
     116:	00f50c63          	beq	a0,a5,12e <__divdi3+0x8e>
     11a:	00d59733          	sll	a4,a1,a3
     11e:	00f357b3          	srl	a5,t1,a5
     122:	00d612b3          	sll	t0,a2,a3
     126:	00e7e4b3          	or	s1,a5,a4
     12a:	00d31433          	sll	s0,t1,a3
     12e:	0102d793          	srli	a5,t0,0x10
     132:	c23e                	sw	a5,4(sp)
     134:	4592                	lw	a1,4(sp)
     136:	01029793          	slli	a5,t0,0x10
     13a:	83c1                	srli	a5,a5,0x10
     13c:	8526                	mv	a0,s1
     13e:	ca16                	sw	t0,20(sp)
     140:	c43e                	sw	a5,8(sp)
     142:	2109                	jal	544 <__hidden___udivsi3>
     144:	85aa                	mv	a1,a0
     146:	c82a                	sw	a0,16(sp)
     148:	4522                	lw	a0,8(sp)
     14a:	2ee9                	jal	524 <__mulsi3>
     14c:	4592                	lw	a1,4(sp)
     14e:	c62a                	sw	a0,12(sp)
     150:	8526                	mv	a0,s1
     152:	2939                	jal	570 <__umodsi3>
     154:	4642                	lw	a2,16(sp)
     156:	46b2                	lw	a3,12(sp)
     158:	0542                	slli	a0,a0,0x10
     15a:	01045713          	srli	a4,s0,0x10
     15e:	8f49                	or	a4,a4,a0
     160:	42d2                	lw	t0,20(sp)
     162:	84b2                	mv	s1,a2
     164:	00d77c63          	bgeu	a4,a3,17c <__divdi3+0xdc>
     168:	9716                	add	a4,a4,t0
     16a:	fff60493          	addi	s1,a2,-1
     16e:	00576763          	bltu	a4,t0,17c <__divdi3+0xdc>
     172:	00d77563          	bgeu	a4,a3,17c <__divdi3+0xdc>
     176:	ffe60493          	addi	s1,a2,-2
     17a:	9716                	add	a4,a4,t0
     17c:	4592                	lw	a1,4(sp)
     17e:	40d707b3          	sub	a5,a4,a3
     182:	853e                	mv	a0,a5
     184:	ca16                	sw	t0,20(sp)
     186:	c63e                	sw	a5,12(sp)
     188:	2e75                	jal	544 <__hidden___udivsi3>
     18a:	85aa                	mv	a1,a0
     18c:	c82a                	sw	a0,16(sp)
     18e:	4522                	lw	a0,8(sp)
     190:	0442                	slli	s0,s0,0x10
     192:	8041                	srli	s0,s0,0x10
     194:	2e41                	jal	524 <__mulsi3>
     196:	c42a                	sw	a0,8(sp)
     198:	4592                	lw	a1,4(sp)
     19a:	4532                	lw	a0,12(sp)
     19c:	2ed1                	jal	570 <__umodsi3>
     19e:	4742                	lw	a4,16(sp)
     1a0:	46a2                	lw	a3,8(sp)
     1a2:	0542                	slli	a0,a0,0x10
     1a4:	8c49                	or	s0,s0,a0
     1a6:	863a                	mv	a2,a4
     1a8:	00d47c63          	bgeu	s0,a3,1c0 <__divdi3+0x120>
     1ac:	42d2                	lw	t0,20(sp)
     1ae:	fff70613          	addi	a2,a4,-1
     1b2:	9416                	add	s0,s0,t0
     1b4:	00546663          	bltu	s0,t0,1c0 <__divdi3+0x120>
     1b8:	00d47463          	bgeu	s0,a3,1c0 <__divdi3+0x120>
     1bc:	ffe70613          	addi	a2,a4,-2
     1c0:	01049793          	slli	a5,s1,0x10
     1c4:	8fd1                	or	a5,a5,a2
     1c6:	4481                	li	s1,0
     1c8:	a0c5                	j	2a8 <__divdi3+0x208>
     1ca:	01000537          	lui	a0,0x1000
     1ce:	47c1                	li	a5,16
     1d0:	f2a669e3          	bltu	a2,a0,102 <__divdi3+0x62>
     1d4:	47e1                	li	a5,24
     1d6:	b735                	j	102 <__divdi3+0x62>
     1d8:	4781                	li	a5,0
     1da:	ca09                	beqz	a2,1ec <__divdi3+0x14c>
     1dc:	67c1                	lui	a5,0x10
     1de:	0ef67663          	bgeu	a2,a5,2ca <__divdi3+0x22a>
     1e2:	10063793          	sltiu	a5,a2,256
     1e6:	0017c793          	xori	a5,a5,1
     1ea:	078e                	slli	a5,a5,0x3
     1ec:	00f65733          	srl	a4,a2,a5
     1f0:	9736                	add	a4,a4,a3
     1f2:	00074703          	lbu	a4,0(a4)
     1f6:	02000693          	li	a3,32
     1fa:	97ba                	add	a5,a5,a4
     1fc:	40f68733          	sub	a4,a3,a5
     200:	0cf69c63          	bne	a3,a5,2d8 <__divdi3+0x238>
     204:	40c58633          	sub	a2,a1,a2
     208:	4485                	li	s1,1
     20a:	0102d793          	srli	a5,t0,0x10
     20e:	c23e                	sw	a5,4(sp)
     210:	4592                	lw	a1,4(sp)
     212:	01029793          	slli	a5,t0,0x10
     216:	83c1                	srli	a5,a5,0x10
     218:	8532                	mv	a0,a2
     21a:	cc16                	sw	t0,24(sp)
     21c:	c43e                	sw	a5,8(sp)
     21e:	ca32                	sw	a2,20(sp)
     220:	2615                	jal	544 <__hidden___udivsi3>
     222:	85aa                	mv	a1,a0
     224:	c82a                	sw	a0,16(sp)
     226:	4522                	lw	a0,8(sp)
     228:	2cf5                	jal	524 <__mulsi3>
     22a:	4652                	lw	a2,20(sp)
     22c:	4592                	lw	a1,4(sp)
     22e:	c62a                	sw	a0,12(sp)
     230:	8532                	mv	a0,a2
     232:	2e3d                	jal	570 <__umodsi3>
     234:	43c2                	lw	t2,16(sp)
     236:	4332                	lw	t1,12(sp)
     238:	0542                	slli	a0,a0,0x10
     23a:	01045693          	srli	a3,s0,0x10
     23e:	8ec9                	or	a3,a3,a0
     240:	42e2                	lw	t0,24(sp)
     242:	879e                	mv	a5,t2
     244:	0066fc63          	bgeu	a3,t1,25c <__divdi3+0x1bc>
     248:	9696                	add	a3,a3,t0
     24a:	fff38793          	addi	a5,t2,-1
     24e:	0056e763          	bltu	a3,t0,25c <__divdi3+0x1bc>
     252:	0066f563          	bgeu	a3,t1,25c <__divdi3+0x1bc>
     256:	ffe38793          	addi	a5,t2,-2
     25a:	9696                	add	a3,a3,t0
     25c:	4592                	lw	a1,4(sp)
     25e:	cc3e                	sw	a5,24(sp)
     260:	406687b3          	sub	a5,a3,t1
     264:	853e                	mv	a0,a5
     266:	c63e                	sw	a5,12(sp)
     268:	ca16                	sw	t0,20(sp)
     26a:	2ce9                	jal	544 <__hidden___udivsi3>
     26c:	85aa                	mv	a1,a0
     26e:	c82a                	sw	a0,16(sp)
     270:	4522                	lw	a0,8(sp)
     272:	0442                	slli	s0,s0,0x10
     274:	8041                	srli	s0,s0,0x10
     276:	247d                	jal	524 <__mulsi3>
     278:	4592                	lw	a1,4(sp)
     27a:	c42a                	sw	a0,8(sp)
     27c:	4532                	lw	a0,12(sp)
     27e:	2ccd                	jal	570 <__umodsi3>
     280:	46c2                	lw	a3,16(sp)
     282:	4622                	lw	a2,8(sp)
     284:	0542                	slli	a0,a0,0x10
     286:	8c49                	or	s0,s0,a0
     288:	47e2                	lw	a5,24(sp)
     28a:	85b6                	mv	a1,a3
     28c:	00c47c63          	bgeu	s0,a2,2a4 <__divdi3+0x204>
     290:	42d2                	lw	t0,20(sp)
     292:	fff68593          	addi	a1,a3,-1
     296:	9416                	add	s0,s0,t0
     298:	00546663          	bltu	s0,t0,2a4 <__divdi3+0x204>
     29c:	00c47463          	bgeu	s0,a2,2a4 <__divdi3+0x204>
     2a0:	ffe68593          	addi	a1,a3,-2
     2a4:	07c2                	slli	a5,a5,0x10
     2a6:	8fcd                	or	a5,a5,a1
     2a8:	853e                	mv	a0,a5
     2aa:	4782                	lw	a5,0(sp)
     2ac:	85a6                	mv	a1,s1
     2ae:	cb81                	beqz	a5,2be <__divdi3+0x21e>
     2b0:	00a037b3          	snez	a5,a0
     2b4:	409005b3          	neg	a1,s1
     2b8:	8d9d                	sub	a1,a1,a5
     2ba:	40a00533          	neg	a0,a0
     2be:	50c2                	lw	ra,48(sp)
     2c0:	5432                	lw	s0,44(sp)
     2c2:	54a2                	lw	s1,40(sp)
     2c4:	03410113          	addi	sp,sp,52
     2c8:	8082                	ret
     2ca:	01000737          	lui	a4,0x1000
     2ce:	47c1                	li	a5,16
     2d0:	f0e66ee3          	bltu	a2,a4,1ec <__divdi3+0x14c>
     2d4:	47e1                	li	a5,24
     2d6:	bf19                	j	1ec <__divdi3+0x14c>
     2d8:	00f5d4b3          	srl	s1,a1,a5
     2dc:	00e595b3          	sll	a1,a1,a4
     2e0:	00f357b3          	srl	a5,t1,a5
     2e4:	00e612b3          	sll	t0,a2,a4
     2e8:	8fcd                	or	a5,a5,a1
     2ea:	c43e                	sw	a5,8(sp)
     2ec:	0102d793          	srli	a5,t0,0x10
     2f0:	c23e                	sw	a5,4(sp)
     2f2:	4592                	lw	a1,4(sp)
     2f4:	01029793          	slli	a5,t0,0x10
     2f8:	83c1                	srli	a5,a5,0x10
     2fa:	8526                	mv	a0,s1
     2fc:	cc16                	sw	t0,24(sp)
     2fe:	c63e                	sw	a5,12(sp)
     300:	00e31433          	sll	s0,t1,a4
     304:	2481                	jal	544 <__hidden___udivsi3>
     306:	85aa                	mv	a1,a0
     308:	ca2a                	sw	a0,20(sp)
     30a:	4532                	lw	a0,12(sp)
     30c:	2c21                	jal	524 <__mulsi3>
     30e:	4592                	lw	a1,4(sp)
     310:	c82a                	sw	a0,16(sp)
     312:	8526                	mv	a0,s1
     314:	2cb1                	jal	570 <__umodsi3>
     316:	47a2                	lw	a5,8(sp)
     318:	4652                	lw	a2,20(sp)
     31a:	46c2                	lw	a3,16(sp)
     31c:	0542                	slli	a0,a0,0x10
     31e:	83c1                	srli	a5,a5,0x10
     320:	8fc9                	or	a5,a5,a0
     322:	42e2                	lw	t0,24(sp)
     324:	84b2                	mv	s1,a2
     326:	00d7fc63          	bgeu	a5,a3,33e <__divdi3+0x29e>
     32a:	9796                	add	a5,a5,t0
     32c:	fff60493          	addi	s1,a2,-1
     330:	0057e763          	bltu	a5,t0,33e <__divdi3+0x29e>
     334:	00d7f563          	bgeu	a5,a3,33e <__divdi3+0x29e>
     338:	ffe60493          	addi	s1,a2,-2
     33c:	9796                	add	a5,a5,t0
     33e:	4592                	lw	a1,4(sp)
     340:	8f95                	sub	a5,a5,a3
     342:	853e                	mv	a0,a5
     344:	cc16                	sw	t0,24(sp)
     346:	c83e                	sw	a5,16(sp)
     348:	2af5                	jal	544 <__hidden___udivsi3>
     34a:	85aa                	mv	a1,a0
     34c:	ca2a                	sw	a0,20(sp)
     34e:	4532                	lw	a0,12(sp)
     350:	2ad1                	jal	524 <__mulsi3>
     352:	4592                	lw	a1,4(sp)
     354:	c62a                	sw	a0,12(sp)
     356:	4542                	lw	a0,16(sp)
     358:	2c21                	jal	570 <__umodsi3>
     35a:	00815603          	lhu	a2,8(sp)
     35e:	46d2                	lw	a3,20(sp)
     360:	47b2                	lw	a5,12(sp)
     362:	0542                	slli	a0,a0,0x10
     364:	8e49                	or	a2,a2,a0
     366:	42e2                	lw	t0,24(sp)
     368:	85b6                	mv	a1,a3
     36a:	00f67c63          	bgeu	a2,a5,382 <__divdi3+0x2e2>
     36e:	9616                	add	a2,a2,t0
     370:	fff68593          	addi	a1,a3,-1
     374:	00566763          	bltu	a2,t0,382 <__divdi3+0x2e2>
     378:	00f67563          	bgeu	a2,a5,382 <__divdi3+0x2e2>
     37c:	ffe68593          	addi	a1,a3,-2
     380:	9616                	add	a2,a2,t0
     382:	01049713          	slli	a4,s1,0x10
     386:	8e1d                	sub	a2,a2,a5
     388:	00b764b3          	or	s1,a4,a1
     38c:	bdbd                	j	20a <__divdi3+0x16a>
     38e:	18d5e763          	bltu	a1,a3,51c <__divdi3+0x47c>
     392:	67c1                	lui	a5,0x10
     394:	02f6fe63          	bgeu	a3,a5,3d0 <__divdi3+0x330>
     398:	1006b793          	sltiu	a5,a3,256
     39c:	0017c793          	xori	a5,a5,1
     3a0:	078e                	slli	a5,a5,0x3
     3a2:	6709                	lui	a4,0x2
     3a4:	00f6d533          	srl	a0,a3,a5
     3a8:	e8070713          	addi	a4,a4,-384 # 1e80 <__clz_tab>
     3ac:	972a                	add	a4,a4,a0
     3ae:	00074503          	lbu	a0,0(a4)
     3b2:	953e                	add	a0,a0,a5
     3b4:	02000793          	li	a5,32
     3b8:	40a784b3          	sub	s1,a5,a0
     3bc:	02a79163          	bne	a5,a0,3de <__divdi3+0x33e>
     3c0:	4785                	li	a5,1
     3c2:	eeb6e3e3          	bltu	a3,a1,2a8 <__divdi3+0x208>
     3c6:	00c33633          	sltu	a2,t1,a2
     3ca:	00164793          	xori	a5,a2,1
     3ce:	bde9                	j	2a8 <__divdi3+0x208>
     3d0:	01000737          	lui	a4,0x1000
     3d4:	47c1                	li	a5,16
     3d6:	fce6e6e3          	bltu	a3,a4,3a2 <__divdi3+0x302>
     3da:	47e1                	li	a5,24
     3dc:	b7d9                	j	3a2 <__divdi3+0x302>
     3de:	009697b3          	sll	a5,a3,s1
     3e2:	00a656b3          	srl	a3,a2,a0
     3e6:	8edd                	or	a3,a3,a5
     3e8:	00a5d433          	srl	s0,a1,a0
     3ec:	009617b3          	sll	a5,a2,s1
     3f0:	00a35533          	srl	a0,t1,a0
     3f4:	009595b3          	sll	a1,a1,s1
     3f8:	c43e                	sw	a5,8(sp)
     3fa:	00b567b3          	or	a5,a0,a1
     3fe:	c63e                	sw	a5,12(sp)
     400:	0106d793          	srli	a5,a3,0x10
     404:	c23e                	sw	a5,4(sp)
     406:	4592                	lw	a1,4(sp)
     408:	01069793          	slli	a5,a3,0x10
     40c:	83c1                	srli	a5,a5,0x10
     40e:	8522                	mv	a0,s0
     410:	d01a                	sw	t1,32(sp)
     412:	ce36                	sw	a3,28(sp)
     414:	c83e                	sw	a5,16(sp)
     416:	223d                	jal	544 <__hidden___udivsi3>
     418:	85aa                	mv	a1,a0
     41a:	cc2a                	sw	a0,24(sp)
     41c:	4542                	lw	a0,16(sp)
     41e:	2219                	jal	524 <__mulsi3>
     420:	4592                	lw	a1,4(sp)
     422:	ca2a                	sw	a0,20(sp)
     424:	8522                	mv	a0,s0
     426:	22a9                	jal	570 <__umodsi3>
     428:	47b2                	lw	a5,12(sp)
     42a:	42e2                	lw	t0,24(sp)
     42c:	4652                	lw	a2,20(sp)
     42e:	0107d413          	srli	s0,a5,0x10
     432:	0542                	slli	a0,a0,0x10
     434:	8c49                	or	s0,s0,a0
     436:	46f2                	lw	a3,28(sp)
     438:	5302                	lw	t1,32(sp)
     43a:	8796                	mv	a5,t0
     43c:	00c47c63          	bgeu	s0,a2,454 <__divdi3+0x3b4>
     440:	9436                	add	s0,s0,a3
     442:	fff28793          	addi	a5,t0,-1
     446:	00d46763          	bltu	s0,a3,454 <__divdi3+0x3b4>
     44a:	00c47563          	bgeu	s0,a2,454 <__divdi3+0x3b4>
     44e:	ffe28793          	addi	a5,t0,-2
     452:	9436                	add	s0,s0,a3
     454:	4592                	lw	a1,4(sp)
     456:	d03e                	sw	a5,32(sp)
     458:	40c407b3          	sub	a5,s0,a2
     45c:	853e                	mv	a0,a5
     45e:	d21a                	sw	t1,36(sp)
     460:	ca3e                	sw	a5,20(sp)
     462:	ce36                	sw	a3,28(sp)
     464:	20c5                	jal	544 <__hidden___udivsi3>
     466:	85aa                	mv	a1,a0
     468:	cc2a                	sw	a0,24(sp)
     46a:	4542                	lw	a0,16(sp)
     46c:	2865                	jal	524 <__mulsi3>
     46e:	4592                	lw	a1,4(sp)
     470:	842a                	mv	s0,a0
     472:	4552                	lw	a0,20(sp)
     474:	28f5                	jal	570 <__umodsi3>
     476:	00c15603          	lhu	a2,12(sp)
     47a:	43e2                	lw	t2,24(sp)
     47c:	0542                	slli	a0,a0,0x10
     47e:	8e49                	or	a2,a2,a0
     480:	5782                	lw	a5,32(sp)
     482:	5312                	lw	t1,36(sp)
     484:	859e                	mv	a1,t2
     486:	00867d63          	bgeu	a2,s0,4a0 <__divdi3+0x400>
     48a:	46f2                	lw	a3,28(sp)
     48c:	fff38593          	addi	a1,t2,-1
     490:	9636                	add	a2,a2,a3
     492:	00d66763          	bltu	a2,a3,4a0 <__divdi3+0x400>
     496:	00867563          	bgeu	a2,s0,4a0 <__divdi3+0x400>
     49a:	ffe38593          	addi	a1,t2,-2
     49e:	9636                	add	a2,a2,a3
     4a0:	40860733          	sub	a4,a2,s0
     4a4:	4622                	lw	a2,8(sp)
     4a6:	66c1                	lui	a3,0x10
     4a8:	07c2                	slli	a5,a5,0x10
     4aa:	8fcd                	or	a5,a5,a1
     4ac:	fff68293          	addi	t0,a3,-1 # ffff <sysinit.c.f98e60a8+0x96f7>
     4b0:	0057f433          	and	s0,a5,t0
     4b4:	005672b3          	and	t0,a2,t0
     4b8:	8241                	srli	a2,a2,0x10
     4ba:	c232                	sw	a2,4(sp)
     4bc:	8522                	mv	a0,s0
     4be:	8596                	mv	a1,t0
     4c0:	2095                	jal	524 <__mulsi3>
     4c2:	83aa                	mv	t2,a0
     4c4:	4592                	lw	a1,4(sp)
     4c6:	8522                	mv	a0,s0
     4c8:	28b1                	jal	524 <__mulsi3>
     4ca:	842a                	mv	s0,a0
     4cc:	8596                	mv	a1,t0
     4ce:	0107d513          	srli	a0,a5,0x10
     4d2:	2889                	jal	524 <__mulsi3>
     4d4:	82aa                	mv	t0,a0
     4d6:	4592                	lw	a1,4(sp)
     4d8:	0107d513          	srli	a0,a5,0x10
     4dc:	20a1                	jal	524 <__mulsi3>
     4de:	0103d613          	srli	a2,t2,0x10
     4e2:	005406b3          	add	a3,s0,t0
     4e6:	00d60433          	add	s0,a2,a3
     4ea:	00547463          	bgeu	s0,t0,4f2 <__divdi3+0x452>
     4ee:	66c1                	lui	a3,0x10
     4f0:	9536                	add	a0,a0,a3
     4f2:	01045693          	srli	a3,s0,0x10
     4f6:	9536                	add	a0,a0,a3
     4f8:	02a76063          	bltu	a4,a0,518 <__divdi3+0x478>
     4fc:	cca715e3          	bne	a4,a0,1c6 <__divdi3+0x126>
     500:	6741                	lui	a4,0x10
     502:	177d                	addi	a4,a4,-1 # ffff <sysinit.c.f98e60a8+0x96f7>
     504:	8c79                	and	s0,s0,a4
     506:	0442                	slli	s0,s0,0x10
     508:	00e3f733          	and	a4,t2,a4
     50c:	00931333          	sll	t1,t1,s1
     510:	943a                	add	s0,s0,a4
     512:	4481                	li	s1,0
     514:	d8837ae3          	bgeu	t1,s0,2a8 <__divdi3+0x208>
     518:	17fd                	addi	a5,a5,-1 # ffff <sysinit.c.f98e60a8+0x96f7>
     51a:	b175                	j	1c6 <__divdi3+0x126>
     51c:	4481                	li	s1,0
     51e:	4781                	li	a5,0
     520:	b361                	j	2a8 <__divdi3+0x208>
	...

00000524 <__mulsi3>:
     524:	862a                	mv	a2,a0
     526:	4501                	li	a0,0
     528:	0015f693          	andi	a3,a1,1
     52c:	c291                	beqz	a3,530 <__mulsi3+0xc>
     52e:	9532                	add	a0,a0,a2
     530:	8185                	srli	a1,a1,0x1
     532:	0606                	slli	a2,a2,0x1
     534:	f9f5                	bnez	a1,528 <__mulsi3+0x4>
     536:	8082                	ret
     538:	0000                	unimp
	...

0000053c <__divsi3>:
     53c:	02054e63          	bltz	a0,578 <__umodsi3+0x8>
     540:	0405c363          	bltz	a1,586 <__umodsi3+0x16>

00000544 <__hidden___udivsi3>:
     544:	862e                	mv	a2,a1
     546:	85aa                	mv	a1,a0
     548:	557d                	li	a0,-1
     54a:	c215                	beqz	a2,56e <__hidden___udivsi3+0x2a>
     54c:	4685                	li	a3,1
     54e:	00b67863          	bgeu	a2,a1,55e <__hidden___udivsi3+0x1a>
     552:	00c05663          	blez	a2,55e <__hidden___udivsi3+0x1a>
     556:	0606                	slli	a2,a2,0x1
     558:	0686                	slli	a3,a3,0x1
     55a:	feb66ce3          	bltu	a2,a1,552 <__hidden___udivsi3+0xe>
     55e:	4501                	li	a0,0
     560:	00c5e463          	bltu	a1,a2,568 <__hidden___udivsi3+0x24>
     564:	8d91                	sub	a1,a1,a2
     566:	8d55                	or	a0,a0,a3
     568:	8285                	srli	a3,a3,0x1
     56a:	8205                	srli	a2,a2,0x1
     56c:	faf5                	bnez	a3,560 <__hidden___udivsi3+0x1c>
     56e:	8082                	ret

00000570 <__umodsi3>:
     570:	8286                	mv	t0,ra
     572:	3fc9                	jal	544 <__hidden___udivsi3>
     574:	852e                	mv	a0,a1
     576:	8282                	jr	t0
     578:	40a00533          	neg	a0,a0
     57c:	00b04763          	bgtz	a1,58a <__umodsi3+0x1a>
     580:	40b005b3          	neg	a1,a1
     584:	b7c1                	j	544 <__hidden___udivsi3>
     586:	40b005b3          	neg	a1,a1
     58a:	8286                	mv	t0,ra
     58c:	3f65                	jal	544 <__hidden___udivsi3>
     58e:	40a00533          	neg	a0,a0
     592:	8282                	jr	t0

00000594 <__modsi3>:
     594:	8286                	mv	t0,ra
     596:	0005c763          	bltz	a1,5a4 <__modsi3+0x10>
     59a:	00054963          	bltz	a0,5ac <__modsi3+0x18>
     59e:	375d                	jal	544 <__hidden___udivsi3>
     5a0:	852e                	mv	a0,a1
     5a2:	8282                	jr	t0
     5a4:	40b005b3          	neg	a1,a1
     5a8:	fe055be3          	bgez	a0,59e <__modsi3+0xa>
     5ac:	40a00533          	neg	a0,a0
     5b0:	3f51                	jal	544 <__hidden___udivsi3>
     5b2:	40b00533          	neg	a0,a1
     5b6:	8282                	jr	t0
	...

000005ba <mini_pad>:
	if(pad_to == 0) pad_to = len;
     5ba:	c699                	beqz	a3,5c8 <mini_pad+0xe>
	int overflow = 0;
     5bc:	4301                	li	t1,0
	if(len > pad_to) {
     5be:	00b6d763          	bge	a3,a1,5cc <mini_pad+0x12>
		len = pad_to;
     5c2:	85b6                	mv	a1,a3
		overflow = 1;
     5c4:	4305                	li	t1,1
     5c6:	a019                	j	5cc <mini_pad+0x12>
	int overflow = 0;
     5c8:	4301                	li	t1,0
	if(pad_to == 0) pad_to = len;
     5ca:	86ae                	mv	a3,a1
	for(i = pad_to - len; i > 0; i --) {
     5cc:	8e8d                	sub	a3,a3,a1
	char * pbuffer = buffer;
     5ce:	87ba                	mv	a5,a4
     5d0:	00e683b3          	add	t2,a3,a4
	for(i = pad_to - len; i > 0; i --) {
     5d4:	40f382b3          	sub	t0,t2,a5
     5d8:	04504a63          	bgtz	t0,62c <mini_pad+0x72>
     5dc:	fff6c793          	not	a5,a3
     5e0:	87fd                	srai	a5,a5,0x1f
     5e2:	8efd                	and	a3,a3,a5
     5e4:	96ba                	add	a3,a3,a4
     5e6:	4781                	li	a5,0
	for(i = len; i > 0; i --) {
     5e8:	40f58633          	sub	a2,a1,a5
     5ec:	00f682b3          	add	t0,a3,a5
     5f0:	04c04263          	bgtz	a2,634 <mini_pad+0x7a>
     5f4:	fff5c793          	not	a5,a1
     5f8:	87fd                	srai	a5,a5,0x1f
     5fa:	8dfd                	and	a1,a1,a5
     5fc:	95b6                	add	a1,a1,a3
	len = pbuffer - buffer;
     5fe:	40e58533          	sub	a0,a1,a4
	if(overflow) {
     602:	02030463          	beqz	t1,62a <mini_pad+0x70>
		for (i = 0; i < 3 && pbuffer > buffer; i ++) {
     606:	02b77263          	bgeu	a4,a1,62a <mini_pad+0x70>
			*(pbuffer-- - 1) = '*';
     60a:	02a00793          	li	a5,42
     60e:	fef58fa3          	sb	a5,-1(a1)
     612:	fff58693          	addi	a3,a1,-1
		for (i = 0; i < 3 && pbuffer > buffer; i ++) {
     616:	00d77a63          	bgeu	a4,a3,62a <mini_pad+0x70>
			*(pbuffer-- - 1) = '*';
     61a:	fef58f23          	sb	a5,-2(a1)
     61e:	ffe58693          	addi	a3,a1,-2
		for (i = 0; i < 3 && pbuffer > buffer; i ++) {
     622:	00d77463          	bgeu	a4,a3,62a <mini_pad+0x70>
			*(pbuffer-- - 1) = '*';
     626:	fef58ea3          	sb	a5,-3(a1)
}
     62a:	8082                	ret
		*(pbuffer++) = pad_char;
     62c:	0785                	addi	a5,a5,1
     62e:	fec78fa3          	sb	a2,-1(a5)
	for(i = pad_to - len; i > 0; i --) {
     632:	b74d                	j	5d4 <mini_pad+0x1a>
		*(pbuffer++) = *(ptr++);
     634:	00f50633          	add	a2,a0,a5
     638:	00064603          	lbu	a2,0(a2)
     63c:	0785                	addi	a5,a5,1
     63e:	00c28023          	sb	a2,0(t0)
	for(i = len; i > 0; i --) {
     642:	b75d                	j	5e8 <mini_pad+0x2e>

00000644 <_puts>:
{
     644:	832a                	mv	t1,a0
     646:	852e                	mv	a0,a1
	if(!buf) return len;
     648:	ce01                	beqz	a2,660 <_puts+0x1c>
	char * p0 = b->buffer;
     64a:	00062283          	lw	t0,0(a2)
	for (i = 0; i < len; i++) {
     64e:	4701                	li	a4,0
		if(b->pbuffer == b->buffer + b->buffer_len - 1) {
     650:	425c                	lw	a5,4(a2)
	for (i = 0; i < len; i++) {
     652:	00a74863          	blt	a4,a0,662 <_puts+0x1e>
	*(b->pbuffer) = 0;
     656:	00078023          	sb	zero,0(a5)
	return b->pbuffer - p0;
     65a:	4248                	lw	a0,4(a2)
     65c:	40550533          	sub	a0,a0,t0
}
     660:	8082                	ret
		if(b->pbuffer == b->buffer + b->buffer_len - 1) {
     662:	460c                	lw	a1,8(a2)
     664:	4214                	lw	a3,0(a2)
     666:	15fd                	addi	a1,a1,-1
     668:	96ae                	add	a3,a3,a1
     66a:	fed786e3          	beq	a5,a3,656 <_puts+0x12>
		*(b->pbuffer ++) = s[i];
     66e:	00178693          	addi	a3,a5,1
     672:	c254                	sw	a3,4(a2)
     674:	00e306b3          	add	a3,t1,a4
     678:	0006c683          	lbu	a3,0(a3) # 10000 <sysinit.c.f98e60a8+0x96f8>
	for (i = 0; i < len; i++) {
     67c:	0705                	addi	a4,a4,1
		*(b->pbuffer ++) = s[i];
     67e:	00d78023          	sb	a3,0(a5)
	for (i = 0; i < len; i++) {
     682:	b7f9                	j	650 <_puts+0xc>

00000684 <PrintHex>:
	while( (*DMDATA0) & 0x80 );
     684:	e00007b7          	lui	a5,0xe0000
     688:	0f478793          	addi	a5,a5,244 # e00000f4 <_eusrstack+0xbffff8f4>
     68c:	4398                	lw	a4,0(a5)
     68e:	08077713          	andi	a4,a4,128
     692:	ff6d                	bnez	a4,68c <PrintHex+0x8>
	*DMDATA0 = 0x78302088; //" 0x"
     694:	78302737          	lui	a4,0x78302
     698:	08870713          	addi	a4,a4,136 # 78302088 <_eusrstack+0x58301888>
		while( (*DMDATA0) & 0x80 );
     69c:	e00006b7          	lui	a3,0xe0000
	*DMDATA0 = 0x78302088; //" 0x"
     6a0:	c398                	sw	a4,0(a5)
		while( (*DMDATA0) & 0x80 );
     6a2:	0f468693          	addi	a3,a3,244 # e00000f4 <_eusrstack+0xbffff8f4>
	for( shift = 28; shift >= 0; shift -= 4 )
     6a6:	4771                	li	a4,28
		s += ( s < 10 ) ? '0' : ('a' - 10);
     6a8:	45a5                	li	a1,9
	for( shift = 28; shift >= 0; shift -= 4 )
     6aa:	5671                	li	a2,-4
		while( (*DMDATA0) & 0x80 );
     6ac:	429c                	lw	a5,0(a3)
     6ae:	0807f793          	andi	a5,a5,128
     6b2:	ffed                	bnez	a5,6ac <PrintHex+0x28>
		int s = (n>>shift) & 0xf;
     6b4:	00e55333          	srl	t1,a0,a4
     6b8:	00f37313          	andi	t1,t1,15
		s += ( s < 10 ) ? '0' : ('a' - 10);
     6bc:	0065b7b3          	sltu	a5,a1,t1
     6c0:	40f007b3          	neg	a5,a5
     6c4:	0277f793          	andi	a5,a5,39
     6c8:	03078793          	addi	a5,a5,48
     6cc:	979a                	add	a5,a5,t1
		*DMDATA0 = 0x85 | (s<<8); //" 0x"
     6ce:	07a2                	slli	a5,a5,0x8
     6d0:	0857e793          	ori	a5,a5,133
     6d4:	c29c                	sw	a5,0(a3)
	for( shift = 28; shift >= 0; shift -= 4 )
     6d6:	1771                	addi	a4,a4,-4
     6d8:	fcc71ae3          	bne	a4,a2,6ac <PrintHex+0x28>
}
     6dc:	8082                	ret

000006de <DelaySysTick>:
#endif

void DelaySysTick( uint32_t n )
{
#if defined(CH32V003) || defined(CH32V00x)
	uint32_t targend = SysTick->CNT + n;
     6de:	e000f737          	lui	a4,0xe000f
     6e2:	471c                	lw	a5,8(a4)
     6e4:	953e                	add	a0,a0,a5
	while( ((int32_t)( SysTick->CNT - targend )) < 0 );
     6e6:	471c                	lw	a5,8(a4)
     6e8:	8f89                	sub	a5,a5,a0
     6ea:	fe07cee3          	bltz	a5,6e6 <DelaySysTick+0x8>
	uint64_t targend = SysTick->CNT - n;
	while( ((int64_t)( SysTick->CNT - targend )) > 0 );
#else
	#error DelaySysTick not defined.
#endif
}
     6ee:	8082                	ret

000006f0 <mini_itoa.part.0>:
int mini_itoa(long value, unsigned int radix, int uppercase, int unsig, char *buffer)
     6f0:	1101                	addi	sp,sp,-32
     6f2:	ce06                	sw	ra,28(sp)
     6f4:	cc22                	sw	s0,24(sp)
     6f6:	ca26                	sw	s1,20(sp)
	int	negative = 0;
     6f8:	c002                	sw	zero,0(sp)
int mini_itoa(long value, unsigned int radix, int uppercase, int unsig, char *buffer)
     6fa:	832a                	mv	t1,a0
	if (value < 0 && !unsig) {
     6fc:	00055763          	bgez	a0,70a <mini_itoa.part.0+0x1a>
     700:	e689                	bnez	a3,70a <mini_itoa.part.0+0x1a>
		negative = 1;
     702:	4785                	li	a5,1
		value = -value;
     704:	40a00333          	neg	t1,a0
		negative = 1;
     708:	c03e                	sw	a5,0(sp)
     70a:	8a05                	andi	a2,a2,1
     70c:	06100413          	li	s0,97
     710:	c219                	beqz	a2,716 <mini_itoa.part.0+0x26>
     712:	04100413          	li	s0,65
	int	negative = 0;
     716:	84ba                	mv	s1,a4
		*(pbuffer++) = (digit < 10 ? '0' + digit : (uppercase ? 'A' : 'a') + digit - 10);
     718:	1459                	addi	s0,s0,-10
		int digit = value % radix;
     71a:	851a                	mv	a0,t1
     71c:	c83a                	sw	a4,16(sp)
     71e:	c21a                	sw	t1,4(sp)
     720:	c62e                	sw	a1,12(sp)
     722:	c41a                	sw	t1,8(sp)
     724:	35b1                	jal	570 <__umodsi3>
		*(pbuffer++) = (digit < 10 ? '0' + digit : (uppercase ? 'A' : 'a') + digit - 10);
     726:	47a5                	li	a5,9
     728:	4322                	lw	t1,8(sp)
     72a:	45b2                	lw	a1,12(sp)
     72c:	4742                	lw	a4,16(sp)
     72e:	0ff57693          	zext.b	a3,a0
     732:	06a7e163          	bltu	a5,a0,794 <mini_itoa.part.0+0xa4>
     736:	03068693          	addi	a3,a3,48
     73a:	0ff6f693          	zext.b	a3,a3
     73e:	00148793          	addi	a5,s1,1
     742:	00d48023          	sb	a3,0(s1)
		value /= radix;
     746:	851a                	mv	a0,t1
     748:	c83a                	sw	a4,16(sp)
		*(pbuffer++) = (digit < 10 ? '0' + digit : (uppercase ? 'A' : 'a') + digit - 10);
     74a:	c63e                	sw	a5,12(sp)
		value /= radix;
     74c:	c42e                	sw	a1,8(sp)
     74e:	3bdd                	jal	544 <__hidden___udivsi3>
	} while (value > 0);
     750:	4692                	lw	a3,4(sp)
     752:	45a2                	lw	a1,8(sp)
     754:	47b2                	lw	a5,12(sp)
     756:	4742                	lw	a4,16(sp)
		value /= radix;
     758:	832a                	mv	t1,a0
	} while (value > 0);
     75a:	02b6fb63          	bgeu	a3,a1,790 <mini_itoa.part.0+0xa0>
	if (negative)
     75e:	4682                	lw	a3,0(sp)
     760:	c699                	beqz	a3,76e <mini_itoa.part.0+0x7e>
		*(pbuffer++) = '-';
     762:	02d00693          	li	a3,45
     766:	00d78023          	sb	a3,0(a5)
     76a:	00248793          	addi	a5,s1,2
	len = (pbuffer - buffer);
     76e:	40e78533          	sub	a0,a5,a4
	for (i = 0; i < len / 2; i++) {
     772:	01f55693          	srli	a3,a0,0x1f
     776:	96aa                	add	a3,a3,a0
	*(pbuffer) = '\0';
     778:	00078023          	sb	zero,0(a5)
	for (i = 0; i < len / 2; i++) {
     77c:	8685                	srai	a3,a3,0x1
     77e:	4601                	li	a2,0
     780:	17fd                	addi	a5,a5,-1
     782:	00d64b63          	blt	a2,a3,798 <mini_itoa.part.0+0xa8>
}
     786:	40f2                	lw	ra,28(sp)
     788:	4462                	lw	s0,24(sp)
     78a:	44d2                	lw	s1,20(sp)
     78c:	6105                	addi	sp,sp,32
     78e:	8082                	ret
		*(pbuffer++) = (digit < 10 ? '0' + digit : (uppercase ? 'A' : 'a') + digit - 10);
     790:	84be                	mv	s1,a5
     792:	b761                	j	71a <mini_itoa.part.0+0x2a>
     794:	96a2                	add	a3,a3,s0
     796:	b755                	j	73a <mini_itoa.part.0+0x4a>
		char j = buffer[i];
     798:	00c705b3          	add	a1,a4,a2
		buffer[i] = buffer[len-i-1];
     79c:	0007c283          	lbu	t0,0(a5)
		char j = buffer[i];
     7a0:	0005c303          	lbu	t1,0(a1)
	for (i = 0; i < len / 2; i++) {
     7a4:	0605                	addi	a2,a2,1
		buffer[i] = buffer[len-i-1];
     7a6:	00558023          	sb	t0,0(a1)
		buffer[len-i-1] = j;
     7aa:	00678023          	sb	t1,0(a5)
	for (i = 0; i < len / 2; i++) {
     7ae:	bfc9                	j	780 <mini_itoa.part.0+0x90>

000007b0 <led_update_task>:
{
	static int16_t led_val   = 0;
	static int8_t  led_inc   = 5;
	static uint8_t led_ticks = LED_FLASH_TICKS;
	
	switch(g_system_state)
     7b0:	cac1a783          	lw	a5,-852(gp) # 200000a8 <g_system_state>
     7b4:	4609                	li	a2,2
     7b6:	04c78e63          	beq	a5,a2,812 <led_update_task+0x62>
     7ba:	4685                	li	a3,1
     7bc:	00f66763          	bltu	a2,a5,7ca <led_update_task+0x1a>
     7c0:	04d78063          	beq	a5,a3,800 <led_update_task+0x50>
				led_ticks = LED_FLASH_TICKS;
			}
			break;

		default:
			led_val = LED_OFF_PWM;
     7c4:	c8019b23          	sh	zero,-874(gp) # 20000092 <led_val.5>
			break;
     7c8:	a83d                	j	806 <led_update_task+0x56>
	switch(g_system_state)
     7ca:	17f5                	addi	a5,a5,-3
     7cc:	fef6ece3          	bltu	a3,a5,7c4 <led_update_task+0x14>
			if(--led_ticks == 0)
     7d0:	c601c783          	lbu	a5,-928(gp) # 2000005c <led_ticks.3>
     7d4:	17fd                	addi	a5,a5,-1
     7d6:	0ff7f793          	zext.b	a5,a5
     7da:	c6f18023          	sb	a5,-928(gp) # 2000005c <led_ticks.3>
     7de:	e785                	bnez	a5,806 <led_update_task+0x56>
				led_val = (led_val == LED_OFF_PWM) ? LED_MAXIMUM_PWM : LED_OFF_PWM;
     7e0:	c9619783          	lh	a5,-874(gp) # 20000092 <led_val.5>
     7e4:	00f037b3          	snez	a5,a5
     7e8:	40f007b3          	neg	a5,a5
     7ec:	f017f793          	andi	a5,a5,-255
     7f0:	0ff78793          	addi	a5,a5,255
     7f4:	c8f19b23          	sh	a5,-874(gp) # 20000092 <led_val.5>
				led_ticks = LED_FLASH_TICKS;
     7f8:	47a9                	li	a5,10
     7fa:	c6f18023          	sb	a5,-928(gp) # 2000005c <led_ticks.3>
     7fe:	a021                	j	806 <led_update_task+0x56>
			led_val = LED_MINIMUM_PWM;
     800:	47f9                	li	a5,30
     802:	c8f19b23          	sh	a5,-874(gp) # 20000092 <led_val.5>
	}

	// Set the LED PWM
	pwm_set_duty(PWM_CHANNEL_LED, (uint8_t)led_val);
     806:	c961c703          	lbu	a4,-874(gp) # 20000092 <led_val.5>


static  void pwm_set_duty(const uint8_t ch, const uint32_t duty)
{
	static volatile uint32_t *tim_ptr[2] = { &TIM2->CH2CVR, &TIM2->CH3CVR };
	*tim_ptr[ch] = duty;
     80a:	400007b7          	lui	a5,0x40000
     80e:	df98                	sw	a4,56(a5)
}
     810:	8082                	ret
			led_val += led_inc;
     812:	c6118683          	lb	a3,-927(gp) # 2000005d <led_inc.4>
     816:	c961d783          	lhu	a5,-874(gp) # 20000092 <led_val.5>
			if(led_val >= LED_MAXIMUM_PWM || led_val <= LED_MINIMUM_PWM)
     81a:	0df00513          	li	a0,223
			led_val += led_inc;
     81e:	97b6                	add	a5,a5,a3
     820:	01079593          	slli	a1,a5,0x10
			if(led_val >= LED_MAXIMUM_PWM || led_val <= LED_MINIMUM_PWM)
     824:	1785                	addi	a5,a5,-31 # 3fffffe1 <_eusrstack+0x1ffff7e1>
     826:	07c2                	slli	a5,a5,0x10
     828:	83c1                	srli	a5,a5,0x10
			led_val += led_inc;
     82a:	85c1                	srai	a1,a1,0x10
			if(led_val >= LED_MAXIMUM_PWM || led_val <= LED_MINIMUM_PWM)
     82c:	00f56563          	bltu	a0,a5,836 <led_update_task+0x86>
			led_val += led_inc;
     830:	c8b19b23          	sh	a1,-874(gp) # 20000092 <led_val.5>
     834:	bfc9                	j	806 <led_update_task+0x56>
				led_val = (led_val >= LED_MAXIMUM_PWM) ? LED_MAXIMUM_PWM : LED_MINIMUM_PWM;
     836:	0fe00513          	li	a0,254
     83a:	47f9                	li	a5,30
     83c:	00b55463          	bge	a0,a1,844 <led_update_task+0x94>
     840:	0ff00793          	li	a5,255
				led_inc = -led_inc;
     844:	40d006b3          	neg	a3,a3
				led_val = (led_val >= LED_MAXIMUM_PWM) ? LED_MAXIMUM_PWM : LED_MINIMUM_PWM;
     848:	c8f19b23          	sh	a5,-874(gp) # 20000092 <led_val.5>
				led_inc = -led_inc;
     84c:	c6d180a3          	sb	a3,-927(gp) # 2000005d <led_inc.4>
     850:	bf5d                	j	806 <led_update_task+0x56>

00000852 <user_input_task>:
{
	// Make array of uint8_t from [pin] enum. See definition for details
	uint8_t *byte = (uint8_t *)&pin;

	// If the Input Reg has the wanted bit set, return HIGH
	if( (GPIO_PORT_MAP[ byte[0] ]->INDR & (0x01 << byte[1])) != 0x00 ) 
     852:	400117b7          	lui	a5,0x40011
     856:	479c                	lw	a5,8(a5)
	bool button_pressed = (prev && !curr);
     858:	c5c1a683          	lw	a3,-932(gp) # 20000058 <prev.6>
     85c:	8ba1                	andi	a5,a5,8
     85e:	838d                	srli	a5,a5,0x3
     860:	4501                	li	a0,0
     862:	c299                	beqz	a3,868 <user_input_task+0x16>
     864:	0017c513          	xori	a0,a5,1
	if(g_system_state == SYSTEM_STATE_ERROR_UNDERVOLTAGE || g_system_state == SYSTEM_STATE_ERROR_OVERCURRENT)
     868:	cac1a583          	lw	a1,-852(gp) # 200000a8 <g_system_state>
	prev = curr;
     86c:	c4f1ae23          	sw	a5,-932(gp) # 20000058 <prev.6>
	if(g_system_state == SYSTEM_STATE_ERROR_UNDERVOLTAGE || g_system_state == SYSTEM_STATE_ERROR_OVERCURRENT)
     870:	4785                	li	a5,1
     872:	ffd58693          	addi	a3,a1,-3
     876:	00d7e563          	bltu	a5,a3,880 <user_input_task+0x2e>
	g_rotary_encoder_clicks = 0;
     87a:	c8019a23          	sh	zero,-876(gp) # 20000090 <g_rotary_encoder_clicks>
}
     87e:	8082                	ret
	switch(g_user_input_mode)
     880:	c641a683          	lw	a3,-924(gp) # 20000060 <g_user_input_mode>
     884:	fef69be3          	bne	a3,a5,87a <user_input_task+0x28>
			g_target_temperature = CLAMP(g_target_temperature + g_rotary_encoder_clicks * SETTING_TEMPERATURE_INCRIMENT, 
     888:	c941d783          	lhu	a5,-876(gp) # 20000090 <g_rotary_encoder_clicks>
     88c:	c5819283          	lh	t0,-936(gp) # 20000054 <g_target_temperature>
     890:	07c2                	slli	a5,a5,0x10
     892:	87c1                	srai	a5,a5,0x10
     894:	00279693          	slli	a3,a5,0x2
     898:	96be                	add	a3,a3,a5
     89a:	9696                	add	a3,a3,t0
     89c:	03100393          	li	t2,49
     8a0:	03200793          	li	a5,50
     8a4:	02d3d863          	bge	t2,a3,8d4 <user_input_task+0x82>
     8a8:	c941d783          	lhu	a5,-876(gp) # 20000090 <g_rotary_encoder_clicks>
     8ac:	07c2                	slli	a5,a5,0x10
     8ae:	87c1                	srai	a5,a5,0x10
     8b0:	00279693          	slli	a3,a5,0x2
     8b4:	96be                	add	a3,a3,a5
     8b6:	9696                	add	a3,a3,t0
     8b8:	0dc00793          	li	a5,220
     8bc:	00d7cc63          	blt	a5,a3,8d4 <user_input_task+0x82>
     8c0:	c941d783          	lhu	a5,-876(gp) # 20000090 <g_rotary_encoder_clicks>
     8c4:	07c2                	slli	a5,a5,0x10
     8c6:	87c1                	srai	a5,a5,0x10
     8c8:	00279693          	slli	a3,a5,0x2
     8cc:	97b6                	add	a5,a5,a3
     8ce:	9796                	add	a5,a5,t0
     8d0:	07c2                	slli	a5,a5,0x10
     8d2:	87c1                	srai	a5,a5,0x10
     8d4:	c4f19c23          	sh	a5,-936(gp) # 20000054 <g_target_temperature>
			if(button_pressed)
     8d8:	d14d                	beqz	a0,87a <user_input_task+0x28>
				if(g_system_state == SYSTEM_STATE_HEATER_DISABLED)
     8da:	4785                	li	a5,1
     8dc:	4689                	li	a3,2
     8de:	00f59563          	bne	a1,a5,8e8 <user_input_task+0x96>
					g_system_state = SYSTEM_STATE_HEATER_ENABLED;
     8e2:	cad1a623          	sw	a3,-852(gp) # 200000a8 <g_system_state>
     8e6:	bf51                	j	87a <user_input_task+0x28>
				} else if(g_system_state == SYSTEM_STATE_HEATER_ENABLED) {
     8e8:	f8d599e3          	bne	a1,a3,87a <user_input_task+0x28>
					g_system_state = SYSTEM_STATE_HEATER_DISABLED;
     8ec:	caf1a623          	sw	a5,-852(gp) # 200000a8 <g_system_state>
     8f0:	b769                	j	87a <user_input_task+0x28>

000008f2 <pid_heater_task>:
{
     8f2:	1111                	addi	sp,sp,-28
inline uint16_t gpio_analog_read(const GPIO_ANALOG_CHANNEL chan)
{
	// Set rule channel conversion for single conversion on passed channel
	// GPIO_ADC1->RSQR1 = 0;
	// GPIO_ADC1->RSQR2 = 0;
	GPIO_ADC1->RSQR3 = (uint32_t)chan;
     8f4:	400127b7          	lui	a5,0x40012
     8f8:	40078793          	addi	a5,a5,1024 # 40012400 <_eusrstack+0x20011c00>
     8fc:	cc06                	sw	ra,24(sp)
     8fe:	ca22                	sw	s0,20(sp)
     900:	c826                	sw	s1,16(sp)
     902:	4715                	li	a4,5
     904:	dbd8                	sw	a4,52(a5)

	GPIO_ADC1->CTLR2 |= ADC_SWSTART;
     906:	4798                	lw	a4,8(a5)
     908:	004006b7          	lui	a3,0x400
     90c:	8f55                	or	a4,a4,a3
     90e:	c798                	sw	a4,8(a5)
	while(!(GPIO_ADC1->STATR & ADC_EOC));
     910:	4398                	lw	a4,0(a5)
     912:	8b09                	andi	a4,a4,2
     914:	df75                	beqz	a4,910 <pid_heater_task+0x1e>

	// Get the resulting data from the ADC
	return GPIO_ADC1->RDATAR;
     916:	47e8                	lw	a0,76(a5)
static uint16_t thermistor_adc_to_temp(const uint16_t adc)
{
	const size_t therm_max_index = THERMISTOR_PAIR_ENTRIES - 1;
	
	// Cap the Upper and Lower Bounds
	if(adc >= thermistor_pair[0].adc)
     918:	3f000713          	li	a4,1008
		return thermistor_pair[0].temp_c;
     91c:	4781                	li	a5,0
     91e:	0542                	slli	a0,a0,0x10
     920:	8141                	srli	a0,a0,0x10
	if(adc >= thermistor_pair[0].adc)
     922:	06a76063          	bltu	a4,a0,982 <pid_heater_task+0x90>
	
	if(adc <= thermistor_pair[therm_max_index].adc)
     926:	02500713          	li	a4,37
		return thermistor_pair[therm_max_index].temp_c;
     92a:	12c00793          	li	a5,300
	if(adc <= thermistor_pair[therm_max_index].adc)
     92e:	04a77a63          	bgeu	a4,a0,982 <pid_heater_task+0x90>
     932:	6709                	lui	a4,0x2
     934:	d3470593          	addi	a1,a4,-716 # 1d34 <thermistor_pair>
     938:	3f100493          	li	s1,1009


	// Find the LUT ADC Range
	for(size_t ti = 0; ti < therm_max_index; ti++)
     93c:	4781                	li	a5,0
     93e:	d3470713          	addi	a4,a4,-716
     942:	04b00313          	li	t1,75
	{
		// Get the Current and Next ADC Values in the pair table.
		uint16_t adc0  = thermistor_pair[ti].adc;
		uint16_t adc1  = thermistor_pair[ti + 1].adc;
     946:	8626                	mv	a2,s1
     948:	86be                	mv	a3,a5
     94a:	0065d483          	lhu	s1,6(a1)
     94e:	0785                	addi	a5,a5,1

		// ADC Values Decrease as temperature rises. Check if adc input is within
		// the current check range
		if(adc <= adc0 && adc >= adc1)
     950:	0ca66e63          	bltu	a2,a0,a2c <pid_heater_task+0x13a>
     954:	0c956c63          	bltu	a0,s1,a2c <pid_heater_task+0x13a>
		{
			// Get Current and Next Temp values in the pair table
			uint16_t temp0 = thermistor_pair[ti].temp_c;
     958:	068a                	slli	a3,a3,0x2
			uint16_t temp1 = thermistor_pair[ti + 1].temp_c;
     95a:	078a                	slli	a5,a5,0x2
     95c:	97ba                	add	a5,a5,a4
			uint16_t temp0 = thermistor_pair[ti].temp_c;
     95e:	96ba                	add	a3,a3,a4
     960:	0006d403          	lhu	s0,0(a3) # 400000 <sysinit.c.f98e60a8+0x3f96f8>

			// Linear Interpolation. ADC Decreases with Temperature Rise:
			uint32_t delta_adc   = adc0 - adc;
			uint32_t span_adc    = adc0 - adc1;
			uint32_t delta_temp  = temp1 - temp0;
     964:	0007d583          	lhu	a1,0(a5)

			return temp0 + (delta_adc * delta_temp) / span_adc;
     968:	40a60533          	sub	a0,a2,a0
     96c:	c032                	sw	a2,0(sp)
     96e:	8d81                	sub	a1,a1,s0
     970:	3e55                	jal	524 <__mulsi3>
     972:	4602                	lw	a2,0(sp)
     974:	409605b3          	sub	a1,a2,s1
     978:	36f1                	jal	544 <__hidden___udivsi3>
     97a:	00a407b3          	add	a5,s0,a0
     97e:	07c2                	slli	a5,a5,0x10
     980:	83c1                	srli	a5,a5,0x10
	g_actual_temperature = thermistor_adc_to_temp(thermistor_adc);
     982:	07c2                	slli	a5,a5,0x10
     984:	87c1                	srai	a5,a5,0x10
     986:	c8f19923          	sh	a5,-878(gp) # 2000008e <g_actual_temperature>
	int32_t heater_pwm = pid_calculate(&heater_pid, g_actual_temperature, g_target_temperature);
     98a:	c5819283          	lh	t0,-936(gp) # 20000054 <g_target_temperature>
int32_t pid_calculate(pid_ctrl_t *pid, const int32_t pv, const int32_t sp)
{
	if(pid == NULL) return 0;

	// Calculate the current Error and Derivative
	int32_t error = sp - pv;
     98e:	40f284b3          	sub	s1,t0,a5
	int32_t derivative = error - pid->_prev_error;
     992:	c0418793          	addi	a5,gp,-1020 # 20000000 <heater_pid>
     996:	5398                	lw	a4,32(a5)
     998:	c0418413          	addi	s0,gp,-1020 # 20000000 <heater_pid>
     99c:	40e48733          	sub	a4,s1,a4
     9a0:	c03a                	sw	a4,0(sp)

	// Prevent Integral Windup by clamping
	pid->_integral = CLAMP_MIN_MAX(pid->_integral, -pid->_iclamp, pid->_iclamp);
     9a2:	4f98                	lw	a4,24(a5)
     9a4:	4fdc                	lw	a5,28(a5)
     9a6:	40f00333          	neg	t1,a5
     9aa:	00674663          	blt	a4,t1,9b6 <pid_heater_task+0xc4>
     9ae:	833a                	mv	t1,a4
     9b0:	00e7d363          	bge	a5,a4,9b6 <pid_heater_task+0xc4>
     9b4:	833e                	mv	t1,a5
	//if(pid->_integral >  pid->_iclamp)   pid->_integral =  pid->_iclamp;
	//if(pid->_integral < -pid->_iclamp)   pid->_integral = -pid->_iclamp;


	int64_t P = (int32_t)pid->Kp * error;
     9b6:	400c                	lw	a1,0(s0)
	pid->_integral = CLAMP_MIN_MAX(pid->_integral, -pid->_iclamp, pid->_iclamp);
     9b8:	00642c23          	sw	t1,24(s0)
	int64_t P = (int32_t)pid->Kp * error;
     9bc:	8526                	mv	a0,s1
	pid->_integral = CLAMP_MIN_MAX(pid->_integral, -pid->_iclamp, pid->_iclamp);
     9be:	c61a                	sw	t1,12(sp)
	int64_t P = (int32_t)pid->Kp * error;
     9c0:	3695                	jal	524 <__mulsi3>
	int64_t I = (int32_t)pid->Ki * pid->_integral;
     9c2:	4332                	lw	t1,12(sp)
     9c4:	404c                	lw	a1,4(s0)
	int64_t P = (int32_t)pid->Kp * error;
     9c6:	41f55693          	srai	a3,a0,0x1f
     9ca:	c42a                	sw	a0,8(sp)
	int64_t I = (int32_t)pid->Ki * pid->_integral;
     9cc:	851a                	mv	a0,t1
	int64_t P = (int32_t)pid->Kp * error;
     9ce:	c236                	sw	a3,4(sp)
	int64_t I = (int32_t)pid->Ki * pid->_integral;
     9d0:	3e91                	jal	524 <__mulsi3>
	int64_t D = (int32_t)pid->Kd * derivative;
	// Add the PID values, then scale to preserve resolution of intagers
	int32_t cv = (int64_t)(P + I + D) / pid->scale;
     9d2:	47a2                	lw	a5,8(sp)
     9d4:	4692                	lw	a3,4(sp)
	int64_t I = (int32_t)pid->Ki * pid->_integral;
     9d6:	41f55613          	srai	a2,a0,0x1f
	int32_t cv = (int64_t)(P + I + D) / pid->scale;
     9da:	00a78733          	add	a4,a5,a0
	int64_t D = (int32_t)pid->Kd * derivative;
     9de:	440c                	lw	a1,8(s0)
     9e0:	4502                	lw	a0,0(sp)
	int32_t cv = (int64_t)(P + I + D) / pid->scale;
     9e2:	96b2                	add	a3,a3,a2
     9e4:	00f737b3          	sltu	a5,a4,a5
     9e8:	97b6                	add	a5,a5,a3
     9ea:	c43a                	sw	a4,8(sp)
     9ec:	c23e                	sw	a5,4(sp)
	int64_t D = (int32_t)pid->Kd * derivative;
     9ee:	3e1d                	jal	524 <__mulsi3>
	int32_t cv = (int64_t)(P + I + D) / pid->scale;
     9f0:	4722                	lw	a4,8(sp)
     9f2:	4792                	lw	a5,4(sp)
     9f4:	4450                	lw	a2,12(s0)
	int64_t D = (int32_t)pid->Kd * derivative;
     9f6:	41f55693          	srai	a3,a0,0x1f
	int32_t cv = (int64_t)(P + I + D) / pid->scale;
     9fa:	953a                	add	a0,a0,a4
     9fc:	00d785b3          	add	a1,a5,a3
     a00:	00e53733          	sltu	a4,a0,a4
     a04:	95ba                	add	a1,a1,a4
     a06:	41f65693          	srai	a3,a2,0x1f
     a0a:	e96ff0ef          	jal	a0 <__divdi3>

	// Only accumulate the integration value if the output is not in saturation
	if(cv <= pid->out_max && cv >= pid->out_min)    pid->_integral += error;
     a0e:	4858                	lw	a4,20(s0)
     a10:	481c                	lw	a5,16(s0)
     a12:	02a74263          	blt	a4,a0,a36 <pid_heater_task+0x144>
     a16:	02f54263          	blt	a0,a5,a3a <pid_heater_task+0x148>
     a1a:	4332                	lw	t1,12(sp)
     a1c:	9326                	add	t1,t1,s1
     a1e:	00642c23          	sw	t1,24(s0)
	
	// Clamp the CV Output to the min/max
	cv = CLAMP_MIN_MAX(cv, pid->out_min, pid->out_max);
     a22:	87aa                	mv	a5,a0
     a24:	00a75b63          	bge	a4,a0,a3a <pid_heater_task+0x148>
     a28:	87ba                	mv	a5,a4
     a2a:	a801                	j	a3a <pid_heater_task+0x148>
	for(size_t ti = 0; ti < therm_max_index; ti++)
     a2c:	0591                	addi	a1,a1,4
     a2e:	f0679ce3          	bne	a5,t1,946 <pid_heater_task+0x54>
		return thermistor_pair[0].temp_c;
     a32:	4781                	li	a5,0
     a34:	b7b9                	j	982 <pid_heater_task+0x90>
     a36:	fef556e3          	bge	a0,a5,a22 <pid_heater_task+0x130>
	if(g_system_state != SYSTEM_STATE_HEATER_ENABLED) 
     a3a:	cac1a683          	lw	a3,-852(gp) # 200000a8 <g_system_state>

	// Update the previous error for derivative
	pid->_prev_error = error;
     a3e:	d004                	sw	s1,32(s0)
     a40:	4709                	li	a4,2
     a42:	00e68363          	beq	a3,a4,a48 <pid_heater_task+0x156>
		heater_pwm = 0x00;
     a46:	4781                	li	a5,0
}
     a48:	40e2                	lw	ra,24(sp)
     a4a:	4452                	lw	s0,20(sp)
	pwm_set_duty(PWM_CHANNEL_HEATER, (uint8_t)heater_pwm);
     a4c:	0ff7f793          	zext.b	a5,a5
	*tim_ptr[ch] = duty;
     a50:	40000737          	lui	a4,0x40000
     a54:	df5c                	sw	a5,60(a4)
}
     a56:	44c2                	lw	s1,16(sp)
     a58:	0171                	addi	sp,sp,28
     a5a:	8082                	ret

00000a5c <battery_check_task>:
{
     a5c:	1101                	addi	sp,sp,-32
     a5e:	ca26                	sw	s1,20(sp)
	GPIO_ADC1->RSQR3 = (uint32_t)chan;
     a60:	400124b7          	lui	s1,0x40012
     a64:	40048493          	addi	s1,s1,1024 # 40012400 <_eusrstack+0x20011c00>
     a68:	ce06                	sw	ra,28(sp)
     a6a:	cc22                	sw	s0,24(sp)
     a6c:	47a1                	li	a5,8
     a6e:	d8dc                	sw	a5,52(s1)
	GPIO_ADC1->CTLR2 |= ADC_SWSTART;
     a70:	449c                	lw	a5,8(s1)
     a72:	00400737          	lui	a4,0x400
     a76:	8fd9                	or	a5,a5,a4
     a78:	c49c                	sw	a5,8(s1)
	while(!(GPIO_ADC1->STATR & ADC_EOC));
     a7a:	409c                	lw	a5,0(s1)
     a7c:	8b89                	andi	a5,a5,2
     a7e:	dff5                	beqz	a5,a7a <battery_check_task+0x1e>
	return GPIO_ADC1->RDATAR;
     a80:	44ec                	lw	a1,76(s1)
uint16_t gpio_read_system_mv(void)
{
	// Get the raw ADC Value for the VREF - shift by 10 (*1024),
	// then divide it by the ADC maximum.
	// This is the VREF Multiplier
	uint32_t vref_multiplier = ((uint32_t)GPIO_ADC_MAXIMUM << 10) / gpio_analog_read(GPIO_ADC_VREF);
     a82:	00100537          	lui	a0,0x100
     a86:	c0050513          	addi	a0,a0,-1024 # ffc00 <sysinit.c.f98e60a8+0xf92f8>
     a8a:	05c2                	slli	a1,a1,0x10
     a8c:	81c1                	srli	a1,a1,0x10
     a8e:	3c5d                	jal	544 <__hidden___udivsi3>

	// The mV value is equal to the ADC_VREF Millivolts, multiplied by the VREF
	// Multiplier, then shifted by 10 (/1024) to scale back down to mV
	return (GPIO_ADC_REF_MV * vref_multiplier) >> 10;
     a90:	00251793          	slli	a5,a0,0x2
     a94:	953e                	add	a0,a0,a5
	GPIO_ADC1->RSQR3 = (uint32_t)chan;
     a96:	4799                	li	a5,6
     a98:	d8dc                	sw	a5,52(s1)
	GPIO_ADC1->CTLR2 |= ADC_SWSTART;
     a9a:	449c                	lw	a5,8(s1)
	return (GPIO_ADC_REF_MV * vref_multiplier) >> 10;
     a9c:	00451413          	slli	s0,a0,0x4
	GPIO_ADC1->CTLR2 |= ADC_SWSTART;
     aa0:	00400737          	lui	a4,0x400
     aa4:	8fd9                	or	a5,a5,a4
	return (GPIO_ADC_REF_MV * vref_multiplier) >> 10;
     aa6:	8c09                	sub	s0,s0,a0
     aa8:	0412                	slli	s0,s0,0x4
	GPIO_ADC1->CTLR2 |= ADC_SWSTART;
     aaa:	c49c                	sw	a5,8(s1)
	while(!(GPIO_ADC1->STATR & ADC_EOC));
     aac:	400127b7          	lui	a5,0x40012
	return (GPIO_ADC_REF_MV * vref_multiplier) >> 10;
     ab0:	8029                	srli	s0,s0,0xa
	while(!(GPIO_ADC1->STATR & ADC_EOC));
     ab2:	40078793          	addi	a5,a5,1024 # 40012400 <_eusrstack+0x20011c00>
     ab6:	4398                	lw	a4,0(a5)
     ab8:	8b09                	andi	a4,a4,2
     aba:	df75                	beqz	a4,ab6 <battery_check_task+0x5a>
	return GPIO_ADC1->RDATAR;
     abc:	47e4                	lw	s1,76(a5)
	// The Voltage Divider is 33K || 8K2, to get the inverse of the divider ratio:
	//  R2      /     (R1    +    R2)
	// 8K2      /     (33K   +   8K2)
	// (Invert)
	// 41K2     /      8K2         = 5.024
	uint32_t scaled_mv = ((uint32_t)system_mv * 5024) / 1000;
     abe:	01041793          	slli	a5,s0,0x10
     ac2:	83c1                	srli	a5,a5,0x10
     ac4:	6585                	lui	a1,0x1
     ac6:	853e                	mv	a0,a5
     ac8:	3a058593          	addi	a1,a1,928 # 13a0 <mini_vpprintf+0x1b4>
     acc:	c23e                	sw	a5,4(sp)
     ace:	3c99                	jal	524 <__mulsi3>
     ad0:	3e800593          	li	a1,1000
     ad4:	3c85                	jal	544 <__hidden___udivsi3>
	return ((uint32_t)battery_adc * scaled_mv) / ADC_MAXIMUM;
     ad6:	01049593          	slli	a1,s1,0x10
     ada:	81c1                	srli	a1,a1,0x10
     adc:	34a1                	jal	524 <__mulsi3>
     ade:	3ff00593          	li	a1,1023
     ae2:	348d                	jal	544 <__hidden___udivsi3>
     ae4:	01051413          	slli	s0,a0,0x10
     ae8:	8041                	srli	s0,s0,0x10
	g_battery_voltage_mv = battery_read_mv(system_mv);
     aea:	c8819823          	sh	s0,-880(gp) # 2000008c <g_battery_voltage_mv>
}


uint8_t battery_calc_battery_percent(const uint16_t vbatt)
{
	if(vbatt >= BATTERY_FULL_MV)    return 100;
     aee:	6795                	lui	a5,0x5
     af0:	20778793          	addi	a5,a5,519 # 5207 <lib_gpioctrl.c.9b7c6186+0x351>
     af4:	06400513          	li	a0,100
     af8:	0287e663          	bltu	a5,s0,b24 <battery_check_task+0xc8>
	if(vbatt <= BATTERY_EMPTY_MV)   return 0;
     afc:	6791                	lui	a5,0x4
     afe:	a9878793          	addi	a5,a5,-1384 # 3a98 <tcrhmag.c.be759947+0x1e0>
     b02:	4501                	li	a0,0
     b04:	0287f063          	bgeu	a5,s0,b24 <battery_check_task+0xc8>

	uint32_t diff_scaled = (vbatt - BATTERY_EMPTY_MV) * 100;
     b08:	40f407b3          	sub	a5,s0,a5
     b0c:	00179513          	slli	a0,a5,0x1
     b10:	953e                	add	a0,a0,a5
     b12:	050e                	slli	a0,a0,0x3
     b14:	953e                	add	a0,a0,a5
	return (diff_scaled / (BATTERY_FULL_MV - BATTERY_EMPTY_MV));
     b16:	6585                	lui	a1,0x1
     b18:	77058593          	addi	a1,a1,1904 # 1770 <main+0x4>
     b1c:	050a                	slli	a0,a0,0x2
     b1e:	341d                	jal	544 <__hidden___udivsi3>
     b20:	0ff57513          	zext.b	a0,a0
	g_battery_percentage = battery_calc_battery_percent(g_battery_voltage_mv);
     b24:	c8a18723          	sb	a0,-882(gp) # 2000008a <g_battery_percentage>
	rolling_sum -= _average_current_buffer[average_index];
     b28:	c841c783          	lbu	a5,-892(gp) # 20000080 <average_index.0>
     b2c:	c03e                	sw	a5,0(sp)
     b2e:	4702                	lw	a4,0(sp)
     b30:	cb018793          	addi	a5,gp,-848 # 200000ac <_average_current_buffer>
     b34:	c881a603          	lw	a2,-888(gp) # 20000084 <rolling_sum.1>
     b38:	0706                	slli	a4,a4,0x1
     b3a:	97ba                	add	a5,a5,a4
     b3c:	0007d783          	lhu	a5,0(a5)
     b40:	c43a                	sw	a4,8(sp)
	GPIO_ADC1->CTLR2 |= ADC_SWSTART;
     b42:	00400537          	lui	a0,0x400
     b46:	40f607b3          	sub	a5,a2,a5
     b4a:	c63e                	sw	a5,12(sp)
	GPIO_ADC1->RSQR3 = (uint32_t)chan;
     b4c:	400127b7          	lui	a5,0x40012
     b50:	40078793          	addi	a5,a5,1024 # 40012400 <_eusrstack+0x20011c00>
     b54:	461d                	li	a2,7
     b56:	dbd0                	sw	a2,52(a5)
	GPIO_ADC1->CTLR2 |= ADC_SWSTART;
     b58:	4790                	lw	a2,8(a5)
     b5a:	cb018713          	addi	a4,gp,-848 # 200000ac <_average_current_buffer>
     b5e:	8e49                	or	a2,a2,a0
     b60:	c790                	sw	a2,8(a5)
	while(!(GPIO_ADC1->STATR & ADC_EOC));
     b62:	c83a                	sw	a4,16(sp)
     b64:	4390                	lw	a2,0(a5)
     b66:	8a09                	andi	a2,a2,2
     b68:	de75                	beqz	a2,b64 <battery_check_task+0x108>
	return GPIO_ADC1->RDATAR;
     b6a:	47fc                	lw	a5,76(a5)
		((gpio_analog_read(OPAMP_ADC_CH) - _opamp_calibration_offset) 
     b6c:	ca219503          	lh	a0,-862(gp) # 2000009e <_opamp_calibration_offset>
		* _opamp_calibration_gain) >> 10;
     b70:	ca019583          	lh	a1,-864(gp) # 2000009c <_opamp_calibration_gain>
		((gpio_analog_read(OPAMP_ADC_CH) - _opamp_calibration_offset) 
     b74:	07c2                	slli	a5,a5,0x10
     b76:	83c1                	srli	a5,a5,0x10
		* _opamp_calibration_gain) >> 10;
     b78:	40a78533          	sub	a0,a5,a0
     b7c:	3265                	jal	524 <__mulsi3>
     b7e:	40a55793          	srai	a5,a0,0xa
	int16_t opamp_calibrated_adc = 
     b82:	853e                	mv	a0,a5
	if(opamp_calibrated_adc > 1023)  opamp_calibrated_adc = 1023;
     b84:	07c2                	slli	a5,a5,0x10
     b86:	87c1                	srai	a5,a5,0x10
     b88:	3ff00613          	li	a2,1023
     b8c:	0af65163          	bge	a2,a5,c2e <battery_check_task+0x1d2>
     b90:	8532                	mv	a0,a2
	uint16_t opamp_mv_raw = ((uint32_t)opamp_calibrated_adc * system_mv) / ADC_MAXIMUM;
     b92:	4592                	lw	a1,4(sp)
     b94:	0542                	slli	a0,a0,0x10
     b96:	8541                	srai	a0,a0,0x10
     b98:	3271                	jal	524 <__mulsi3>
     b9a:	3ff00593          	li	a1,1023
     b9e:	325d                	jal	544 <__hidden___udivsi3>
	uint16_t opamp_ma = ((opamp_mv_raw * 1000) / OPAMP_SENSE_MILLOHM) >> OPAMP_GAIN_SHIFT;
     ba0:	00551793          	slli	a5,a0,0x5
     ba4:	8f89                	sub	a5,a5,a0
     ba6:	078a                	slli	a5,a5,0x2
     ba8:	953e                	add	a0,a0,a5
     baa:	02500593          	li	a1,37
     bae:	050e                	slli	a0,a0,0x3
     bb0:	3271                	jal	53c <__divsi3>
	_average_current_buffer[average_index] = opamp_read_rsense_ma(system_mv);
     bb2:	4742                	lw	a4,16(sp)
     bb4:	46a2                	lw	a3,8(sp)
	uint16_t opamp_ma = ((opamp_mv_raw * 1000) / OPAMP_SENSE_MILLOHM) >> OPAMP_GAIN_SHIFT;
     bb6:	40455793          	srai	a5,a0,0x4
	_average_current_buffer[average_index] = opamp_read_rsense_ma(system_mv);
     bba:	00d70633          	add	a2,a4,a3
	rolling_sum += _average_current_buffer[average_index];
     bbe:	4732                	lw	a4,12(sp)
	uint16_t opamp_ma = ((opamp_mv_raw * 1000) / OPAMP_SENSE_MILLOHM) >> OPAMP_GAIN_SHIFT;
     bc0:	00f61023          	sh	a5,0(a2)
	rolling_sum += _average_current_buffer[average_index];
     bc4:	07c2                	slli	a5,a5,0x10
     bc6:	83c1                	srli	a5,a5,0x10
     bc8:	97ba                	add	a5,a5,a4
	average_index = (average_index + 1) & (AVG_SAMPLES - 1);
     bca:	4702                	lw	a4,0(sp)
	rolling_sum += _average_current_buffer[average_index];
     bcc:	c8f1a423          	sw	a5,-888(gp) # 20000084 <rolling_sum.1>
	return (uint16_t)(rolling_sum >> AVG_DIV_SHIFT);
     bd0:	838d                	srli	a5,a5,0x3
	average_index = (average_index + 1) & (AVG_SAMPLES - 1);
     bd2:	00170693          	addi	a3,a4,1 # 400001 <sysinit.c.f98e60a8+0x3f96f9>
     bd6:	8a9d                	andi	a3,a3,7
	return (uint16_t)(rolling_sum >> AVG_DIV_SHIFT);
     bd8:	07c2                	slli	a5,a5,0x10
	average_index = (average_index + 1) & (AVG_SAMPLES - 1);
     bda:	c8d18223          	sb	a3,-892(gp) # 20000080 <average_index.0>
	return (uint16_t)(rolling_sum >> AVG_DIV_SHIFT);
     bde:	83c1                	srli	a5,a5,0x10
	if(!voltage_fault && !current_fault)
     be0:	6611                	lui	a2,0x4
	g_battery_current_ma = battery_read_average_ma(system_mv);
     be2:	c8f19623          	sh	a5,-884(gp) # 20000088 <g_battery_current_ma>
	if(!voltage_fault && !current_fault)
     be6:	a9860613          	addi	a2,a2,-1384 # 3a98 <tcrhmag.c.be759947+0x1e0>
     bea:	00867a63          	bgeu	a2,s0,bfe <battery_check_task+0x1a2>
     bee:	6605                	lui	a2,0x1
     bf0:	57b60613          	addi	a2,a2,1403 # 157b <display_update_task+0xbd>
     bf4:	00f66563          	bltu	a2,a5,bfe <battery_check_task+0x1a2>
		error_ticks = 10;
     bf8:	47a9                	li	a5,10
     bfa:	c4f18b23          	sb	a5,-938(gp) # 20000052 <error_ticks.7>
	if(--error_ticks == 0)
     bfe:	c561c783          	lbu	a5,-938(gp) # 20000052 <error_ticks.7>
     c02:	17fd                	addi	a5,a5,-1
     c04:	0ff7f793          	zext.b	a5,a5
     c08:	c4f18b23          	sb	a5,-938(gp) # 20000052 <error_ticks.7>
     c0c:	ef81                	bnez	a5,c24 <battery_check_task+0x1c8>
		g_system_state = voltage_fault ? SYSTEM_STATE_ERROR_UNDERVOLTAGE :
     c0e:	6791                	lui	a5,0x4
     c10:	a9878793          	addi	a5,a5,-1384 # 3a98 <tcrhmag.c.be759947+0x1e0>
     c14:	0287e363          	bltu	a5,s0,c3a <battery_check_task+0x1de>
     c18:	470d                	li	a4,3
		g_user_input_mode = voltage_fault ? UI_MODE_ERROR_UNDERVOLTAGE :
     c1a:	4795                	li	a5,5
     c1c:	cae1a623          	sw	a4,-852(gp) # 200000a8 <g_system_state>
     c20:	c6f1a223          	sw	a5,-924(gp) # 20000060 <g_user_input_mode>
}
     c24:	40f2                	lw	ra,28(sp)
     c26:	4462                	lw	s0,24(sp)
     c28:	44d2                	lw	s1,20(sp)
     c2a:	6105                	addi	sp,sp,32
     c2c:	8082                	ret
	if(opamp_calibrated_adc < 0)     opamp_calibrated_adc = 0;
     c2e:	01051793          	slli	a5,a0,0x10
     c32:	f607d0e3          	bgez	a5,b92 <battery_check_task+0x136>
     c36:	4501                	li	a0,0
     c38:	bfa9                	j	b92 <battery_check_task+0x136>
		g_system_state = voltage_fault ? SYSTEM_STATE_ERROR_UNDERVOLTAGE :
     c3a:	4711                	li	a4,4
		g_user_input_mode = voltage_fault ? UI_MODE_ERROR_UNDERVOLTAGE :
     c3c:	4799                	li	a5,6
     c3e:	bff9                	j	c1c <battery_check_task+0x1c0>

00000c40 <gpio_set_mode>:
	GPIO_RCC->APB2PCENR |= (RCC_APB2PCENR_AFIO | (RCC_APB2PCENR_IOPxEN << byte[0]));
     c40:	400216b7          	lui	a3,0x40021
     c44:	4e90                	lw	a2,24(a3)
     c46:	4791                	li	a5,4
     c48:	00a797b3          	sll	a5,a5,a0
     c4c:	8fd1                	or	a5,a5,a2
     c4e:	0017e793          	ori	a5,a5,1
     c52:	ce9c                	sw	a5,24(a3)
     c54:	0ff57713          	zext.b	a4,a0
	GPIO_PORT_MAP[ byte[0] ]->CFGLR &=        ~(0x0F  << (4 * byte[1]));
     c58:	6789                	lui	a5,0x2
     c5a:	070a                	slli	a4,a4,0x2
     c5c:	41878793          	addi	a5,a5,1048 # 2418 <GPIO_PORT_MAP>
     c60:	97ba                	add	a5,a5,a4
     c62:	4398                	lw	a4,0(a5)
     c64:	8121                	srli	a0,a0,0x8
     c66:	0ff57513          	zext.b	a0,a0
     c6a:	4310                	lw	a2,0(a4)
     c6c:	00251693          	slli	a3,a0,0x2
     c70:	47bd                	li	a5,15
     c72:	00d797b3          	sll	a5,a5,a3
     c76:	fff7c793          	not	a5,a5
     c7a:	8ff1                	and	a5,a5,a2
     c7c:	c31c                	sw	a5,0(a4)
	GPIO_PORT_MAP[ byte[0] ]->CFGLR |=  (mode & 0x0F) << (4 * byte[1]);
     c7e:	4310                	lw	a2,0(a4)
     c80:	00f5f793          	andi	a5,a1,15
     c84:	00d797b3          	sll	a5,a5,a3
     c88:	8fd1                	or	a5,a5,a2
     c8a:	c31c                	sw	a5,0(a4)
	if(mode == INPUT_PULLUP || mode == INPUT_PULLDOWN)
     c8c:	47e1                	li	a5,24
     c8e:	00f59663          	bne	a1,a5,c9a <gpio_set_mode+0x5a>
	uint32_t mask = 0x01 << byte[1];          // Shift by pin number
     c92:	4785                	li	a5,1
     c94:	00a797b3          	sll	a5,a5,a0
	GPIO_PORT_MAP[ byte[0] ]->BSHR = mask;
     c98:	cb1c                	sw	a5,16(a4)
}
     c9a:	8082                	ret

00000c9c <i2c_error>:
/// the bit flags
/// @param none
/// @return i2c_err_t error value
static inline i2c_err_t i2c_error(void)
{
	if(I2C1->STAR1 & I2C_STAR1_BERR)  {I2C1->STAR1 &= ~I2C_STAR1_BERR;  return I2C_ERR_BERR;}
     c9c:	400057b7          	lui	a5,0x40005
     ca0:	4147d703          	lhu	a4,1044(a5) # 40005414 <_eusrstack+0x20004c14>
     ca4:	40078793          	addi	a5,a5,1024
     ca8:	10077713          	andi	a4,a4,256
     cac:	cb19                	beqz	a4,cc2 <i2c_error+0x26>
     cae:	0147d703          	lhu	a4,20(a5)
     cb2:	66c1                	lui	a3,0x10
     cb4:	eff68693          	addi	a3,a3,-257 # feff <sysinit.c.f98e60a8+0x95f7>
     cb8:	8f75                	and	a4,a4,a3
     cba:	00e79a23          	sh	a4,20(a5)
     cbe:	4505                	li	a0,1
     cc0:	8082                	ret
	if(I2C1->STAR1 & I2C_STAR1_AF)    {I2C1->STAR1 &= ~I2C_STAR1_AF;    return I2C_ERR_NACK;}
     cc2:	0147d703          	lhu	a4,20(a5)
     cc6:	40077713          	andi	a4,a4,1024
     cca:	cb19                	beqz	a4,ce0 <i2c_error+0x44>
     ccc:	0147d703          	lhu	a4,20(a5)
     cd0:	66c1                	lui	a3,0x10
     cd2:	bff68693          	addi	a3,a3,-1025 # fbff <sysinit.c.f98e60a8+0x92f7>
     cd6:	8f75                	and	a4,a4,a3
     cd8:	00e79a23          	sh	a4,20(a5)
     cdc:	4509                	li	a0,2
     cde:	8082                	ret
	if(I2C1->STAR1 & I2C_STAR1_ARLO)  {I2C1->STAR1 &= ~I2C_STAR1_ARLO;  return I2C_ERR_ARLO;}
     ce0:	0147d703          	lhu	a4,20(a5)
     ce4:	20077713          	andi	a4,a4,512
     ce8:	cb19                	beqz	a4,cfe <i2c_error+0x62>
     cea:	0147d703          	lhu	a4,20(a5)
     cee:	66c1                	lui	a3,0x10
     cf0:	dff68693          	addi	a3,a3,-513 # fdff <sysinit.c.f98e60a8+0x94f7>
     cf4:	8f75                	and	a4,a4,a3
     cf6:	00e79a23          	sh	a4,20(a5)
     cfa:	450d                	li	a0,3
     cfc:	8082                	ret
	if(I2C1->STAR1 & I2C_STAR1_OVR)   {I2C1->STAR1 &= ~I2C_STAR1_OVR;   return I2C_ERR_OVR;}
     cfe:	0147d703          	lhu	a4,20(a5)

	return I2C_OK;
     d02:	4501                	li	a0,0
	if(I2C1->STAR1 & I2C_STAR1_OVR)   {I2C1->STAR1 &= ~I2C_STAR1_OVR;   return I2C_ERR_OVR;}
     d04:	01471693          	slli	a3,a4,0x14
     d08:	0006db63          	bgez	a3,d1e <i2c_error+0x82>
     d0c:	0147d703          	lhu	a4,20(a5)
     d10:	76fd                	lui	a3,0xfffff
     d12:	7ff68693          	addi	a3,a3,2047 # fffff7ff <_eusrstack+0xdfffefff>
     d16:	8f75                	and	a4,a4,a3
     d18:	00e79a23          	sh	a4,20(a5)
     d1c:	4511                	li	a0,4
}
     d1e:	8082                	ret

00000d20 <gpio_set_opamp_inputs.constprop.0>:
		(GPIO_EXTEN->EXTEN_CTR & ~GPIO_EXTEN_OPA_PSEL) |
     d20:	400247b7          	lui	a5,0x40024
     d24:	80078793          	addi	a5,a5,-2048 # 40023800 <_eusrstack+0x20023000>
     d28:	4398                	lw	a4,0(a5)
     d2a:	fffc06b7          	lui	a3,0xfffc0
     d2e:	16fd                	addi	a3,a3,-1 # fffbffff <_eusrstack+0xdffbf7ff>
     d30:	8f75                	and	a4,a4,a3
		((pos == GPIO_OPAMP_CH2_POS) ? GPIO_EXTEN_OPA_PSEL : 0);
     d32:	054a                	slli	a0,a0,0x12
		(GPIO_EXTEN->EXTEN_CTR & ~GPIO_EXTEN_OPA_PSEL) |
     d34:	8f49                	or	a4,a4,a0
	GPIO_EXTEN->EXTEN_CTR =
     d36:	c398                	sw	a4,0(a5)
		(GPIO_EXTEN->EXTEN_CTR & ~GPIO_EXTEN_OPA_NSEL) |
     d38:	4398                	lw	a4,0(a5)
     d3a:	7681                	lui	a3,0xfffe0
     d3c:	16fd                	addi	a3,a3,-1 # fffdffff <_eusrstack+0xdffdf7ff>
     d3e:	8f75                	and	a4,a4,a3
	GPIO_EXTEN->EXTEN_CTR =
     d40:	c398                	sw	a4,0(a5)
}
     d42:	8082                	ret

00000d44 <internal_handle_input.constprop.0>:
	uint32_t dmd0 = *dmdata0;
     d44:	e00007b7          	lui	a5,0xe0000
     d48:	0f47a783          	lw	a5,244(a5) # e00000f4 <_eusrstack+0xbffff8f4>
}
     d4c:	8082                	ret

00000d4e <_write.constprop.0>:
	if( ( *DMDATA0 & 0xc0 ) == 0xc0 ) return 0;
     d4e:	e00007b7          	lui	a5,0xe0000
     d52:	0f478793          	addi	a5,a5,244 # e00000f4 <_eusrstack+0xbffff8f4>
     d56:	4398                	lw	a4,0(a5)
WEAK int _write(int fd, const char *buf, int size)
     d58:	1121                	addi	sp,sp,-24
     d5a:	ca06                	sw	ra,20(sp)
     d5c:	c822                	sw	s0,16(sp)
     d5e:	c626                	sw	s1,12(sp)
	if( ( *DMDATA0 & 0xc0 ) == 0xc0 ) return 0;
     d60:	0c077713          	andi	a4,a4,192
     d64:	0c000693          	li	a3,192
     d68:	00d70b63          	beq	a4,a3,d7e <_write.constprop.0+0x30>
	char buffer[4] = { 0 };
     d6c:	c402                	sw	zero,8(sp)
     d6e:	842e                	mv	s0,a1
	if( size == 0 )
     d70:	eddd                	bnez	a1,e2e <_write.constprop.0+0xe0>
		lastdmd = (*DMDATA0);
     d72:	439c                	lw	a5,0(a5)
		if( lastdmd && !(lastdmd&0x80) ) internal_handle_input( (uint32_t*)DMDATA0 );
     d74:	c789                	beqz	a5,d7e <_write.constprop.0+0x30>
     d76:	0807f793          	andi	a5,a5,128
     d7a:	e391                	bnez	a5,d7e <_write.constprop.0+0x30>
     d7c:	37e1                	jal	d44 <internal_handle_input.constprop.0>
	if( ( *DMDATA0 & 0xc0 ) == 0xc0 ) return 0;
     d7e:	4401                	li	s0,0
}
     d80:	40d2                	lw	ra,20(sp)
     d82:	8522                	mv	a0,s0
     d84:	4442                	lw	s0,16(sp)
     d86:	44b2                	lw	s1,12(sp)
     d88:	0161                	addi	sp,sp,24
     d8a:	8082                	ret
		int tosend = size - place;
     d8c:	409407b3          	sub	a5,s0,s1
		if( tosend > 7 ) tosend = 7;
     d90:	471d                	li	a4,7
     d92:	00f75363          	bge	a4,a5,d98 <_write.constprop.0+0x4a>
     d96:	87ba                	mv	a5,a4
     d98:	001006b7          	lui	a3,0x100
		while( ( lastdmd = (*DMDATA0) ) & 0x80 )
     d9c:	e0000737          	lui	a4,0xe0000
		if( tosend > 7 ) tosend = 7;
     da0:	0685                	addi	a3,a3,1 # 100001 <sysinit.c.f98e60a8+0xf96f9>
		while( ( lastdmd = (*DMDATA0) ) & 0x80 )
     da2:	0f470713          	addi	a4,a4,244 # e00000f4 <_eusrstack+0xbffff8f4>
     da6:	4310                	lw	a2,0(a4)
     da8:	08067593          	andi	a1,a2,128
     dac:	e1a5                	bnez	a1,e0c <_write.constprop.0+0xbe>
		if( lastdmd ) internal_handle_input( (uint32_t*)DMDATA0 );
     dae:	c611                	beqz	a2,dba <_write.constprop.0+0x6c>
     db0:	c22a                	sw	a0,4(sp)
     db2:	c03e                	sw	a5,0(sp)
     db4:	3f41                	jal	d44 <internal_handle_input.constprop.0>
     db6:	4512                	lw	a0,4(sp)
     db8:	4782                	lw	a5,0(sp)
     dba:	0034                	addi	a3,sp,8
		if( tosend > 7 ) tosend = 7;
     dbc:	470d                	li	a4,3
     dbe:	85b6                	mv	a1,a3
		while( t < tosend )
     dc0:	04f74d63          	blt	a4,a5,e1a <_write.constprop.0+0xcc>
		*DMDATA1 = *(uint32_t*)&(buffer[0]);
     dc4:	46a2                	lw	a3,8(sp)
     dc6:	e0000737          	lui	a4,0xe0000
		while( t < tosend && t < 3 )
     dca:	460d                	li	a2,3
		*DMDATA1 = *(uint32_t*)&(buffer[0]);
     dcc:	0ed72c23          	sw	a3,248(a4) # e00000f8 <_eusrstack+0xbffff8f8>
     dd0:	009506b3          	add	a3,a0,s1
		t = 0;
     dd4:	4701                	li	a4,0
			buffer[t+1] = buf[t+place];
     dd6:	0006c283          	lbu	t0,0(a3)
     dda:	0705                	addi	a4,a4,1
     ddc:	00e58333          	add	t1,a1,a4
     de0:	00530023          	sb	t0,0(t1)
		while( t < tosend && t < 3 )
     de4:	00e78563          	beq	a5,a4,dee <_write.constprop.0+0xa0>
     de8:	0685                	addi	a3,a3,1
     dea:	fec716e3          	bne	a4,a2,dd6 <_write.constprop.0+0x88>
		buffer[0] = 0x80 | (tosend + 4);
     dee:	00478713          	addi	a4,a5,4
     df2:	f8076713          	ori	a4,a4,-128
     df6:	00e10423          	sb	a4,8(sp)
		*DMDATA0 = *(uint32_t*)&(buffer[0]);
     dfa:	46a2                	lw	a3,8(sp)
     dfc:	e0000737          	lui	a4,0xe0000
		place += tosend;
     e00:	94be                	add	s1,s1,a5
		*DMDATA0 = *(uint32_t*)&(buffer[0]);
     e02:	0ed72a23          	sw	a3,244(a4) # e00000f4 <_eusrstack+0xbffff8f4>
	while( place < size )
     e06:	f884c3e3          	blt	s1,s0,d8c <_write.constprop.0+0x3e>
     e0a:	bf9d                	j	d80 <_write.constprop.0+0x32>
			if( timeout-- == 0 )
     e0c:	16fd                	addi	a3,a3,-1
     e0e:	fec1                	bnez	a3,da6 <_write.constprop.0+0x58>
				*DMDATA0 |= 0xc0;
     e10:	431c                	lw	a5,0(a4)
     e12:	0c07e793          	ori	a5,a5,192
     e16:	c31c                	sw	a5,0(a4)
				return 0;
     e18:	b79d                	j	d7e <_write.constprop.0+0x30>
			buffer[t-3] = buf[t+place];
     e1a:	00e48633          	add	a2,s1,a4
     e1e:	962a                	add	a2,a2,a0
     e20:	00064603          	lbu	a2,0(a2)
			t++;
     e24:	0705                	addi	a4,a4,1
     e26:	0685                	addi	a3,a3,1
			buffer[t-3] = buf[t+place];
     e28:	fec68fa3          	sb	a2,-1(a3)
     e2c:	bf51                	j	dc0 <_write.constprop.0+0x72>
     e2e:	4481                	li	s1,0
     e30:	bfd9                	j	e06 <_write.constprop.0+0xb8>

00000e32 <__puts_uart>:
{
     e32:	1161                	addi	sp,sp,-8
     e34:	c022                	sw	s0,0(sp)
     e36:	c206                	sw	ra,4(sp)
     e38:	842e                	mv	s0,a1
	_write( 0, s, len );
     e3a:	3f11                	jal	d4e <_write.constprop.0>
}
     e3c:	4092                	lw	ra,4(sp)
     e3e:	8522                	mv	a0,s0
     e40:	4402                	lw	s0,0(sp)
     e42:	0121                	addi	sp,sp,8
     e44:	8082                	ret

00000e46 <scheduler_add.isra.0>:

/*** Public API Functions ****************************************************/
uint8_t scheduler_add(void (*task)(void), uint32_t period_ms)
{
	// If the task list if full, return error
	if(task_count >= MAX_SCHEDULER_TASKS) return -1;
     e46:	ca41c703          	lbu	a4,-860(gp) # 200000a0 <task_count>
     e4a:	479d                	li	a5,7
     e4c:	02e7e663          	bltu	a5,a4,e78 <scheduler_add.isra.0+0x32>
	uint8_t uid = current_uid++;
     e50:	c3c1c603          	lbu	a2,-964(gp) # 20000038 <current_uid>
     e54:	00160313          	addi	t1,a2,1
     e58:	c2618e23          	sb	t1,-964(gp) # 20000038 <current_uid>

	tasks[task_count].uid         = uid;
     e5c:	00471313          	slli	t1,a4,0x4
     e60:	0c018793          	addi	a5,gp,192 # 200004bc <tasks>
     e64:	979a                	add	a5,a5,t1
	tasks[task_count].task        = task;
	tasks[task_count].period_ms   = period_ms;
	tasks[task_count].last_ms     = 0;
	
	task_count++;
     e66:	0705                	addi	a4,a4,1
	tasks[task_count].uid         = uid;
     e68:	00c78023          	sb	a2,0(a5)
	tasks[task_count].task        = task;
     e6c:	c3c8                	sw	a0,4(a5)
	tasks[task_count].period_ms   = period_ms;
     e6e:	c78c                	sw	a1,8(a5)
	tasks[task_count].last_ms     = 0;
     e70:	0007a623          	sw	zero,12(a5)
	task_count++;
     e74:	cae18223          	sb	a4,-860(gp) # 200000a0 <task_count>
	return uid;
}
     e78:	8082                	ret

00000e7a <i2c_write_reg>:


i2c_err_t i2c_write_reg(const i2c_device_t *dev,    const uint32_t reg,
                                                    const uint8_t *buf,
                                                    const size_t len)
{
     e7a:	1101                	addi	sp,sp,-32
     e7c:	cc22                	sw	s0,24(sp)
	I2C_TIMEOUT_WAIT_FOR((I2C1->STAR2 & I2C_STAR2_BUSY), i2c_ret);
     e7e:	c981a403          	lw	s0,-872(gp) # 20000094 <_i2c_timeout>
     e82:	400057b7          	lui	a5,0x40005
{
     e86:	ca26                	sw	s1,20(sp)
     e88:	c232                	sw	a2,4(sp)
     e8a:	ce06                	sw	ra,28(sp)
     e8c:	84aa                	mv	s1,a0
     e8e:	c02e                	sw	a1,0(sp)
     e90:	c436                	sw	a3,8(sp)
	I2C_TIMEOUT_WAIT_FOR((I2C1->STAR2 & I2C_STAR2_BUSY), i2c_ret);
     e92:	8622                	mv	a2,s0
     e94:	40078793          	addi	a5,a5,1024 # 40005400 <_eusrstack+0x20004c00>
     e98:	0187d683          	lhu	a3,24(a5)
     e9c:	8a89                	andi	a3,a3,2
     e9e:	e6c1                	bnez	a3,f26 <i2c_write_reg+0xac>
	I2C1->CTLR1 |= I2C_CTLR1_START;
     ea0:	0007d683          	lhu	a3,0(a5)
	return (status & status_mask) == status_mask; 
     ea4:	00030637          	lui	a2,0x30
     ea8:	0605                	addi	a2,a2,1 # 30001 <sysinit.c.f98e60a8+0x296f9>
	I2C1->CTLR1 |= I2C_CTLR1_START;
     eaa:	1006e693          	ori	a3,a3,256
     eae:	00d79023          	sh	a3,0(a5)
	uint32_t status = (uint32_t)I2C1->STAR1 | (uint32_t)(I2C1->STAR2 << 16);
     eb2:	400056b7          	lui	a3,0x40005
     eb6:	40068693          	addi	a3,a3,1024 # 40005400 <_eusrstack+0x20004c00>
     eba:	0146d583          	lhu	a1,20(a3)
     ebe:	0186d783          	lhu	a5,24(a3)
     ec2:	07c2                	slli	a5,a5,0x10
     ec4:	8fcd                	or	a5,a5,a1
	return (status & status_mask) == status_mask; 
     ec6:	8ff1                	and	a5,a5,a2
	while(!i2c_status(I2C_EVENT_MASTER_MODE_SELECT));
     ec8:	fec799e3          	bne	a5,a2,eba <i2c_write_reg+0x40>
	if(dev->type == I2C_ADDR_7BIT)
     ecc:	40dc                	lw	a5,4(s1)
     ece:	c7ad                	beqz	a5,f38 <i2c_write_reg+0xbe>
	if(dev->type == I2C_ADDR_10BIT)
     ed0:	4605                	li	a2,1
     ed2:	0ac78163          	beq	a5,a2,f74 <i2c_write_reg+0xfa>
	if(i2c_ret == I2C_OK) { i2c_start(); i2c_ret = i2c_send_addr(I2C_WRITE, dev); }

	// Send the register byte/s - MSBFirst
	if(i2c_ret == I2C_OK)
	{
		for(int8_t b = dev->regb - 1; b >= 0; b--)
     ed6:	00a4c783          	lbu	a5,10(s1)
     eda:	17fd                	addi	a5,a5,-1
     edc:	07e2                	slli	a5,a5,0x18
     ede:	87e1                	srai	a5,a5,0x18
     ee0:	00379693          	slli	a3,a5,0x3
     ee4:	1407d163          	bgez	a5,1026 <i2c_write_reg+0x1ac>
			if(i2c_ret != I2C_OK || (i2c_ret = i2c_error()) != I2C_OK) break;
		}
	}

	// Write the data
	if(i2c_ret == I2C_OK)
     ee8:	4792                	lw	a5,4(sp)
     eea:	4722                	lw	a4,8(sp)
     eec:	00e784b3          	add	s1,a5,a4
	{
		uint8_t cbyte = 0;
		while(cbyte < len)
		{
			// Write the byte and wait for it to finish transmitting
			I2C_TIMEOUT_WAIT_FOR(!(I2C1->STAR1 & I2C_STAR1_TXE), i2c_ret);
     ef0:	400056b7          	lui	a3,0x40005
     ef4:	8622                	mv	a2,s0
     ef6:	40068693          	addi	a3,a3,1024 # 40005400 <_eusrstack+0x20004c00>
     efa:	0146d703          	lhu	a4,20(a3)
     efe:	08077713          	andi	a4,a4,128
     f02:	16070463          	beqz	a4,106a <i2c_write_reg+0x1f0>
     f06:	4501                	li	a0,0
			//while(!(I2C1->STAR1 & I2C_STAR1_TXE));
			I2C1->DATAR = buf[cbyte];
     f08:	0007c683          	lbu	a3,0(a5)
     f0c:	c03e                	sw	a5,0(sp)
     f0e:	40005737          	lui	a4,0x40005
     f12:	40d71823          	sh	a3,1040(a4) # 40005410 <_eusrstack+0x20004c10>
			++cbyte;

			// Make sure no errors occured for this byte
			if(i2c_ret != I2C_OK || (i2c_ret = i2c_error()) != I2C_OK) break;
     f16:	ed5d                	bnez	a0,fd4 <i2c_write_reg+0x15a>
     f18:	3351                	jal	c9c <i2c_error>
     f1a:	ed4d                	bnez	a0,fd4 <i2c_write_reg+0x15a>
		while(cbyte < len)
     f1c:	4782                	lw	a5,0(sp)
     f1e:	0785                	addi	a5,a5,1
     f20:	fcf498e3          	bne	s1,a5,ef0 <i2c_write_reg+0x76>
     f24:	a845                	j	fd4 <i2c_write_reg+0x15a>
	I2C_TIMEOUT_WAIT_FOR((I2C1->STAR2 & I2C_STAR2_BUSY), i2c_ret);
     f26:	fff60693          	addi	a3,a2,-1
     f2a:	e609                	bnez	a2,f34 <i2c_write_reg+0xba>
	i2c_err_t i2c_err = i2c_error();
     f2c:	3b85                	jal	c9c <i2c_error>
	if(i2c_err == I2C_OK) i2c_err = I2C_ERR_BUSY;
     f2e:	e15d                	bnez	a0,fd4 <i2c_write_reg+0x15a>
     f30:	4515                	li	a0,5
     f32:	a04d                	j	fd4 <i2c_write_reg+0x15a>
	I2C_TIMEOUT_WAIT_FOR((I2C1->STAR2 & I2C_STAR2_BUSY), i2c_ret);
     f34:	8636                	mv	a2,a3
     f36:	b78d                	j	e98 <i2c_write_reg+0x1e>
		uint8_t addr_7b = (dev->addr << 1);
     f38:	0084d783          	lhu	a5,8(s1)
	uint32_t status = (uint32_t)I2C1->STAR1 | (uint32_t)(I2C1->STAR2 << 16);
     f3c:	40005637          	lui	a2,0x40005
			I2C_TIMEOUT_WAIT_FOR(!i2c_status(I2C_EVENT_MASTER_TRANSMITTER_MODE_SELECTED), i2c_ret);
     f40:	85a2                	mv	a1,s0
		uint8_t addr_7b = (dev->addr << 1);
     f42:	0786                	slli	a5,a5,0x1
			I2C1->DATAR = addr_7b & 0xFE;
     f44:	0ff7f793          	zext.b	a5,a5
     f48:	00f69823          	sh	a5,16(a3)
	return (status & status_mask) == status_mask; 
     f4c:	000706b7          	lui	a3,0x70
	uint32_t status = (uint32_t)I2C1->STAR1 | (uint32_t)(I2C1->STAR2 << 16);
     f50:	40060613          	addi	a2,a2,1024 # 40005400 <_eusrstack+0x20004c00>
	return (status & status_mask) == status_mask; 
     f54:	08268693          	addi	a3,a3,130 # 70082 <sysinit.c.f98e60a8+0x6977a>
	uint32_t status = (uint32_t)I2C1->STAR1 | (uint32_t)(I2C1->STAR2 << 16);
     f58:	01465503          	lhu	a0,20(a2)
     f5c:	01865783          	lhu	a5,24(a2)
     f60:	07c2                	slli	a5,a5,0x10
     f62:	8fc9                	or	a5,a5,a0
	return (status & status_mask) == status_mask; 
     f64:	8ff5                	and	a5,a5,a3
			I2C_TIMEOUT_WAIT_FOR(!i2c_status(I2C_EVENT_MASTER_TRANSMITTER_MODE_SELECTED), i2c_ret);
     f66:	f6d788e3          	beq	a5,a3,ed6 <i2c_write_reg+0x5c>
     f6a:	fff58793          	addi	a5,a1,-1
     f6e:	dddd                	beqz	a1,f2c <i2c_write_reg+0xb2>
     f70:	85be                	mv	a1,a5
     f72:	b7dd                	j	f58 <i2c_write_reg+0xde>
		uint8_t addr_10b_u = 0xF0 | ((dev->addr >> 7) & 0x06);
     f74:	0084d603          	lhu	a2,8(s1)
			I2C_TIMEOUT_WAIT_FOR(!(I2C1->STAR1 & I2C_STAR1_ADD10), i2c_ret);
     f78:	85a2                	mv	a1,s0
		uint8_t addr_10b_u = 0xF0 | ((dev->addr >> 7) & 0x06);
     f7a:	00765793          	srli	a5,a2,0x7
     f7e:	8b99                	andi	a5,a5,6
			I2C1->DATAR = addr_10b_u;
     f80:	0f07e793          	ori	a5,a5,240
     f84:	00f69823          	sh	a5,16(a3)
			I2C_TIMEOUT_WAIT_FOR(!(I2C1->STAR1 & I2C_STAR1_ADD10), i2c_ret);
     f88:	400057b7          	lui	a5,0x40005
     f8c:	40078793          	addi	a5,a5,1024 # 40005400 <_eusrstack+0x20004c00>
     f90:	0147d683          	lhu	a3,20(a5)
     f94:	8aa1                	andi	a3,a3,8
     f96:	cead                	beqz	a3,1010 <i2c_write_reg+0x196>
     f98:	c632                	sw	a2,12(sp)
			if(i2c_ret != I2C_OK || (i2c_ret = i2c_error()) != I2C_OK) return i2c_ret;
     f9a:	3309                	jal	c9c <i2c_error>
     f9c:	ed05                	bnez	a0,fd4 <i2c_write_reg+0x15a>
     f9e:	4632                	lw	a2,12(sp)
			I2C1->DATAR = addr_10b_l;
     fa0:	400057b7          	lui	a5,0x40005
     fa4:	40078793          	addi	a5,a5,1024 # 40005400 <_eusrstack+0x20004c00>
     fa8:	0ff67613          	zext.b	a2,a2
	return (status & status_mask) == status_mask; 
     fac:	000706b7          	lui	a3,0x70
			I2C1->DATAR = addr_10b_l;
     fb0:	00c79823          	sh	a2,16(a5)
			I2C_TIMEOUT_WAIT_FOR(!i2c_status(I2C_EVENT_MASTER_TRANSMITTER_MODE_SELECTED), i2c_ret);
     fb4:	85a2                	mv	a1,s0
	uint32_t status = (uint32_t)I2C1->STAR1 | (uint32_t)(I2C1->STAR2 << 16);
     fb6:	863e                	mv	a2,a5
	return (status & status_mask) == status_mask; 
     fb8:	08268693          	addi	a3,a3,130 # 70082 <sysinit.c.f98e60a8+0x6977a>
	uint32_t status = (uint32_t)I2C1->STAR1 | (uint32_t)(I2C1->STAR2 << 16);
     fbc:	01465503          	lhu	a0,20(a2)
     fc0:	01865783          	lhu	a5,24(a2)
     fc4:	07c2                	slli	a5,a5,0x10
     fc6:	8fc9                	or	a5,a5,a0
	return (status & status_mask) == status_mask; 
     fc8:	8ff5                	and	a5,a5,a3
			I2C_TIMEOUT_WAIT_FOR(!i2c_status(I2C_EVENT_MASTER_TRANSMITTER_MODE_SELECTED), i2c_ret);
     fca:	04d79863          	bne	a5,a3,101a <i2c_write_reg+0x1a0>
			if(i2c_ret != I2C_OK || (i2c_ret = i2c_error()) != I2C_OK) return i2c_ret;
     fce:	31f9                	jal	c9c <i2c_error>
     fd0:	f00503e3          	beqz	a0,ed6 <i2c_write_reg+0x5c>
	uint32_t status = (uint32_t)I2C1->STAR1 | (uint32_t)(I2C1->STAR2 << 16);
     fd4:	400056b7          	lui	a3,0x40005
	return (status & status_mask) == status_mask; 
     fd8:	00070737          	lui	a4,0x70
	uint32_t status = (uint32_t)I2C1->STAR1 | (uint32_t)(I2C1->STAR2 << 16);
     fdc:	40068693          	addi	a3,a3,1024 # 40005400 <_eusrstack+0x20004c00>
	return (status & status_mask) == status_mask; 
     fe0:	08470713          	addi	a4,a4,132 # 70084 <sysinit.c.f98e60a8+0x6977c>
	uint32_t status = (uint32_t)I2C1->STAR1 | (uint32_t)(I2C1->STAR2 << 16);
     fe4:	0146d603          	lhu	a2,20(a3)
     fe8:	0186d783          	lhu	a5,24(a3)
     fec:	07c2                	slli	a5,a5,0x10
     fee:	8fd1                	or	a5,a5,a2
	return (status & status_mask) == status_mask; 
     ff0:	8ff9                	and	a5,a5,a4
		}
	}

	// Wait for the bus to finish transmitting
	I2C_TIMEOUT_WAIT_FOR(!i2c_status(I2C_EVENT_MASTER_BYTE_TRANSMITTED), i2c_ret);
     ff2:	08e79863          	bne	a5,a4,1082 <i2c_write_reg+0x208>
	I2C1->CTLR1 |= I2C_CTLR1_STOP;
     ff6:	400057b7          	lui	a5,0x40005
     ffa:	4007d703          	lhu	a4,1024(a5) # 40005400 <_eusrstack+0x20004c00>
	// Signal a STOP
	i2c_stop();

	return i2c_ret;
}
     ffe:	40f2                	lw	ra,28(sp)
    1000:	4462                	lw	s0,24(sp)
	I2C1->CTLR1 |= I2C_CTLR1_STOP;
    1002:	20076713          	ori	a4,a4,512
    1006:	40e79023          	sh	a4,1024(a5)
}
    100a:	44d2                	lw	s1,20(sp)
    100c:	6105                	addi	sp,sp,32
    100e:	8082                	ret
			I2C_TIMEOUT_WAIT_FOR(!(I2C1->STAR1 & I2C_STAR1_ADD10), i2c_ret);
    1010:	fff58693          	addi	a3,a1,-1
    1014:	dd81                	beqz	a1,f2c <i2c_write_reg+0xb2>
    1016:	85b6                	mv	a1,a3
    1018:	bfa5                	j	f90 <i2c_write_reg+0x116>
			I2C_TIMEOUT_WAIT_FOR(!i2c_status(I2C_EVENT_MASTER_TRANSMITTER_MODE_SELECTED), i2c_ret);
    101a:	fff58793          	addi	a5,a1,-1
    101e:	f00587e3          	beqz	a1,f2c <i2c_write_reg+0xb2>
    1022:	85be                	mv	a1,a5
    1024:	bf61                	j	fbc <i2c_write_reg+0x142>
			uint8_t reg_byte = (reg >> (8 * b)) & 0xFF;
    1026:	4702                	lw	a4,0(sp)
			I2C_TIMEOUT_WAIT_FOR(!(I2C1->STAR1 & I2C_STAR1_TXE), i2c_ret);
    1028:	85a2                	mv	a1,s0
			uint8_t reg_byte = (reg >> (8 * b)) & 0xFF;
    102a:	00d75633          	srl	a2,a4,a3
			I2C1->DATAR = reg_byte;
    102e:	0642                	slli	a2,a2,0x10
    1030:	40005737          	lui	a4,0x40005
    1034:	8241                	srli	a2,a2,0x10
    1036:	40070713          	addi	a4,a4,1024 # 40005400 <_eusrstack+0x20004c00>
    103a:	00c71823          	sh	a2,16(a4)
			I2C_TIMEOUT_WAIT_FOR(!(I2C1->STAR1 & I2C_STAR1_TXE), i2c_ret);
    103e:	01475603          	lhu	a2,20(a4)
    1042:	08067613          	andi	a2,a2,128
    1046:	ce01                	beqz	a2,105e <i2c_write_reg+0x1e4>
    1048:	c836                	sw	a3,16(sp)
    104a:	c63e                	sw	a5,12(sp)
			if(i2c_ret != I2C_OK || (i2c_ret = i2c_error()) != I2C_OK) break;
    104c:	3981                	jal	c9c <i2c_error>
    104e:	46c2                	lw	a3,16(sp)
    1050:	16e1                	addi	a3,a3,-8
    1052:	f149                	bnez	a0,fd4 <i2c_write_reg+0x15a>
		for(int8_t b = dev->regb - 1; b >= 0; b--)
    1054:	47b2                	lw	a5,12(sp)
    1056:	17fd                	addi	a5,a5,-1
    1058:	07e2                	slli	a5,a5,0x18
    105a:	87e1                	srai	a5,a5,0x18
    105c:	b561                	j	ee4 <i2c_write_reg+0x6a>
			I2C_TIMEOUT_WAIT_FOR(!(I2C1->STAR1 & I2C_STAR1_TXE), i2c_ret);
    105e:	fff58613          	addi	a2,a1,-1
    1062:	ec0585e3          	beqz	a1,f2c <i2c_write_reg+0xb2>
    1066:	85b2                	mv	a1,a2
    1068:	bfd9                	j	103e <i2c_write_reg+0x1c4>
			I2C_TIMEOUT_WAIT_FOR(!(I2C1->STAR1 & I2C_STAR1_TXE), i2c_ret);
    106a:	fff60713          	addi	a4,a2,-1
    106e:	ea01                	bnez	a2,107e <i2c_write_reg+0x204>
    1070:	c03e                	sw	a5,0(sp)
	i2c_err_t i2c_err = i2c_error();
    1072:	312d                	jal	c9c <i2c_error>
	if(i2c_err == I2C_OK) i2c_err = I2C_ERR_BUSY;
    1074:	4782                	lw	a5,0(sp)
    1076:	e80519e3          	bnez	a0,f08 <i2c_write_reg+0x8e>
    107a:	4515                	li	a0,5
    107c:	b571                	j	f08 <i2c_write_reg+0x8e>
			I2C_TIMEOUT_WAIT_FOR(!(I2C1->STAR1 & I2C_STAR1_TXE), i2c_ret);
    107e:	863a                	mv	a2,a4
    1080:	bdad                	j	efa <i2c_write_reg+0x80>
	I2C_TIMEOUT_WAIT_FOR(!i2c_status(I2C_EVENT_MASTER_BYTE_TRANSMITTED), i2c_ret);
    1082:	fff40793          	addi	a5,s0,-1
    1086:	e409                	bnez	s0,1090 <i2c_write_reg+0x216>
	i2c_err_t i2c_err = i2c_error();
    1088:	3911                	jal	c9c <i2c_error>
	if(i2c_err == I2C_OK) i2c_err = I2C_ERR_BUSY;
    108a:	f535                	bnez	a0,ff6 <i2c_write_reg+0x17c>
    108c:	4515                	li	a0,5
    108e:	b7a5                	j	ff6 <i2c_write_reg+0x17c>
	I2C_TIMEOUT_WAIT_FOR(!i2c_status(I2C_EVENT_MASTER_BYTE_TRANSMITTED), i2c_ret);
    1090:	843e                	mv	s0,a5
    1092:	bf89                	j	fe4 <i2c_write_reg+0x16a>

00001094 <oled_update.isra.0>:

	return OLED_OK;
}


oled_err_t oled_update(void)
    1094:	1141                	addi	sp,sp,-16
    1096:	c226                	sw	s1,4(sp)
{
	if(_oled_dev == NULL) return OLED_UNSET_DEVICE;
    1098:	c9c1a483          	lw	s1,-868(gp) # 20000098 <_oled_dev>
oled_err_t oled_update(void)
    109c:	c606                	sw	ra,12(sp)
    109e:	c422                	sw	s0,8(sp)
	if(_oled_dev == NULL) return OLED_UNSET_DEVICE;
    10a0:	ccb1                	beqz	s1,10fc <oled_update.isra.0+0x68>
	
	// Write the OLED Display Data
	for(int page = 0; page < OLED_PAGES; page++)
    10a2:	4401                	li	s0,0
	uint8_t pos_arr[3] = { (0xB0 | y), 
    10a4:	fb046793          	ori	a5,s0,-80
    10a8:	00f10023          	sb	a5,0(sp)
	OLED_WRITE(OLED_REG_COMMAND, &pos_arr[0], 1);
    10ac:	4685                	li	a3,1
	uint8_t pos_arr[3] = { (0xB0 | y), 
    10ae:	47c1                	li	a5,16
	OLED_WRITE(OLED_REG_COMMAND, &pos_arr[0], 1);
    10b0:	860a                	mv	a2,sp
    10b2:	4581                	li	a1,0
    10b4:	8526                	mv	a0,s1
	uint8_t pos_arr[3] = { (0xB0 | y), 
    10b6:	000100a3          	sb	zero,1(sp)
    10ba:	00f10123          	sb	a5,2(sp)
	OLED_WRITE(OLED_REG_COMMAND, &pos_arr[0], 1);
    10be:	3b75                	jal	e7a <i2c_write_reg>
    10c0:	ed11                	bnez	a0,10dc <oled_update.isra.0+0x48>
	OLED_WRITE(OLED_REG_COMMAND, &pos_arr[1], 1);
    10c2:	4685                	li	a3,1
    10c4:	00d10633          	add	a2,sp,a3
    10c8:	4581                	li	a1,0
    10ca:	8526                	mv	a0,s1
    10cc:	337d                	jal	e7a <i2c_write_reg>
    10ce:	e519                	bnez	a0,10dc <oled_update.isra.0+0x48>
	OLED_WRITE(OLED_REG_COMMAND, &pos_arr[2], 1);
    10d0:	4685                	li	a3,1
    10d2:	00210613          	addi	a2,sp,2
    10d6:	4581                	li	a1,0
    10d8:	8526                	mv	a0,s1
    10da:	3345                	jal	e7a <i2c_write_reg>
	{	
		oled_set_cursor(0, page);
		OLED_WRITE(OLED_REG_DISPLAY_START, _oled_buffer[page], OLED_WIDTH);
    10dc:	00741613          	slli	a2,s0,0x7
    10e0:	cc018793          	addi	a5,gp,-832 # 200000bc <_oled_buffer>
    10e4:	08000693          	li	a3,128
    10e8:	963e                	add	a2,a2,a5
    10ea:	04000593          	li	a1,64
    10ee:	8526                	mv	a0,s1
    10f0:	3369                	jal	e7a <i2c_write_reg>
    10f2:	e509                	bnez	a0,10fc <oled_update.isra.0+0x68>
	for(int page = 0; page < OLED_PAGES; page++)
    10f4:	0405                	addi	s0,s0,1
    10f6:	47a1                	li	a5,8
    10f8:	faf416e3          	bne	s0,a5,10a4 <oled_update.isra.0+0x10>
	}

	return OLED_OK;
}
    10fc:	40b2                	lw	ra,12(sp)
    10fe:	4422                	lw	s0,8(sp)
    1100:	4492                	lw	s1,4(sp)
    1102:	0141                	addi	sp,sp,16
    1104:	8082                	ret

00001106 <handle_reset>:
	asm volatile( "\n\
    1106:	1ffff197          	auipc	gp,0x1ffff
    110a:	2f618193          	addi	gp,gp,758 # 200003fc <__global_pointer$>
    110e:	40418113          	addi	sp,gp,1028 # 20000800 <_eusrstack>
    1112:	6509                	lui	a0,0x2
    1114:	88050513          	addi	a0,a0,-1920 # 1880 <main+0x114>
    1118:	30051073          	csrw	mstatus,a0
    111c:	468d                	li	a3,3
    111e:	fffff517          	auipc	a0,0xfffff
    1122:	ee250513          	addi	a0,a0,-286 # 0 <InterruptVector>
    1126:	8d55                	or	a0,a0,a3
    1128:	30551073          	csrw	mtvec,a0
asm volatile(
    112c:	c7c18513          	addi	a0,gp,-900 # 20000078 <accumulator.0>
    1130:	14018593          	addi	a1,gp,320 # 2000053c <_ebss>
    1134:	4601                	li	a2,0
    1136:	00b55663          	bge	a0,a1,1142 <handle_reset+0x3c>
    113a:	c110                	sw	a2,0(a0)
    113c:	0511                	addi	a0,a0,4
    113e:	feb54ee3          	blt	a0,a1,113a <handle_reset+0x34>
    1142:	00001517          	auipc	a0,0x1
    1146:	2e650513          	addi	a0,a0,742 # 2428 <_data_lma>
    114a:	c0418593          	addi	a1,gp,-1020 # 20000000 <heater_pid>
    114e:	c7c18613          	addi	a2,gp,-900 # 20000078 <accumulator.0>
    1152:	00c58863          	beq	a1,a2,1162 <handle_reset+0x5c>
    1156:	4114                	lw	a3,0(a0)
    1158:	c194                	sw	a3,0(a1)
    115a:	0511                	addi	a0,a0,4
    115c:	0591                	addi	a1,a1,4
    115e:	fec59ae3          	bne	a1,a2,1152 <handle_reset+0x4c>
	SysTick->CTLR = 5;
    1162:	e000f7b7          	lui	a5,0xe000f
    1166:	4715                	li	a4,5
    1168:	c398                	sw	a4,0(a5)
asm volatile(
    116a:	6785                	lui	a5,0x1
    116c:	76c78793          	addi	a5,a5,1900 # 176c <main>
    1170:	34179073          	csrw	mepc,a5
    1174:	30200073          	mret

00001178 <ADC1_2_IRQHandler>:

// Return the Machine Exception Program Register (MEPC)
static inline uint32_t __get_MEPC(void)
{
	uint32_t result;
	__ASM volatile( ADD_ARCH_ZICSR "csrr %0," "mepc" : "=r"(result));
    1178:	34102573          	csrr	a0,mepc
	PrintHex( __get_MEPC() ); // "addr2line -e debugprintfdemo.elf 0x000007e6" ---> debugprintfdemo.c:45
    117c:	d08ff0ef          	jal	684 <PrintHex>
	__ASM volatile( ADD_ARCH_ZICSR "csrr %0, mstatus": "=r"(result) );
    1180:	30002573          	csrr	a0,mstatus
	PrintHex( __get_MSTATUS() );
    1184:	d00ff0ef          	jal	684 <PrintHex>

// Return the Machine Trap Value Register (MTVAL)
static inline uint32_t __get_MTVAL(void)
{
	uint32_t result;
	__ASM volatile( ADD_ARCH_ZICSR "csrr %0," "mtval" : "=r" (result) );
    1188:	34302573          	csrr	a0,mtval
	PrintHex( __get_MTVAL() );
    118c:	cf8ff0ef          	jal	684 <PrintHex>
	__ASM volatile( ADD_ARCH_ZICSR "csrr %0," "mcause": "=r"(result));
    1190:	34202573          	csrr	a0,mcause
	PrintHex( __get_MCAUSE() );
    1194:	cf0ff0ef          	jal	684 <PrintHex>
	while( (*DMDATA0) & 0x80 );
    1198:	e00007b7          	lui	a5,0xe0000
    119c:	0f478793          	addi	a5,a5,244 # e00000f4 <_eusrstack+0xbffff8f4>
    11a0:	4398                	lw	a4,0(a5)
    11a2:	08077713          	andi	a4,a4,128
    11a6:	ff6d                	bnez	a4,11a0 <ADC1_2_IRQHandler+0x28>
	*DMDATA0 = 0x0a85;
    11a8:	6705                	lui	a4,0x1
    11aa:	a8570713          	addi	a4,a4,-1403 # a85 <battery_check_task+0x29>
    11ae:	c398                	sw	a4,0(a5)
	while( (*DMDATA0) & 0x80 );
    11b0:	e00007b7          	lui	a5,0xe0000
    11b4:	0f478793          	addi	a5,a5,244 # e00000f4 <_eusrstack+0xbffff8f4>
    11b8:	4398                	lw	a4,0(a5)
    11ba:	08077713          	andi	a4,a4,128
    11be:	ff6d                	bnez	a4,11b8 <ADC1_2_IRQHandler+0x40>
	*DMDATA0 = 0xaaaaaa83;
    11c0:	aaaab737          	lui	a4,0xaaaab
    11c4:	a8370713          	addi	a4,a4,-1405 # aaaaaa83 <_eusrstack+0x8aaaa283>
    11c8:	c398                	sw	a4,0(a5)
	asm volatile( "1: j 1b" );
    11ca:	a001                	j	11ca <ADC1_2_IRQHandler+0x52>

000011cc <NMI_Handler>:
	RCC->INTR |= RCC_CSSC;	// clear the clock security int flag
    11cc:	40021737          	lui	a4,0x40021
    11d0:	471c                	lw	a5,8(a4)
    11d2:	008006b7          	lui	a3,0x800
    11d6:	8fd5                	or	a5,a5,a3
    11d8:	c71c                	sw	a5,8(a4)

000011da <strlen>:
	for (; *s; s++);
    11da:	87aa                	mv	a5,a0
    11dc:	0007c703          	lbu	a4,0(a5)
    11e0:	e701                	bnez	a4,11e8 <strlen+0xe>
}
    11e2:	40a78533          	sub	a0,a5,a0
    11e6:	8082                	ret
	for (; *s; s++);
    11e8:	0785                	addi	a5,a5,1
    11ea:	bfcd                	j	11dc <strlen+0x2>

000011ec <mini_vpprintf>:
{
    11ec:	fa410113          	addi	sp,sp,-92
    11f0:	caa2                	sw	s0,84(sp)
    11f2:	c8a6                	sw	s1,80(sp)
    11f4:	cc86                	sw	ra,88(sp)
    11f6:	c02a                	sw	a0,0(sp)
    11f8:	c22e                	sw	a1,4(sp)
    11fa:	8432                	mv	s0,a2
    11fc:	84b6                	mv	s1,a3
	if(puts == (void*)0) {
    11fe:	e509                	bnez	a0,1208 <mini_vpprintf+0x1c>
		puts = _puts; buf = (void*)0;
    1200:	64400793          	li	a5,1604
    1204:	c202                	sw	zero,4(sp)
    1206:	c03e                	sw	a5,0(sp)
	int n = 0;
    1208:	ca02                	sw	zero,20(sp)
	while ((ch=*(fmt++))) {
    120a:	00044783          	lbu	a5,0(s0)
    120e:	00140713          	addi	a4,s0,1
    1212:	00f10fa3          	sb	a5,31(sp)
    1216:	eb81                	bnez	a5,1226 <mini_vpprintf+0x3a>
}
    1218:	40e6                	lw	ra,88(sp)
    121a:	4456                	lw	s0,84(sp)
    121c:	4552                	lw	a0,20(sp)
    121e:	44c6                	lw	s1,80(sp)
    1220:	05c10113          	addi	sp,sp,92
    1224:	8082                	ret
    1226:	c63a                	sw	a4,12(sp)
		if (ch!='%') {
    1228:	02500693          	li	a3,37
    122c:	02d78063          	beq	a5,a3,124c <mini_vpprintf+0x60>
			len = puts(&ch, len, buf);
    1230:	4612                	lw	a2,4(sp)
    1232:	4782                	lw	a5,0(sp)
    1234:	4585                	li	a1,1
    1236:	01f10513          	addi	a0,sp,31
    123a:	9782                	jalr	a5
	while ((ch=*(fmt++))) {
    123c:	4732                	lw	a4,12(sp)
    123e:	c426                	sw	s1,8(sp)
    1240:	843a                	mv	s0,a4
		n = n + len;
    1242:	47d2                	lw	a5,20(sp)
    1244:	44a2                	lw	s1,8(sp)
    1246:	97aa                	add	a5,a5,a0
    1248:	ca3e                	sw	a5,20(sp)
    124a:	b7c1                	j	120a <mini_vpprintf+0x1e>
			ch=*(fmt++);
    124c:	00144783          	lbu	a5,1(s0)
			if (ch == '0') pad_char = '0';
    1250:	03000693          	li	a3,48
			ch=*(fmt++);
    1254:	00240713          	addi	a4,s0,2
    1258:	00f10fa3          	sb	a5,31(sp)
			if (ch == '0') pad_char = '0';
    125c:	c63e                	sw	a5,12(sp)
    125e:	08d79363          	bne	a5,a3,12e4 <mini_vpprintf+0xf8>
				ch=*(fmt++);
    1262:	843a                	mv	s0,a4
    1264:	4681                	li	a3,0
    1266:	4701                	li	a4,0
			while (ch >= '0' && ch <= '9') {
    1268:	45a5                	li	a1,9
    126a:	a819                	j	1280 <mini_vpprintf+0x94>
				pad_to = pad_to * 10 + (ch - '0');
    126c:	00271793          	slli	a5,a4,0x2
    1270:	97ba                	add	a5,a5,a4
    1272:	0786                	slli	a5,a5,0x1
				ch=*(fmt++);
    1274:	0405                	addi	s0,s0,1
				pad_to = pad_to * 10 + (ch - '0');
    1276:	00f60733          	add	a4,a2,a5
				ch=*(fmt++);
    127a:	fff44783          	lbu	a5,-1(s0)
    127e:	4685                	li	a3,1
			while (ch >= '0' && ch <= '9') {
    1280:	fd078613          	addi	a2,a5,-48
    1284:	0ff67513          	zext.b	a0,a2
    1288:	fea5f2e3          	bgeu	a1,a0,126c <mini_vpprintf+0x80>
    128c:	c299                	beqz	a3,1292 <mini_vpprintf+0xa6>
    128e:	00f10fa3          	sb	a5,31(sp)
			if(pad_to > (signed int) sizeof(bf)) {
    1292:	c83a                	sw	a4,16(sp)
    1294:	46e1                	li	a3,24
    1296:	00e6d363          	bge	a3,a4,129c <mini_vpprintf+0xb0>
    129a:	c836                	sw	a3,16(sp)
			if (ch == 'l') {
    129c:	06c00613          	li	a2,108
			char l = 0;
    12a0:	4681                	li	a3,0
			if (ch == 'l') {
    12a2:	00c79863          	bne	a5,a2,12b2 <mini_vpprintf+0xc6>
				ch=*(fmt++);
    12a6:	00044783          	lbu	a5,0(s0)
				l = 1;
    12aa:	4685                	li	a3,1
				ch=*(fmt++);
    12ac:	0405                	addi	s0,s0,1
    12ae:	00f10fa3          	sb	a5,31(sp)
			switch (ch) {
    12b2:	01f14603          	lbu	a2,31(sp)
    12b6:	06400793          	li	a5,100
    12ba:	06f60563          	beq	a2,a5,1324 <mini_vpprintf+0x138>
    12be:	02c7e763          	bltu	a5,a2,12ec <mini_vpprintf+0x100>
    12c2:	05800793          	li	a5,88
    12c6:	0af60263          	beq	a2,a5,136a <mini_vpprintf+0x17e>
    12ca:	06300793          	li	a5,99
    12ce:	0cf60063          	beq	a2,a5,138e <mini_vpprintf+0x1a2>
    12d2:	d239                	beqz	a2,1218 <mini_vpprintf+0x2c>
					len = puts(&ch, len, buf);
    12d4:	4612                	lw	a2,4(sp)
    12d6:	4782                	lw	a5,0(sp)
    12d8:	4585                	li	a1,1
    12da:	01f10513          	addi	a0,sp,31
    12de:	9782                	jalr	a5
					break;
    12e0:	c426                	sw	s1,8(sp)
    12e2:	b785                	j	1242 <mini_vpprintf+0x56>
			char pad_char = ' ';
    12e4:	02000693          	li	a3,32
    12e8:	c636                	sw	a3,12(sp)
    12ea:	bfa5                	j	1262 <mini_vpprintf+0x76>
			switch (ch) {
    12ec:	07500793          	li	a5,117
    12f0:	02f60a63          	beq	a2,a5,1324 <mini_vpprintf+0x138>
    12f4:	07800793          	li	a5,120
    12f8:	06f60963          	beq	a2,a5,136a <mini_vpprintf+0x17e>
    12fc:	07300793          	li	a5,115
    1300:	fcf61ae3          	bne	a2,a5,12d4 <mini_vpprintf+0xe8>
					ptr = va_arg(va, char*);
    1304:	00448793          	addi	a5,s1,4
    1308:	4084                	lw	s1,0(s1)
    130a:	cc3a                	sw	a4,24(sp)
    130c:	c43e                	sw	a5,8(sp)
					len = mini_strlen(ptr);
    130e:	8526                	mv	a0,s1
    1310:	35e9                	jal	11da <strlen>
					if (pad_to > 0) {
    1312:	4762                	lw	a4,24(sp)
					len = mini_strlen(ptr);
    1314:	85aa                	mv	a1,a0
					if (pad_to > 0) {
    1316:	08e05963          	blez	a4,13a8 <mini_vpprintf+0x1bc>
						len = mini_pad(ptr, len, pad_char, pad_to, bf);
    131a:	46c2                	lw	a3,16(sp)
    131c:	4632                	lw	a2,12(sp)
    131e:	1838                	addi	a4,sp,56
    1320:	8526                	mv	a0,s1
    1322:	a025                	j	134a <mini_vpprintf+0x15e>
						len = mini_itoa(va_arg(va, unsigned long), 10, 0, (ch=='u'), bf2);
    1324:	00448793          	addi	a5,s1,4
    1328:	c43e                	sw	a5,8(sp)
					if(l) {
    132a:	ca85                	beqz	a3,135a <mini_vpprintf+0x16e>
						len = mini_itoa(va_arg(va, unsigned long), 10, 0, (ch=='u'), bf2);
    132c:	f8b60613          	addi	a2,a2,-117
    1330:	1018                	addi	a4,sp,32
    1332:	00163693          	seqz	a3,a2
    1336:	4088                	lw	a0,0(s1)
    1338:	4601                	li	a2,0
    133a:	45a9                	li	a1,10
    133c:	bb4ff0ef          	jal	6f0 <mini_itoa.part.0>
					len = mini_pad(bf2, len, pad_char, pad_to, bf);
    1340:	46c2                	lw	a3,16(sp)
    1342:	4632                	lw	a2,12(sp)
    1344:	1838                	addi	a4,sp,56
    1346:	85aa                	mv	a1,a0
					len = mini_pad(bf2, len, pad_char, pad_to, bf);
    1348:	1008                	addi	a0,sp,32
    134a:	a70ff0ef          	jal	5ba <mini_pad>
					len = puts(bf, len, buf);
    134e:	4612                	lw	a2,4(sp)
					len = mini_pad(bf2, len, pad_char, pad_to, bf);
    1350:	85aa                	mv	a1,a0
					len = puts(bf, len, buf);
    1352:	1828                	addi	a0,sp,56
    1354:	4782                	lw	a5,0(sp)
    1356:	9782                	jalr	a5
					break;
    1358:	b5ed                	j	1242 <mini_vpprintf+0x56>
						if(ch == 'u') {
    135a:	07500793          	li	a5,117
    135e:	1018                	addi	a4,sp,32
    1360:	4685                	li	a3,1
    1362:	fcf60ae3          	beq	a2,a5,1336 <mini_vpprintf+0x14a>
	if (radix > 16)
    1366:	4681                	li	a3,0
    1368:	b7f9                	j	1336 <mini_vpprintf+0x14a>
					if(l) {
    136a:	4088                	lw	a0,0(s1)
						len = mini_itoa(va_arg(va, unsigned long), 16, (ch=='X'), 1, bf2);
    136c:	fa860613          	addi	a2,a2,-88
						len = mini_itoa(va_arg(va, unsigned long), 10, 0, (ch=='u'), bf2);
    1370:	00448793          	addi	a5,s1,4
    1374:	1018                	addi	a4,sp,32
    1376:	4685                	li	a3,1
    1378:	00163613          	seqz	a2,a2
    137c:	45c1                	li	a1,16
    137e:	c43e                	sw	a5,8(sp)
	if (radix > 16)
    1380:	b70ff0ef          	jal	6f0 <mini_itoa.part.0>
					len = mini_pad(bf2, len, pad_char, pad_to, bf);
    1384:	46c2                	lw	a3,16(sp)
    1386:	4632                	lw	a2,12(sp)
    1388:	85aa                	mv	a1,a0
    138a:	1838                	addi	a4,sp,56
    138c:	bf75                	j	1348 <mini_vpprintf+0x15c>
					ch = (char)(va_arg(va, int));
    138e:	00448793          	addi	a5,s1,4
    1392:	c43e                	sw	a5,8(sp)
    1394:	409c                	lw	a5,0(s1)
					len = mini_pad(&ch, 1, pad_char, pad_to, bf);
    1396:	46c2                	lw	a3,16(sp)
    1398:	4632                	lw	a2,12(sp)
					ch = (char)(va_arg(va, int));
    139a:	00f10fa3          	sb	a5,31(sp)
					len = mini_pad(&ch, 1, pad_char, pad_to, bf);
    139e:	1838                	addi	a4,sp,56
    13a0:	4585                	li	a1,1
    13a2:	01f10513          	addi	a0,sp,31
    13a6:	b755                	j	134a <mini_vpprintf+0x15e>
						len = puts(ptr, len, buf);
    13a8:	4612                	lw	a2,4(sp)
    13aa:	8526                	mv	a0,s1
    13ac:	b765                	j	1354 <mini_vpprintf+0x168>

000013ae <printf>:
{
    13ae:	1111                	addi	sp,sp,-28
    13b0:	c632                	sw	a2,12(sp)
	int ret_status = mini_vpprintf(__puts_uart, 0, format, args);
    13b2:	862a                	mv	a2,a0
    13b4:	6505                	lui	a0,0x1
{
    13b6:	c42e                	sw	a1,8(sp)
    13b8:	c836                	sw	a3,16(sp)
	int ret_status = mini_vpprintf(__puts_uart, 0, format, args);
    13ba:	4581                	li	a1,0
	va_start( args, format );
    13bc:	0034                	addi	a3,sp,8
	int ret_status = mini_vpprintf(__puts_uart, 0, format, args);
    13be:	e3250513          	addi	a0,a0,-462 # e32 <__puts_uart>
{
    13c2:	c206                	sw	ra,4(sp)
    13c4:	ca3a                	sw	a4,20(sp)
    13c6:	cc3e                	sw	a5,24(sp)
	va_start( args, format );
    13c8:	c036                	sw	a3,0(sp)
	int ret_status = mini_vpprintf(__puts_uart, 0, format, args);
    13ca:	350d                	jal	11ec <mini_vpprintf>
}
    13cc:	4092                	lw	ra,4(sp)
    13ce:	0171                	addi	sp,sp,28
    13d0:	8082                	ret

000013d2 <memset>:
WEAK void *memset(void *dest, int c, size_t n) { unsigned char *s = dest; for (; n; n--, s++) *s = c; return dest; }
    13d2:	962a                	add	a2,a2,a0
    13d4:	87aa                	mv	a5,a0
    13d6:	00c79363          	bne	a5,a2,13dc <memset+0xa>
    13da:	8082                	ret
    13dc:	00b78023          	sb	a1,0(a5)
    13e0:	0785                	addi	a5,a5,1
    13e2:	bfd5                	j	13d6 <memset+0x4>

000013e4 <strchr>:
	c = (unsigned char)c;
    13e4:	0ff5f593          	zext.b	a1,a1
		char ts = *s;
    13e8:	00054783          	lbu	a5,0(a0)
		if( ts == c ) return (char*)s;
    13ec:	00b78663          	beq	a5,a1,13f8 <strchr+0x14>
		if( !ts ) return 0;
    13f0:	c399                	beqz	a5,13f6 <strchr+0x12>
		s++;
    13f2:	0505                	addi	a0,a0,1
	{
    13f4:	bfd5                	j	13e8 <strchr+0x4>
		if( !ts ) return 0;
    13f6:	4501                	li	a0,0
}
    13f8:	8082                	ret

000013fa <font16x16_to_framebuffer.part.0>:
static void font16x16_to_framebuffer(const char *str, uint8_t *ptr)
    13fa:	1151                	addi	sp,sp,-12
    13fc:	c222                	sw	s0,4(sp)
    13fe:	c026                	sw	s1,0(sp)
    1400:	c406                	sw	ra,8(sp)
    1402:	842a                	mv	s0,a0
    1404:	84ae                	mv	s1,a1
		const char *lut_ptr = strchr(font16_16_lut, *str++);
    1406:	6709                	lui	a4,0x2
	while(*str)
    1408:	00044583          	lbu	a1,0(s0)
    140c:	e591                	bnez	a1,1418 <font16x16_to_framebuffer.part.0+0x1e>
}
    140e:	40a2                	lw	ra,8(sp)
    1410:	4412                	lw	s0,4(sp)
    1412:	4482                	lw	s1,0(sp)
    1414:	0131                	addi	sp,sp,12
    1416:	8082                	ret
		const char *lut_ptr = strchr(font16_16_lut, *str++);
    1418:	3d070513          	addi	a0,a4,976 # 23d0 <font16_16_lut>
    141c:	37e1                	jal	13e4 <strchr>
    141e:	0405                	addi	s0,s0,1
		if(lut_ptr == NULL) continue;
    1420:	6709                	lui	a4,0x2
    1422:	6689                	lui	a3,0x2
    1424:	d175                	beqz	a0,1408 <font16x16_to_framebuffer.part.0+0xe>
		const uint16_t *glyph = font16x16_data[lut_ptr - font16_16_lut];
    1426:	3d070793          	addi	a5,a4,976 # 23d0 <font16_16_lut>
    142a:	40f507b3          	sub	a5,a0,a5
    142e:	1b068613          	addi	a2,a3,432 # 21b0 <font16x16_data>
    1432:	0796                	slli	a5,a5,0x5
    1434:	97b2                	add	a5,a5,a2
    1436:	02078513          	addi	a0,a5,32
    143a:	8626                	mv	a2,s1
			ptr[line]              = (uint8_t)(glyph[line] & 0xFF);
    143c:	0007d583          	lhu	a1,0(a5)
		for(uint8_t line = 0; line < GLYPH_ROWS; line++)
    1440:	0789                	addi	a5,a5,2
    1442:	0605                	addi	a2,a2,1
			ptr[line]              = (uint8_t)(glyph[line] & 0xFF);
    1444:	feb60fa3          	sb	a1,-1(a2)
			ptr[line + OLED_WIDTH] = (uint8_t)(glyph[line] >> 8);
    1448:	ffe7d583          	lhu	a1,-2(a5)
    144c:	81a1                	srli	a1,a1,0x8
    144e:	06b60fa3          	sb	a1,127(a2)
		for(uint8_t line = 0; line < GLYPH_ROWS; line++)
    1452:	fea795e3          	bne	a5,a0,143c <font16x16_to_framebuffer.part.0+0x42>
		ptr += GLYPH_ROWS;
    1456:	04c1                	addi	s1,s1,16
    1458:	bf45                	j	1408 <font16x16_to_framebuffer.part.0+0xe>

0000145a <memcpy>:
	for (; n; n--) *d++ = *s++;
    145a:	4781                	li	a5,0
    145c:	00f61363          	bne	a2,a5,1462 <memcpy+0x8>
}
    1460:	8082                	ret
	for (; n; n--) *d++ = *s++;
    1462:	00f58733          	add	a4,a1,a5
    1466:	00074683          	lbu	a3,0(a4)
    146a:	00f50733          	add	a4,a0,a5
    146e:	0785                	addi	a5,a5,1
    1470:	00d70023          	sb	a3,0(a4)
    1474:	b7e5                	j	145c <memcpy+0x2>

00001476 <font8x8_to_framebuffer.part.0>:
static void font8x8_to_framebuffer(const char *str, uint8_t *ptr)
    1476:	1151                	addi	sp,sp,-12
    1478:	c222                	sw	s0,4(sp)
    147a:	c026                	sw	s1,0(sp)
    147c:	c406                	sw	ra,8(sp)
    147e:	84aa                	mv	s1,a0
    1480:	842e                	mv	s0,a1
		const char *lut_ptr = strchr(font8x8_lut, *str++);
    1482:	6709                	lui	a4,0x2
	while(*str)
    1484:	0004c583          	lbu	a1,0(s1)
    1488:	e591                	bnez	a1,1494 <font8x8_to_framebuffer.part.0+0x1e>
}
    148a:	40a2                	lw	ra,8(sp)
    148c:	4412                	lw	s0,4(sp)
    148e:	4482                	lw	s1,0(sp)
    1490:	0131                	addi	sp,sp,12
    1492:	8082                	ret
		const char *lut_ptr = strchr(font8x8_lut, *str++);
    1494:	18070513          	addi	a0,a4,384 # 2180 <font8x8_lut>
    1498:	37b1                	jal	13e4 <strchr>
    149a:	0485                	addi	s1,s1,1
		if(lut_ptr == NULL) continue;
    149c:	6709                	lui	a4,0x2
    149e:	6689                	lui	a3,0x2
    14a0:	d175                	beqz	a0,1484 <font8x8_to_framebuffer.part.0+0xe>
		memcpy(ptr, font8x8_data[lut_ptr - font8x8_lut], sizeof(font8x8_data[0]));
    14a2:	18070793          	addi	a5,a4,384 # 2180 <font8x8_lut>
    14a6:	40f507b3          	sub	a5,a0,a5
    14aa:	00868613          	addi	a2,a3,8 # 2008 <font8x8_data>
    14ae:	078e                	slli	a5,a5,0x3
    14b0:	97b2                	add	a5,a5,a2
    14b2:	4390                	lw	a2,0(a5)
    14b4:	c010                	sw	a2,0(s0)
    14b6:	43dc                	lw	a5,4(a5)
    14b8:	c05c                	sw	a5,4(s0)
		ptr += sizeof(font8x8_data[0]);
    14ba:	0421                	addi	s0,s0,8
    14bc:	b7e1                	j	1484 <font8x8_to_framebuffer.part.0+0xe>

000014be <display_update_task>:
{
    14be:	1131                	addi	sp,sp,-20
    14c0:	c426                	sw	s1,8(sp)
    14c2:	c622                	sw	s0,12(sp)
	if(p_user_input_mode != g_user_input_mode)
    14c4:	c641a403          	lw	s0,-924(gp) # 20000060 <g_user_input_mode>
    14c8:	c801a783          	lw	a5,-896(gp) # 2000007c <p_user_input_mode.8>
{
    14cc:	c806                	sw	ra,16(sp)
	if(p_user_input_mode != g_user_input_mode)
    14ce:	00878a63          	beq	a5,s0,14e2 <display_update_task+0x24>
}


void oled_clear_display(void)
{
	memset(&_oled_buffer[0][0], 0x00, OLED_WIDTH * OLED_PAGES);
    14d2:	40000613          	li	a2,1024
    14d6:	4581                	li	a1,0
    14d8:	cc018513          	addi	a0,gp,-832 # 200000bc <_oled_buffer>
    14dc:	3ddd                	jal	13d2 <memset>
		p_user_input_mode = g_user_input_mode;
    14de:	c881a023          	sw	s0,-896(gp) # 2000007c <p_user_input_mode.8>
	switch(g_user_input_mode)
    14e2:	4795                	li	a5,5
    14e4:	1ef40563          	beq	s0,a5,16ce <display_update_task+0x210>
    14e8:	4799                	li	a5,6
    14ea:	20f40563          	beq	s0,a5,16f4 <display_update_task+0x236>
    14ee:	4785                	li	a5,1
    14f0:	1af41a63          	bne	s0,a5,16a4 <display_update_task+0x1e6>
			oled_draw_battery_current(g_battery_current_ma);
    14f4:	c8c1d403          	lhu	s0,-884(gp) # 20000088 <g_battery_current_ma>
	uint16_t whole = val / 1000;          // volts
    14f8:	3e800593          	li	a1,1000
    14fc:	8522                	mv	a0,s0
    14fe:	846ff0ef          	jal	544 <__hidden___udivsi3>
    1502:	01051793          	slli	a5,a0,0x10
    1506:	83c1                	srli	a5,a5,0x10
	uint16_t frac  = (val % 1000) / 10;   // hundredths of a volt
    1508:	3e800593          	li	a1,1000
    150c:	8522                	mv	a0,s0
	uint16_t whole = val / 1000;          // volts
    150e:	c03e                	sw	a5,0(sp)
	uint16_t frac  = (val % 1000) / 10;   // hundredths of a volt
    1510:	860ff0ef          	jal	570 <__umodsi3>
    1514:	0542                	slli	a0,a0,0x10
    1516:	45a9                	li	a1,10
    1518:	8141                	srli	a0,a0,0x10
    151a:	82aff0ef          	jal	544 <__hidden___udivsi3>
    151e:	01051793          	slli	a5,a0,0x10
	str[0] = (whole / 10) + '0';
    1522:	4502                	lw	a0,0(sp)
	uint16_t frac  = (val % 1000) / 10;   // hundredths of a volt
    1524:	83c1                	srli	a5,a5,0x10
	str[0] = (whole / 10) + '0';
    1526:	45a9                	li	a1,10
	uint16_t frac  = (val % 1000) / 10;   // hundredths of a volt
    1528:	c23e                	sw	a5,4(sp)
	str[0] = (whole / 10) + '0';
    152a:	81aff0ef          	jal	544 <__hidden___udivsi3>
    152e:	03050513          	addi	a0,a0,48
    1532:	c4a18023          	sb	a0,-960(gp) # 2000003c <current_str.5>
	str[1] = (whole % 10) + '0';
    1536:	4502                	lw	a0,0(sp)
    1538:	45a9                	li	a1,10
    153a:	c4018413          	addi	s0,gp,-960 # 2000003c <current_str.5>
    153e:	832ff0ef          	jal	570 <__umodsi3>
    1542:	03050513          	addi	a0,a0,48
    1546:	00a400a3          	sb	a0,1(s0)
	str[3] = (frac / 10) + '0';
    154a:	4512                	lw	a0,4(sp)
	str[2] = '.';
    154c:	02e00713          	li	a4,46
    1550:	00e40123          	sb	a4,2(s0)
	str[3] = (frac / 10) + '0';
    1554:	45a9                	li	a1,10
    1556:	feffe0ef          	jal	544 <__hidden___udivsi3>
    155a:	03050513          	addi	a0,a0,48
    155e:	00a401a3          	sb	a0,3(s0)
	str[4] = (frac % 10) + '0';
    1562:	4512                	lw	a0,4(sp)
    1564:	45a9                	li	a1,10
    1566:	80aff0ef          	jal	570 <__umodsi3>
    156a:	03050513          	addi	a0,a0,48
    156e:	00a40223          	sb	a0,4(s0)
	if(str == NULL || ptr == NULL) return;
    1572:	cc018593          	addi	a1,gp,-832 # 200000bc <_oled_buffer>
    1576:	c4018513          	addi	a0,gp,-960 # 2000003c <current_str.5>
    157a:	3df5                	jal	1476 <font8x8_to_framebuffer.part.0>
			oled_draw_battery_percent(g_battery_percentage);
    157c:	c8e1c403          	lbu	s0,-882(gp) # 2000008a <g_battery_percentage>

void oled_draw_battery_percent(const uint8_t batt_perc)
{
	const uint8_t *font_ptr = NULL;

	font_ptr = (batt_perc >= 75) ? FONT6x8_BATTPERC_FILLED_TOP : FONT6x8_BATTPERC_EMPTY_TOP;
    1580:	04a00793          	li	a5,74
    1584:	1287f663          	bgeu	a5,s0,16b0 <display_update_task+0x1f2>
    1588:	6589                	lui	a1,0x2
    158a:	3f458593          	addi	a1,a1,1012 # 23f4 <font6x8_battperc_data>
	memcpy(&_oled_buffer[0][110], font_ptr, 6);
    158e:	4619                	li	a2,6
    1590:	d2e18513          	addi	a0,gp,-722 # 2000012a <_oled_buffer+0x6e>
    1594:	35d9                	jal	145a <memcpy>

	font_ptr = (batt_perc >= 50) ? FONT6x8_BATTPERC_FILLED_MIDDLE : FONT6x8_BATTPERC_EMPTY_MIDDLE;
    1596:	03100793          	li	a5,49
    159a:	1087ff63          	bgeu	a5,s0,16b8 <display_update_task+0x1fa>
    159e:	6589                	lui	a1,0x2
    15a0:	40058593          	addi	a1,a1,1024 # 2400 <font6x8_battperc_data+0xc>
	memcpy(&_oled_buffer[0][116], font_ptr, 6);
    15a4:	4619                	li	a2,6
    15a6:	d3418513          	addi	a0,gp,-716 # 20000130 <_oled_buffer+0x74>
    15aa:	3d45                	jal	145a <memcpy>

	font_ptr = (batt_perc >= 25) ? FONT6x8_BATTPERC_FILLED_BOTTOM : FONT6x8_BATTPERC_EMPTY_BOTTOM;
    15ac:	47e1                	li	a5,24
    15ae:	1087f963          	bgeu	a5,s0,16c0 <display_update_task+0x202>
    15b2:	6589                	lui	a1,0x2
    15b4:	40c58593          	addi	a1,a1,1036 # 240c <font6x8_battperc_data+0x18>
	memcpy(&_oled_buffer[0][122], font_ptr, 6);
    15b8:	4619                	li	a2,6
    15ba:	d3a18513          	addi	a0,gp,-710 # 20000136 <_oled_buffer+0x7a>
    15be:	3d71                	jal	145a <memcpy>
			oled_draw_temperature(g_target_temperature, g_actual_temperature);
    15c0:	c581d483          	lhu	s1,-936(gp) # 20000054 <g_target_temperature>
    15c4:	c921d783          	lhu	a5,-878(gp) # 2000008e <g_actual_temperature>
	str[0] = '0' + ((val / 100) % 10);
    15c8:	06400593          	li	a1,100
    15cc:	8526                	mv	a0,s1
    15ce:	c03e                	sw	a5,0(sp)
    15d0:	f75fe0ef          	jal	544 <__hidden___udivsi3>
    15d4:	0542                	slli	a0,a0,0x10
    15d6:	45a9                	li	a1,10
    15d8:	8141                	srli	a0,a0,0x10
    15da:	f97fe0ef          	jal	570 <__umodsi3>
    15de:	03050513          	addi	a0,a0,48
    15e2:	c4a18823          	sb	a0,-944(gp) # 2000004c <target_str.3>
	str[1] = '0' + ((val / 10)  % 10);
    15e6:	45a9                	li	a1,10
    15e8:	8526                	mv	a0,s1
    15ea:	c5018413          	addi	s0,gp,-944 # 2000004c <target_str.3>
    15ee:	f57fe0ef          	jal	544 <__hidden___udivsi3>
    15f2:	0542                	slli	a0,a0,0x10
    15f4:	45a9                	li	a1,10
    15f6:	8141                	srli	a0,a0,0x10
    15f8:	f79fe0ef          	jal	570 <__umodsi3>
    15fc:	03050513          	addi	a0,a0,48
    1600:	00a400a3          	sb	a0,1(s0)
	str[2] = '0' +  (val % 10);	
    1604:	45a9                	li	a1,10
    1606:	8526                	mv	a0,s1
    1608:	f69fe0ef          	jal	570 <__umodsi3>
    160c:	03050513          	addi	a0,a0,48
    1610:	00a40123          	sb	a0,2(s0)
	str[0] = '0' + ((val / 100) % 10);
    1614:	4502                	lw	a0,0(sp)
    1616:	06400593          	li	a1,100
    161a:	f2bfe0ef          	jal	544 <__hidden___udivsi3>
    161e:	0542                	slli	a0,a0,0x10
    1620:	45a9                	li	a1,10
    1622:	8141                	srli	a0,a0,0x10
    1624:	f4dfe0ef          	jal	570 <__umodsi3>
    1628:	03050513          	addi	a0,a0,48
    162c:	c4a18423          	sb	a0,-952(gp) # 20000044 <actual_str.2>
	str[1] = '0' + ((val / 10)  % 10);
    1630:	4502                	lw	a0,0(sp)
    1632:	45a9                	li	a1,10
    1634:	c4818493          	addi	s1,gp,-952 # 20000044 <actual_str.2>
    1638:	f0dfe0ef          	jal	544 <__hidden___udivsi3>
    163c:	0542                	slli	a0,a0,0x10
    163e:	45a9                	li	a1,10
    1640:	8141                	srli	a0,a0,0x10
    1642:	f2ffe0ef          	jal	570 <__umodsi3>
    1646:	03050513          	addi	a0,a0,48
    164a:	00a480a3          	sb	a0,1(s1)
	str[2] = '0' +  (val % 10);	
    164e:	4502                	lw	a0,0(sp)
    1650:	45a9                	li	a1,10
    1652:	f1ffe0ef          	jal	570 <__umodsi3>
    1656:	03050513          	addi	a0,a0,48
    165a:	00a48123          	sb	a0,2(s1)
	if(str == NULL || ptr == NULL) return;
    165e:	6509                	lui	a0,0x2
    1660:	d4018593          	addi	a1,gp,-704 # 2000013c <_oled_buffer+0x80>
    1664:	f8050513          	addi	a0,a0,-128 # 1f80 <__clz_tab+0x100>
    1668:	3539                	jal	1476 <font8x8_to_framebuffer.part.0>
	if(str == NULL || ptr == NULL) return;
    166a:	c5018513          	addi	a0,gp,-944 # 2000004c <target_str.3>
    166e:	dd818593          	addi	a1,gp,-552 # 200001d4 <_oled_buffer+0x118>
    1672:	3361                	jal	13fa <font16x16_to_framebuffer.part.0>
	if(str == NULL || ptr == NULL) return;
    1674:	6509                	lui	a0,0x2
    1676:	f4018593          	addi	a1,gp,-192 # 2000033c <_oled_buffer+0x280>
    167a:	f9450513          	addi	a0,a0,-108 # 1f94 <__clz_tab+0x114>
    167e:	3be5                	jal	1476 <font8x8_to_framebuffer.part.0>
	if(str == NULL || ptr == NULL) return;
    1680:	fd818593          	addi	a1,gp,-40 # 200003d4 <_oled_buffer+0x318>
    1684:	c4818513          	addi	a0,gp,-952 # 20000044 <actual_str.2>
    1688:	3b8d                	jal	13fa <font16x16_to_framebuffer.part.0>
void oled_draw_heater_state(const bool heater_on)
{
	static const uint8_t icon_on[8] =  { 0x3C, 0x7E, 0xFF, 0xFF, 0xFF, 0xFF, 0x7E, 0x3C };
	static const uint8_t icon_off[8] = { 0x3C, 0x66, 0xC3, 0x81, 0x81, 0xC3, 0x66, 0x3C };

	const uint8_t *ptr = heater_on ? icon_on : icon_off;
    168a:	cac1a703          	lw	a4,-852(gp) # 200000a8 <g_system_state>
    168e:	4789                	li	a5,2
    1690:	02f71c63          	bne	a4,a5,16c8 <display_update_task+0x20a>
    1694:	c7418793          	addi	a5,gp,-908 # 20000070 <icon_on.1>
	memcpy(&_oled_buffer[6][120], ptr, 8);	
    1698:	4394                	lw	a3,0(a5)
    169a:	43dc                	lw	a5,4(a5)
    169c:	03818713          	addi	a4,gp,56 # 20000434 <__global_pointer$+0x38>
    16a0:	c314                	sw	a3,0(a4)
    16a2:	c35c                	sw	a5,4(a4)
}
    16a4:	4432                	lw	s0,12(sp)
    16a6:	40c2                	lw	ra,16(sp)
    16a8:	44a2                	lw	s1,8(sp)
    16aa:	0151                	addi	sp,sp,20
	oled_update();
    16ac:	9e9ff06f          	j	1094 <oled_update.isra.0>
	font_ptr = (batt_perc >= 75) ? FONT6x8_BATTPERC_FILLED_TOP : FONT6x8_BATTPERC_EMPTY_TOP;
    16b0:	6589                	lui	a1,0x2
    16b2:	3fa58593          	addi	a1,a1,1018 # 23fa <font6x8_battperc_data+0x6>
    16b6:	bde1                	j	158e <display_update_task+0xd0>
	font_ptr = (batt_perc >= 50) ? FONT6x8_BATTPERC_FILLED_MIDDLE : FONT6x8_BATTPERC_EMPTY_MIDDLE;
    16b8:	6589                	lui	a1,0x2
    16ba:	40658593          	addi	a1,a1,1030 # 2406 <font6x8_battperc_data+0x12>
    16be:	b5dd                	j	15a4 <display_update_task+0xe6>
	font_ptr = (batt_perc >= 25) ? FONT6x8_BATTPERC_FILLED_BOTTOM : FONT6x8_BATTPERC_EMPTY_BOTTOM;
    16c0:	6589                	lui	a1,0x2
    16c2:	41258593          	addi	a1,a1,1042 # 2412 <font6x8_battperc_data+0x1e>
    16c6:	bdcd                	j	15b8 <display_update_task+0xfa>
	const uint8_t *ptr = heater_on ? icon_on : icon_off;
    16c8:	c6c18793          	addi	a5,gp,-916 # 20000068 <icon_off.0>
    16cc:	b7f1                	j	1698 <display_update_task+0x1da>
	if(str == NULL || ptr == NULL) return;
    16ce:	6509                	lui	a0,0x2
    16d0:	dcc18593          	addi	a1,gp,-564 # 200001c8 <_oled_buffer+0x10c>
    16d4:	fa850513          	addi	a0,a0,-88 # 1fa8 <__clz_tab+0x128>
    16d8:	3b79                	jal	1476 <font8x8_to_framebuffer.part.0>
    16da:	6509                	lui	a0,0x2
    16dc:	ee418593          	addi	a1,gp,-284 # 200002e0 <_oled_buffer+0x224>
    16e0:	fb850513          	addi	a0,a0,-72 # 1fb8 <__clz_tab+0x138>
    16e4:	3b49                	jal	1476 <font8x8_to_framebuffer.part.0>
    16e6:	6509                	lui	a0,0x2
    16e8:	f5418593          	addi	a1,gp,-172 # 20000350 <_oled_buffer+0x294>
    16ec:	fc050513          	addi	a0,a0,-64 # 1fc0 <__clz_tab+0x140>
    16f0:	3359                	jal	1476 <font8x8_to_framebuffer.part.0>
			break;
    16f2:	bf4d                	j	16a4 <display_update_task+0x1e6>
    16f4:	6509                	lui	a0,0x2
    16f6:	dcc18593          	addi	a1,gp,-564 # 200001c8 <_oled_buffer+0x10c>
    16fa:	fa850513          	addi	a0,a0,-88 # 1fa8 <__clz_tab+0x128>
    16fe:	3ba5                	jal	1476 <font8x8_to_framebuffer.part.0>
    1700:	6509                	lui	a0,0x2
    1702:	ee418593          	addi	a1,gp,-284 # 200002e0 <_oled_buffer+0x224>
    1706:	fb850513          	addi	a0,a0,-72 # 1fb8 <__clz_tab+0x138>
    170a:	33b5                	jal	1476 <font8x8_to_framebuffer.part.0>
    170c:	6509                	lui	a0,0x2
    170e:	f5418593          	addi	a1,gp,-172 # 20000350 <_oled_buffer+0x294>
    1712:	fcc50513          	addi	a0,a0,-52 # 1fcc <__clz_tab+0x14c>
    1716:	bfe9                	j	16f0 <display_update_task+0x232>

00001718 <SystemInit>:
	#endif
#elif defined(CH32X03x)
	FLASH->ACTLR = FLASH_ACTLR_LATENCY_2;                   // +2 Cycle Latency (Recommended per TRM)
#elif defined(CH32V003)
	#if FUNCONF_SYSTEM_CORE_CLOCK > 25000000
		FLASH->ACTLR = FLASH_ACTLR_LATENCY_1;               // +1 Cycle Latency
    1718:	400227b7          	lui	a5,0x40022
    171c:	4705                	li	a4,1
    171e:	c398                	sw	a4,0(a5)
#elif defined(FUNCONF_USE_HSI) && FUNCONF_USE_HSI
	#if defined(CH32V30x) || defined(CH32V20x) || defined(CH32V10x)
		EXTEN->EXTEN_CTR |= EXTEN_PLL_HSI_PRE;
	#endif
	#if defined(FUNCONF_USE_PLL) && FUNCONF_USE_PLL
		RCC->CFGR0 = BASE_CFGR0;
    1720:	400217b7          	lui	a5,0x40021
		RCC->CTLR  = BASE_CTLR | RCC_HSION | RCC_PLLON; 			// Use HSI, enable PLL.
    1724:	01080737          	lui	a4,0x1080
		RCC->CFGR0 = BASE_CFGR0;
    1728:	0007a223          	sw	zero,4(a5) # 40021004 <_eusrstack+0x20020804>
		RCC->CTLR  = BASE_CTLR | RCC_HSION | RCC_PLLON; 			// Use HSI, enable PLL.
    172c:	08170713          	addi	a4,a4,129 # 1080081 <sysinit.c.f98e60a8+0x1079779>
    1730:	c398                	sw	a4,0(a5)
		FLASH->ACTLR = FLASH_ACTLR_LATENCY_1;       		// +1 Cycle Latency
	#endif
#endif

#if !defined(CH57x) && !defined(CH58x) && !defined(CH59x)
	RCC->INTR  = 0x009F0000;                               // Clear PLL, CSSC, HSE, HSI and LSI ready flags.
    1732:	009f0737          	lui	a4,0x9f0
    1736:	c798                	sw	a4,8(a5)
#endif

#if defined(FUNCONF_USE_PLL) && FUNCONF_USE_PLL && !defined(CH57x) && !defined(CH58x) && !defined(CH59x)
	while((RCC->CTLR & RCC_PLLRDY) == 0);                       	// Wait till PLL is ready
    1738:	4398                	lw	a4,0(a5)
    173a:	00671693          	slli	a3,a4,0x6
    173e:	fe06dde3          	bgez	a3,1738 <SystemInit+0x20>
	uint32_t tmp32 = RCC->CFGR0 & ~(0x03);							// clr the SW
    1742:	43d8                	lw	a4,4(a5)
	RCC->CFGR0 = tmp32 | RCC_SW_PLL;                       			// Select PLL as system clock source
	while ((RCC->CFGR0 & (uint32_t)RCC_SWS) != (uint32_t)0x08); 	// Wait till PLL is used as system clock source
    1744:	400216b7          	lui	a3,0x40021
	uint32_t tmp32 = RCC->CFGR0 & ~(0x03);							// clr the SW
    1748:	9b71                	andi	a4,a4,-4
	RCC->CFGR0 = tmp32 | RCC_SW_PLL;                       			// Select PLL as system clock source
    174a:	00276713          	ori	a4,a4,2
    174e:	c3d8                	sw	a4,4(a5)
	while ((RCC->CFGR0 & (uint32_t)RCC_SWS) != (uint32_t)0x08); 	// Wait till PLL is used as system clock source
    1750:	4721                	li	a4,8
    1752:	42dc                	lw	a5,4(a3)
    1754:	8bb1                	andi	a5,a5,12
    1756:	fee79ee3          	bne	a5,a4,1752 <SystemInit+0x3a>
	*DMDATA1 = 0x00;
    175a:	e00007b7          	lui	a5,0xe0000
    175e:	0e07ac23          	sw	zero,248(a5) # e00000f8 <_eusrstack+0xbffff8f8>
	*DMDATA0 = 0x80;
    1762:	08000713          	li	a4,128
    1766:	0ee7aa23          	sw	a4,244(a5)
	SetupUART( UART_BRR );
#endif
#if defined( FUNCONF_USE_DEBUGPRINTF ) && FUNCONF_USE_DEBUGPRINTF
	SetupDebugPrintf();
#endif
}
    176a:	8082                	ret

0000176c <main>:
{
    176c:	7179                	addi	sp,sp,-48
    176e:	d422                	sw	s0,40(sp)
    1770:	d606                	sw	ra,44(sp)
    1772:	d226                	sw	s1,36(sp)
	SystemInit();
    1774:	3755                	jal	1718 <SystemInit>
	if(dev->regb == 0) dev->regb = 1;
    1776:	c2818793          	addi	a5,gp,-984 # 20000024 <i2c_oled>
    177a:	00a7c683          	lbu	a3,10(a5)
    177e:	c2818413          	addi	s0,gp,-984 # 20000024 <i2c_oled>
    1782:	4705                	li	a4,1
    1784:	c681                	beqz	a3,178c <main+0x20>
	if(dev->regb  > 4) dev->regb = 4;
    1786:	4711                	li	a4,4
    1788:	00d77463          	bgeu	a4,a3,1790 <main+0x24>
    178c:	00e40523          	sb	a4,10(s0)
	_i2c_timeout = dev->tout;
    1790:	4454                	lw	a3,12(s0)
	RCC->APB1PRSTR |=  RCC_APB1Periph_I2C1;
    1792:	002005b7          	lui	a1,0x200
	_i2c_timeout = dev->tout;
    1796:	c8d1ac23          	sw	a3,-872(gp) # 20000094 <_i2c_timeout>
	RCC->APB1PRSTR |=  RCC_APB1Periph_I2C1;
    179a:	40021737          	lui	a4,0x40021
    179e:	4b14                	lw	a3,16(a4)
	RCC->APB1PRSTR &= ~RCC_APB1Periph_I2C1;
    17a0:	ffe00637          	lui	a2,0xffe00
    17a4:	167d                	addi	a2,a2,-1 # ffdfffff <_eusrstack+0xdfdff7ff>
	RCC->APB1PRSTR |=  RCC_APB1Periph_I2C1;
    17a6:	8ecd                	or	a3,a3,a1
    17a8:	cb14                	sw	a3,16(a4)
	RCC->APB1PRSTR &= ~RCC_APB1Periph_I2C1;
    17aa:	4b14                	lw	a3,16(a4)
	I2C_PORT->CFGLR |= (GPIO_Speed_10MHz | GPIO_CNF_OUT_OD_AF) << (4 * I2C_PIN_SCL);
    17ac:	6485                	lui	s1,0x1
	RCC->APB1PRSTR &= ~RCC_APB1Periph_I2C1;
    17ae:	8ef1                	and	a3,a3,a2
    17b0:	cb14                	sw	a3,16(a4)
	RCC->APB1PCENR |= RCC_APB1Periph_I2C1;
    17b2:	4f54                	lw	a3,28(a4)
	AFIO->PCFR1 &= ~(0x04400002);
    17b4:	fbc00637          	lui	a2,0xfbc00
    17b8:	1675                	addi	a2,a2,-3 # fbbffffd <_eusrstack+0xdbbff7fd>
	RCC->APB1PCENR |= RCC_APB1Periph_I2C1;
    17ba:	8ecd                	or	a3,a3,a1
    17bc:	cf54                	sw	a3,28(a4)
	RCC->APB2PCENR |= I2C_PORT_RCC | RCC_APB2Periph_AFIO;
    17be:	4f14                	lw	a3,24(a4)
    17c0:	0116e693          	ori	a3,a3,17
    17c4:	cf14                	sw	a3,24(a4)
	AFIO->PCFR1 &= ~(0x04400002);
    17c6:	40010737          	lui	a4,0x40010
    17ca:	4354                	lw	a3,4(a4)
    17cc:	8ef1                	and	a3,a3,a2
    17ce:	c354                	sw	a3,4(a4)
	AFIO->PCFR1 |= I2C_AFIO_REG;
    17d0:	4354                	lw	a3,4(a4)
	I2C_PORT->CFGLR &= ~(0x0F << (4 * I2C_PIN_SCL));
    17d2:	767d                	lui	a2,0xfffff
    17d4:	0ff60613          	addi	a2,a2,255 # fffff0ff <_eusrstack+0xdfffe8ff>
	AFIO->PCFR1 |= I2C_AFIO_REG;
    17d8:	c354                	sw	a3,4(a4)
	I2C_PORT->CFGLR &= ~(0x0F << (4 * I2C_PIN_SDA));
    17da:	40011737          	lui	a4,0x40011
    17de:	4314                	lw	a3,0(a4)
    17e0:	f0f6f693          	andi	a3,a3,-241
    17e4:	c314                	sw	a3,0(a4)
	I2C_PORT->CFGLR |= (GPIO_Speed_10MHz | GPIO_CNF_OUT_OD_AF) << (4 * I2C_PIN_SDA);	
    17e6:	4314                	lw	a3,0(a4)
    17e8:	0d06e693          	ori	a3,a3,208
    17ec:	c314                	sw	a3,0(a4)
	I2C_PORT->CFGLR &= ~(0x0F << (4 * I2C_PIN_SCL));
    17ee:	4314                	lw	a3,0(a4)
    17f0:	8ef1                	and	a3,a3,a2
    17f2:	c314                	sw	a3,0(a4)
	I2C_PORT->CFGLR |= (GPIO_Speed_10MHz | GPIO_CNF_OUT_OD_AF) << (4 * I2C_PIN_SCL);
    17f4:	4314                	lw	a3,0(a4)
    17f6:	d0048613          	addi	a2,s1,-768 # d00 <i2c_error+0x64>
    17fa:	8ed1                	or	a3,a3,a2
    17fc:	c314                	sw	a3,0(a4)
	uint16_t i2c_conf = I2C1->CTLR2 & ~I2C_CTLR2_FREQ;
    17fe:	400056b7          	lui	a3,0x40005
    1802:	4046d703          	lhu	a4,1028(a3) # 40005404 <_eusrstack+0x20004c04>
    1806:	6641                	lui	a2,0x10
    1808:	fc060613          	addi	a2,a2,-64 # ffc0 <sysinit.c.f98e60a8+0x96b8>
    180c:	8f71                	and	a4,a4,a2
	i2c_conf |= (FUNCONF_SYSTEM_CORE_CLOCK / I2C_PRERATE) & I2C_CTLR2_FREQ;
    180e:	03076713          	ori	a4,a4,48
	I2C1->CTLR2 = i2c_conf;
    1812:	40e69223          	sh	a4,1028(a3)
	if(dev->clkr <= 100000)
    1816:	4018                	lw	a4,0(s0)
    1818:	66e1                	lui	a3,0x18
    181a:	6a068693          	addi	a3,a3,1696 # 186a0 <sysinit.c.f98e60a8+0x11d98>
    181e:	00171593          	slli	a1,a4,0x1
    1822:	3ce6ef63          	bltu	a3,a4,1c00 <main+0x494>
		i2c_conf = (FUNCONF_SYSTEM_CORE_CLOCK / (2 * dev->clkr)) & I2C_CKCFGR_CCR;
    1826:	02dc7537          	lui	a0,0x2dc7
    182a:	c0050513          	addi	a0,a0,-1024 # 2dc6c00 <sysinit.c.f98e60a8+0x2dc02f8>
    182e:	d17fe0ef          	jal	544 <__hidden___udivsi3>
    1832:	14fd                	addi	s1,s1,-1
    1834:	8d65                	and	a0,a0,s1
		i2c_conf |= I2C_CKCFGR_FS;
    1836:	0542                	slli	a0,a0,0x10
	I2C1->CKCFGR = i2c_conf;
    1838:	40005737          	lui	a4,0x40005
		i2c_conf |= I2C_CKCFGR_FS;
    183c:	8141                	srli	a0,a0,0x10
	I2C1->CKCFGR = i2c_conf;
    183e:	40a71e23          	sh	a0,1052(a4) # 4000541c <_eusrstack+0x20004c1c>
	I2C1->CTLR1 |= I2C_CTLR1_PE;
    1842:	40075683          	lhu	a3,1024(a4)
    1846:	0016e693          	ori	a3,a3,1
    184a:	40d71023          	sh	a3,1024(a4)
	return i2c_error();
    184e:	c4eff0ef          	jal	c9c <i2c_error>
	Delay_Ms(20);
    1852:	000ea537          	lui	a0,0xea
    1856:	60050513          	addi	a0,a0,1536 # ea600 <sysinit.c.f98e60a8+0xe3cf8>
    185a:	e85fe0ef          	jal	6de <DelaySysTick>
	const uint8_t init_arr[] = {
    185e:	6589                	lui	a1,0x2
    1860:	4665                	li	a2,25
    1862:	e6458593          	addi	a1,a1,-412 # 1e64 <thermistor_pair+0x130>
    1866:	0028                	addi	a0,sp,8
	_oled_dev = dev;
    1868:	c881ae23          	sw	s0,-868(gp) # 20000098 <_oled_dev>
	const uint8_t init_arr[] = {
    186c:	36fd                	jal	145a <memcpy>
	OLED_WRITE(OLED_REG_COMMAND, init_arr,  sizeof(init_arr));
    186e:	0030                	addi	a2,sp,8
    1870:	46e5                	li	a3,25
    1872:	c2818513          	addi	a0,gp,-984 # 20000024 <i2c_oled>
    1876:	4581                	li	a1,0
    1878:	e02ff0ef          	jal	e7a <i2c_write_reg>
	if(str == NULL || ptr == NULL) return;
    187c:	6509                	lui	a0,0x2
    187e:	de418593          	addi	a1,gp,-540 # 200001e0 <_oled_buffer+0x124>
    1882:	fd850513          	addi	a0,a0,-40 # 1fd8 <__clz_tab+0x158>
    1886:	3ec5                	jal	1476 <font8x8_to_framebuffer.part.0>
    1888:	6509                	lui	a0,0x2
    188a:	e6418593          	addi	a1,gp,-412 # 20000260 <_oled_buffer+0x1a4>
    188e:	fe050513          	addi	a0,a0,-32 # 1fe0 <__clz_tab+0x160>
    1892:	36d5                	jal	1476 <font8x8_to_framebuffer.part.0>
    1894:	6509                	lui	a0,0x2
    1896:	ef018593          	addi	a1,gp,-272 # 200002ec <_oled_buffer+0x230>
    189a:	fe850513          	addi	a0,a0,-24 # 1fe8 <__clz_tab+0x168>
void pwm_init(void)
{
	// NOTE: Uses TIM2 Channel 2 (PD3) and TIM2 Channel 3 (PC0)

	// Enable TIM2 Clock
	RCC->APB1PCENR |= RCC_APB1Periph_TIM2;
    189e:	40021437          	lui	s0,0x40021
    18a2:	3ed1                	jal	1476 <font8x8_to_framebuffer.part.0>
	oled_update();
    18a4:	ff0ff0ef          	jal	1094 <oled_update.isra.0>
    18a8:	4c5c                	lw	a5,28(s0)
	RCC->APB2PCENR |= RCC_APB2Periph_GPIOD | RCC_APB2Periph_GPIOC;

	// Alternate Function PushPull Outputs
	GPIOC->CFGLR &= ~(0x0F << 0);
	GPIOC->CFGLR |=  (GPIO_CNF_OUT_PP_AF | GPIO_Speed_10MHz) << 0;       // PC0
	GPIOD->CFGLR &= ~(0x0F << (3 * 4));
    18aa:	76c5                	lui	a3,0xffff1
    18ac:	16fd                	addi	a3,a3,-1 # ffff0fff <_eusrstack+0xdfff07ff>
	RCC->APB1PCENR |= RCC_APB1Periph_TIM2;
    18ae:	0017e793          	ori	a5,a5,1
    18b2:	cc5c                	sw	a5,28(s0)
	RCC->APB2PCENR |= RCC_APB2Periph_GPIOD | RCC_APB2Periph_GPIOC;
    18b4:	4c1c                	lw	a5,24(s0)
	gpio_set_mode(ROTENC_SW_PIN, INPUT_PULLUP);
    18b6:	45e1                	li	a1,24
    18b8:	30200513          	li	a0,770
    18bc:	0307e793          	ori	a5,a5,48
    18c0:	cc1c                	sw	a5,24(s0)
	GPIOC->CFGLR &= ~(0x0F << 0);
    18c2:	400117b7          	lui	a5,0x40011
    18c6:	4398                	lw	a4,0(a5)
    18c8:	9b41                	andi	a4,a4,-16
    18ca:	c398                	sw	a4,0(a5)
	GPIOC->CFGLR |=  (GPIO_CNF_OUT_PP_AF | GPIO_Speed_10MHz) << 0;       // PC0
    18cc:	4398                	lw	a4,0(a5)
    18ce:	00976713          	ori	a4,a4,9
    18d2:	c398                	sw	a4,0(a5)
	GPIOD->CFGLR &= ~(0x0F << (3 * 4));
    18d4:	40078793          	addi	a5,a5,1024 # 40011400 <_eusrstack+0x20010c00>
    18d8:	4398                	lw	a4,0(a5)
    18da:	8f75                	and	a4,a4,a3
    18dc:	c398                	sw	a4,0(a5)
	GPIOD->CFGLR |=  (GPIO_CNF_OUT_PP_AF | GPIO_Speed_10MHz) << (3 * 4); // PD3
    18de:	4398                	lw	a4,0(a5)
    18e0:	66a5                	lui	a3,0x9
    18e2:	8f55                	or	a4,a4,a3
    18e4:	c398                	sw	a4,0(a5)

	// Reset TIM2, Inits all registers
	RCC->APB1PRSTR |=  RCC_APB1Periph_TIM2;
    18e6:	481c                	lw	a5,16(s0)
	RCC->APB1PRSTR &= ~RCC_APB1Periph_TIM2;

	// Set Prescaler to ~17KHz. More efficient switching
	TIM2->PSC = 0x000A;
    18e8:	4729                	li	a4,10
	// Set PWM Max Value (Autoreload Value)
	TIM2->ATRLR = 254;

	// Set the Compare Capture Register for Channel 3
	// TIM2_OC3M = 0b111 - PWM Mode 2 - Enable Preload
	TIM2->CHCTLR1 |= TIM_OC2M_2 | TIM_OC2M_1 | TIM_OC2M_0 | TIM_OC2PE;
    18ea:	66a1                	lui	a3,0x8
	RCC->APB1PRSTR |=  RCC_APB1Periph_TIM2;
    18ec:	0017e793          	ori	a5,a5,1
    18f0:	c81c                	sw	a5,16(s0)
	RCC->APB1PRSTR &= ~RCC_APB1Periph_TIM2;
    18f2:	481c                	lw	a5,16(s0)
	TIM2->CHCTLR1 |= TIM_OC2M_2 | TIM_OC2M_1 | TIM_OC2M_0 | TIM_OC2PE;
    18f4:	80068693          	addi	a3,a3,-2048 # 7800 <sysinit.c.f98e60a8+0xef8>
	RCC->APB1PRSTR &= ~RCC_APB1Periph_TIM2;
    18f8:	9bf9                	andi	a5,a5,-2
    18fa:	c81c                	sw	a5,16(s0)
	TIM2->PSC = 0x000A;
    18fc:	400007b7          	lui	a5,0x40000
    1900:	02e79423          	sh	a4,40(a5) # 40000028 <_eusrstack+0x1ffff828>
	TIM2->ATRLR = 254;
    1904:	0fe00713          	li	a4,254
    1908:	02e79623          	sh	a4,44(a5)
	TIM2->CHCTLR1 |= TIM_OC2M_2 | TIM_OC2M_1 | TIM_OC2M_0 | TIM_OC2PE;
    190c:	0187d703          	lhu	a4,24(a5)
    1910:	8f55                	or	a4,a4,a3
    1912:	00e79c23          	sh	a4,24(a5)
	TIM2->CHCTLR2 |= TIM_OC3M_2 | TIM_OC3M_1 | TIM_OC3M_0 | TIM_OC3PE;
    1916:	01c7d703          	lhu	a4,28(a5)
    191a:	07876713          	ori	a4,a4,120
    191e:	00e79e23          	sh	a4,28(a5)

	// Enable auto-reload
	TIM2->CTLR1 |= TIM_ARPE;
    1922:	0007d703          	lhu	a4,0(a5)
    1926:	08076713          	ori	a4,a4,128
    192a:	00e79023          	sh	a4,0(a5)

	// Enable channel output, polarity is ACTIVE_HIGH
	TIM2->CCER |= TIM_CC2E | TIM_CC2P;
    192e:	0207d703          	lhu	a4,32(a5)
    1932:	03076713          	ori	a4,a4,48
    1936:	02e79023          	sh	a4,32(a5)
	TIM2->CCER |= TIM_CC3E | TIM_CC3P;
    193a:	0207d703          	lhu	a4,32(a5)
    193e:	30076713          	ori	a4,a4,768
    1942:	02e79023          	sh	a4,32(a5)

	// Initialise Counter
	TIM2->SWEVGR |= TIM_UG;
    1946:	0147d703          	lhu	a4,20(a5)
    194a:	00176713          	ori	a4,a4,1
    194e:	00e79a23          	sh	a4,20(a5)

	// Enable TIM2
	TIM2->CTLR1 |= TIM_CEN;
    1952:	0007d703          	lhu	a4,0(a5)
    1956:	00176713          	ori	a4,a4,1
    195a:	00e79023          	sh	a4,0(a5)
	*tim_ptr[ch] = duty;
    195e:	0207ac23          	sw	zero,56(a5)
    1962:	0207ae23          	sw	zero,60(a5)
	gpio_set_mode(ROTENC_SW_PIN, INPUT_PULLUP);
    1966:	adaff0ef          	jal	c40 <gpio_set_mode>
	gpio_set_mode(ROTENC_A_PIN,  INPUT_PULLUP);
    196a:	45e1                	li	a1,24
    196c:	40200513          	li	a0,1026
    1970:	ad0ff0ef          	jal	c40 <gpio_set_mode>
	gpio_set_mode(ROTENC_B_PIN,  INPUT_PULLUP);
    1974:	45e1                	li	a1,24
    1976:	50200513          	li	a0,1282
    197a:	ac6ff0ef          	jal	c40 <gpio_set_mode>
	GPIO_RCC->APB2PCENR |= RCC_APB2Periph_ADC1;
    197e:	4c1c                	lw	a5,24(s0)
	GPIO_RCC->CFGR0 &= ~ADC_CLOCK_DIV_128;
    1980:	7741                	lui	a4,0xffff0
    1982:	7ff70713          	addi	a4,a4,2047 # ffff07ff <_eusrstack+0xdffeffff>
	GPIO_RCC->APB2PCENR |= RCC_APB2Periph_ADC1;
    1986:	2007e793          	ori	a5,a5,512
    198a:	cc1c                	sw	a5,24(s0)
	GPIO_RCC->CFGR0 &= ~ADC_CLOCK_DIV_128;
    198c:	405c                	lw	a5,4(s0)
	GPIO_ADC1->CTLR2 |= ADC_ADON | ADC_EXTSEL;
    198e:	000e06b7          	lui	a3,0xe0
    1992:	0685                	addi	a3,a3,1 # e0001 <sysinit.c.f98e60a8+0xd96f9>
	GPIO_RCC->CFGR0 &= ~ADC_CLOCK_DIV_128;
    1994:	8ff9                	and	a5,a5,a4
    1996:	c05c                	sw	a5,4(s0)
	GPIO_RCC->CFGR0 |= div;
    1998:	405c                	lw	a5,4(s0)
	GPIO_ADC1->SAMPTR1 = cycles;
    199a:	24925737          	lui	a4,0x24925
    199e:	92470713          	addi	a4,a4,-1756 # 24924924 <_eusrstack+0x4924124>
	GPIO_RCC->CFGR0 |= div;
    19a2:	c05c                	sw	a5,4(s0)
	GPIO_RCC->APB2PRSTR |=  RCC_APB2Periph_ADC1;
    19a4:	445c                	lw	a5,12(s0)
    19a6:	2007e793          	ori	a5,a5,512
    19aa:	c45c                	sw	a5,12(s0)
	GPIO_RCC->APB2PRSTR &= ~RCC_APB2Periph_ADC1;
    19ac:	445c                	lw	a5,12(s0)
    19ae:	dff7f793          	andi	a5,a5,-513
    19b2:	c45c                	sw	a5,12(s0)
	GPIO_ADC1->RSQR1 = 0;
    19b4:	400127b7          	lui	a5,0x40012
    19b8:	40078793          	addi	a5,a5,1024 # 40012400 <_eusrstack+0x20011c00>
    19bc:	0207a623          	sw	zero,44(a5)
	GPIO_ADC1->RSQR2 = 0;
    19c0:	0207a823          	sw	zero,48(a5)
	GPIO_ADC1->RSQR3 = 0;
    19c4:	0207aa23          	sw	zero,52(a5)
	GPIO_ADC1->SAMPTR1 = cycles;
    19c8:	c7d8                	sw	a4,12(a5)
	GPIO_ADC1->SAMPTR2 = cycles;
    19ca:	cb98                	sw	a4,16(a5)
	GPIO_ADC1->CTLR2 |= ADC_ADON | ADC_EXTSEL;
    19cc:	4798                	lw	a4,8(a5)
    19ce:	8f55                	or	a4,a4,a3
    19d0:	c798                	sw	a4,8(a5)
	GPIO_ADC1->CTLR2 |= ADC_RSTCAL;
    19d2:	4798                	lw	a4,8(a5)
    19d4:	00876713          	ori	a4,a4,8
    19d8:	c798                	sw	a4,8(a5)
	while(GPIO_ADC1->CTLR2 & ADC_RSTCAL);
    19da:	4798                	lw	a4,8(a5)
    19dc:	8b21                	andi	a4,a4,8
    19de:	ff75                	bnez	a4,19da <main+0x26e>
	GPIO_ADC1->CTLR2 |= ADC_CAL;
    19e0:	4798                	lw	a4,8(a5)
	while(GPIO_ADC1->CTLR2 & ADC_CAL);
    19e2:	40012437          	lui	s0,0x40012
    19e6:	40040413          	addi	s0,s0,1024 # 40012400 <_eusrstack+0x20011c00>
	GPIO_ADC1->CTLR2 |= ADC_CAL;
    19ea:	00476713          	ori	a4,a4,4
    19ee:	c798                	sw	a4,8(a5)
	while(GPIO_ADC1->CTLR2 & ADC_CAL);
    19f0:	441c                	lw	a5,8(s0)
    19f2:	8b91                	andi	a5,a5,4
    19f4:	fff5                	bnez	a5,19f0 <main+0x284>
	gpio_set_mode(OPAMP_CHA1_NEG, INPUT_FLOATING);
    19f6:	4591                	li	a1,4
    19f8:	10000513          	li	a0,256
    19fc:	a44ff0ef          	jal	c40 <gpio_set_mode>
	gpio_set_mode(OPAMP_CHA1_POS, INPUT_FLOATING);
    1a00:	4591                	li	a1,4
    1a02:	20000513          	li	a0,512
    1a06:	a3aff0ef          	jal	c40 <gpio_set_mode>
	gpio_set_mode(OPAMP_CHA2_POS, INPUT_FLOATING);
    1a0a:	4591                	li	a1,4
    1a0c:	70300513          	li	a0,1795
    1a10:	a30ff0ef          	jal	c40 <gpio_set_mode>
	gpio_set_mode(THERM_ADC_PIN,  INPUT_ANALOG);
    1a14:	4581                	li	a1,0
    1a16:	50300513          	li	a0,1283
    1a1a:	a26ff0ef          	jal	c40 <gpio_set_mode>
	gpio_set_mode(BSENS_ADC_PIN,  INPUT_ANALOG);
    1a1e:	4581                	li	a1,0
    1a20:	60300513          	li	a0,1539
    1a24:	a1cff0ef          	jal	c40 <gpio_set_mode>
	gpio_set_mode(OPAMP_ADC_PIN,  INPUT_ANALOG);	
    1a28:	4581                	li	a1,0
    1a2a:	40300513          	li	a0,1027
    1a2e:	a12ff0ef          	jal	c40 <gpio_set_mode>
	GPIO_EXTEN->EXTEN_CTR |= GPIO_EXTEN_OPA_EN;
    1a32:	400247b7          	lui	a5,0x40024
    1a36:	80078793          	addi	a5,a5,-2048 # 40023800 <_eusrstack+0x20023000>
    1a3a:	4398                	lw	a4,0(a5)
    1a3c:	66c1                	lui	a3,0x10
	gpio_set_opamp_inputs(GPIO_OPAMP_CH1_POS, GPIO_OPAMP_CH1_NEG);
    1a3e:	4501                	li	a0,0
    1a40:	8f55                	or	a4,a4,a3
    1a42:	c398                	sw	a4,0(a5)
    1a44:	adcff0ef          	jal	d20 <gpio_set_opamp_inputs.constprop.0>
	Delay_Ms(500);
    1a48:	016e3537          	lui	a0,0x16e3
    1a4c:	60050513          	addi	a0,a0,1536 # 16e3600 <sysinit.c.f98e60a8+0x16dccf8>
    1a50:	c8ffe0ef          	jal	6de <DelaySysTick>
	GPIO_ADC1->RSQR3 = (uint32_t)chan;
    1a54:	479d                	li	a5,7
    1a56:	d85c                	sw	a5,52(s0)
	GPIO_ADC1->CTLR2 |= ADC_SWSTART;
    1a58:	441c                	lw	a5,8(s0)
    1a5a:	00400737          	lui	a4,0x400
    1a5e:	8fd9                	or	a5,a5,a4
    1a60:	c41c                	sw	a5,8(s0)
	while(!(GPIO_ADC1->STATR & ADC_EOC));
    1a62:	40012437          	lui	s0,0x40012
    1a66:	40040413          	addi	s0,s0,1024 # 40012400 <_eusrstack+0x20011c00>
    1a6a:	401c                	lw	a5,0(s0)
    1a6c:	8b89                	andi	a5,a5,2
    1a6e:	dff5                	beqz	a5,1a6a <main+0x2fe>
	return GPIO_ADC1->RDATAR;
    1a70:	4464                	lw	s1,76(s0)
	gpio_set_opamp_inputs(GPIO_OPAMP_CH2_POS, GPIO_OPAMP_CH1_NEG);
    1a72:	4505                	li	a0,1
	_opamp_calibration_offset = gpio_analog_read(OPAMP_ADC_CH);
    1a74:	04c2                	slli	s1,s1,0x10
    1a76:	84c1                	srai	s1,s1,0x10
    1a78:	ca919123          	sh	s1,-862(gp) # 2000009e <_opamp_calibration_offset>
	gpio_set_opamp_inputs(GPIO_OPAMP_CH2_POS, GPIO_OPAMP_CH1_NEG);
    1a7c:	aa4ff0ef          	jal	d20 <gpio_set_opamp_inputs.constprop.0>
	Delay_Ms(500);
    1a80:	016e3537          	lui	a0,0x16e3
    1a84:	60050513          	addi	a0,a0,1536 # 16e3600 <sysinit.c.f98e60a8+0x16dccf8>
    1a88:	c57fe0ef          	jal	6de <DelaySysTick>
	GPIO_ADC1->RSQR3 = (uint32_t)chan;
    1a8c:	479d                	li	a5,7
    1a8e:	d85c                	sw	a5,52(s0)
	GPIO_ADC1->CTLR2 |= ADC_SWSTART;
    1a90:	441c                	lw	a5,8(s0)
    1a92:	00400737          	lui	a4,0x400
    1a96:	8fd9                	or	a5,a5,a4
    1a98:	c41c                	sw	a5,8(s0)
	while(!(GPIO_ADC1->STATR & ADC_EOC));
    1a9a:	400127b7          	lui	a5,0x40012
    1a9e:	40078793          	addi	a5,a5,1024 # 40012400 <_eusrstack+0x20011c00>
    1aa2:	4398                	lw	a4,0(a5)
    1aa4:	8b09                	andi	a4,a4,2
    1aa6:	df75                	beqz	a4,1aa2 <main+0x336>
	return GPIO_ADC1->RDATAR;
    1aa8:	47fc                	lw	a5,76(a5)
	int32_t delta = gpio_analog_read(OPAMP_ADC_CH) - _opamp_calibration_offset;
    1aaa:	07c2                	slli	a5,a5,0x10
    1aac:	83c1                	srli	a5,a5,0x10
    1aae:	409785b3          	sub	a1,a5,s1
	if(delta == 0) delta = 1;
    1ab2:	00979363          	bne	a5,s1,1ab8 <main+0x34c>
    1ab6:	4585                	li	a1,1
	_opamp_calibration_gain = ((int32_t)OPAMP_CAL_EXPECTED << 10) / delta;
    1ab8:	00080537          	lui	a0,0x80
    1abc:	a81fe0ef          	jal	53c <__divsi3>
    1ac0:	01051613          	slli	a2,a0,0x10
	printf("offset: %d\tgain: %d\n", _opamp_calibration_offset, _opamp_calibration_gain);
    1ac4:	6509                	lui	a0,0x2
	_opamp_calibration_gain = ((int32_t)OPAMP_CAL_EXPECTED << 10) / delta;
    1ac6:	8641                	srai	a2,a2,0x10
	printf("offset: %d\tgain: %d\n", _opamp_calibration_offset, _opamp_calibration_gain);
    1ac8:	85a6                	mv	a1,s1
    1aca:	ff050513          	addi	a0,a0,-16 # 1ff0 <__clz_tab+0x170>
	_opamp_calibration_gain = ((int32_t)OPAMP_CAL_EXPECTED << 10) / delta;
    1ace:	cac19023          	sh	a2,-864(gp) # 2000009c <_opamp_calibration_gain>
	printf("offset: %d\tgain: %d\n", _opamp_calibration_offset, _opamp_calibration_gain);
    1ad2:	8ddff0ef          	jal	13ae <printf>
	gpio_set_opamp_inputs(GPIO_OPAMP_CH1_POS, GPIO_OPAMP_CH1_NEG);
    1ad6:	4501                	li	a0,0
    1ad8:	a48ff0ef          	jal	d20 <gpio_set_opamp_inputs.constprop.0>
	Delay_Ms(500);
    1adc:	016e3537          	lui	a0,0x16e3
    1ae0:	60050513          	addi	a0,a0,1536 # 16e3600 <sysinit.c.f98e60a8+0x16dccf8>
    1ae4:	bfbfe0ef          	jal	6de <DelaySysTick>
	RCC->APB2PCENR |= RCC_APB2Periph_AFIO;
    1ae8:	40021737          	lui	a4,0x40021
    1aec:	4f1c                	lw	a5,24(a4)
	NVIC->IENR[((uint32_t)(IRQn) >> 5)] = (1 << ((uint32_t)(IRQn) & 0x1F));
    1aee:	e000e6b7          	lui	a3,0xe000e
    1af2:	0017e793          	ori	a5,a5,1
    1af6:	cf1c                	sw	a5,24(a4)
	AFIO->EXTICR    = AFIO_EXTICR_EXTI4_PC | AFIO_EXTICR_EXTI5_PC;
    1af8:	6785                	lui	a5,0x1
    1afa:	40010737          	lui	a4,0x40010
    1afe:	a0078793          	addi	a5,a5,-1536 # a00 <pid_heater_task+0x10e>
    1b02:	c71c                	sw	a5,8(a4)
	EXTI->INTENR    = EXTI_INTENR_MR4 | EXTI_INTENR_MR5;
    1b04:	40070793          	addi	a5,a4,1024 # 40010400 <_eusrstack+0x2000fc00>
    1b08:	03000713          	li	a4,48
    1b0c:	c398                	sw	a4,0(a5)
	EXTI->RTENR     = EXTI_RTENR_TR4  | EXTI_RTENR_TR5;
    1b0e:	c798                	sw	a4,8(a5)
	EXTI->FTENR     = EXTI_FTENR_TR4  | EXTI_FTENR_TR5;
    1b10:	c7d8                	sw	a4,12(a5)
	EXTI->INTFR = 0x00000030;
    1b12:	cbd8                	sw	a4,20(a5)
    1b14:	001007b7          	lui	a5,0x100
    1b18:	10f6a023          	sw	a5,256(a3) # e000e100 <_eusrstack+0xc000d900>
	SysTick->CMP = SYSTICK_ONE_MILLISECOND - 1;
    1b1c:	6731                	lui	a4,0xc
	SysTick->CTLR = 0x0000;
    1b1e:	e000f7b7          	lui	a5,0xe000f
    1b22:	0007a023          	sw	zero,0(a5) # e000f000 <_eusrstack+0xc000e800>
	SysTick->CMP = SYSTICK_ONE_MILLISECOND - 1;
    1b26:	b7f70713          	addi	a4,a4,-1153 # bb7f <sysinit.c.f98e60a8+0x5277>
    1b2a:	cb98                	sw	a4,16(a5)
	SysTick->CNT = 0x00000000;
    1b2c:	0007a423          	sw	zero,8(a5)
	_systick_millis = 0x00000000;
    1b30:	ca01a423          	sw	zero,-856(gp) # 200000a4 <_systick_millis>
	SysTick->CTLR |= SYSTICK_CTLR_STE   |  // Enable Counter
    1b34:	4398                	lw	a4,0(a5)
    1b36:	00776713          	ori	a4,a4,7
    1b3a:	c398                	sw	a4,0(a5)
    1b3c:	6785                	lui	a5,0x1
    1b3e:	10f6a023          	sw	a5,256(a3)
		pid->_integral    = 0;
    1b42:	c0418793          	addi	a5,gp,-1020 # 20000000 <heater_pid>
    1b46:	0007ac23          	sw	zero,24(a5) # 1018 <i2c_write_reg+0x19e>
		pid->_prev_error  = 0;
    1b4a:	0207a023          	sw	zero,32(a5)
	if(pid->scale == 0)   pid->scale = 1;
    1b4e:	47dc                	lw	a5,12(a5)
    1b50:	c0418413          	addi	s0,gp,-1020 # 20000000 <heater_pid>
    1b54:	e399                	bnez	a5,1b5a <main+0x3ee>
    1b56:	4785                	li	a5,1
    1b58:	c45c                	sw	a5,12(s0)
	pid->_iclamp = (pid->Ki != 0) ? ((pid->out_max * pid->scale) / pid->Ki) : 0;
    1b5a:	405c                	lw	a5,4(s0)
    1b5c:	cb99                	beqz	a5,1b72 <main+0x406>
    1b5e:	444c                	lw	a1,12(s0)
    1b60:	4848                	lw	a0,20(s0)
    1b62:	c03e                	sw	a5,0(sp)
    1b64:	9c1fe0ef          	jal	524 <__mulsi3>
    1b68:	4782                	lw	a5,0(sp)
    1b6a:	85be                	mv	a1,a5
    1b6c:	9d1fe0ef          	jal	53c <__divsi3>
    1b70:	87aa                	mv	a5,a0
    1b72:	cc5c                	sw	a5,28(s0)
	g_system_state    = SYSTEM_STATE_HEATER_DISABLED;
    1b74:	4785                	li	a5,1
    1b76:	caf1a623          	sw	a5,-852(gp) # 200000a8 <g_system_state>
	scheduler_add(led_update_task,     MILLIS_LED_UPDATE);
    1b7a:	45e5                	li	a1,25
    1b7c:	7b000513          	li	a0,1968
	g_user_input_mode = UI_MODE_CHANGE_TEMP;
    1b80:	c6f1a223          	sw	a5,-924(gp) # 20000060 <g_user_input_mode>
	scheduler_add(led_update_task,     MILLIS_LED_UPDATE);
    1b84:	ac2ff0ef          	jal	e46 <scheduler_add.isra.0>
	scheduler_add(user_input_task,     MILLIS_USER_INPUT_UPDATE);
    1b88:	6505                	lui	a0,0x1
    1b8a:	03200593          	li	a1,50
    1b8e:	85250513          	addi	a0,a0,-1966 # 852 <user_input_task>
    1b92:	ab4ff0ef          	jal	e46 <scheduler_add.isra.0>
	scheduler_add(pid_heater_task,     MILLIS_PID_HEATER_UPDATE);
    1b96:	6505                	lui	a0,0x1
    1b98:	06400593          	li	a1,100
    1b9c:	8f250513          	addi	a0,a0,-1806 # 8f2 <pid_heater_task>
    1ba0:	aa6ff0ef          	jal	e46 <scheduler_add.isra.0>
	scheduler_add(battery_check_task,  MILLIS_BATTERY_CHECK);
    1ba4:	6505                	lui	a0,0x1
    1ba6:	0fa00593          	li	a1,250
    1baa:	a5c50513          	addi	a0,a0,-1444 # a5c <battery_check_task>
    1bae:	a98ff0ef          	jal	e46 <scheduler_add.isra.0>
	scheduler_add(display_update_task, MILLIS_DISPLAY_UPDATE);
    1bb2:	6505                	lui	a0,0x1
    1bb4:	07d00593          	li	a1,125
    1bb8:	4be50513          	addi	a0,a0,1214 # 14be <display_update_task>
    1bbc:	a8aff0ef          	jal	e46 <scheduler_add.isra.0>
	IWDG->CTLR = IWDG_KEY_CHANGE;
    1bc0:	6715                	lui	a4,0x5
    1bc2:	400037b7          	lui	a5,0x40003
    1bc6:	55570713          	addi	a4,a4,1365 # 5555 <lib_gpioctrl.c.9b7c6186+0x69f>
    1bca:	c398                	sw	a4,0(a5)
    IWDG->PSCR = prescaler;
    1bcc:	4691                	li	a3,4
    1bce:	c3d4                	sw	a3,4(a5)
	IWDG->CTLR = IWDG_KEY_CHANGE;
    1bd0:	c398                	sw	a4,0(a5)
    IWDG->RLDR = rst_val & 0x0FFF;
    1bd2:	09b00713          	li	a4,155
    1bd6:	c798                	sw	a4,8(a5)
	IWDG->CTLR = IWDG_KEY_ENABLE;
    1bd8:	6735                	lui	a4,0xd
    1bda:	ccc70713          	addi	a4,a4,-820 # cccc <sysinit.c.f98e60a8+0x63c4>
    1bde:	c398                	sw	a4,0(a5)
		scheduler_run(_systick_millis);
    1be0:	ca81a683          	lw	a3,-856(gp) # 200000a4 <_systick_millis>
}


void scheduler_run(const uint32_t now)
{
	for(size_t idx = 0; idx < task_count; idx++)
    1be4:	0c018413          	addi	s0,gp,192 # 200004bc <tasks>
    1be8:	4781                	li	a5,0
    1bea:	ca41c703          	lbu	a4,-860(gp) # 200000a0 <task_count>
    1bee:	02e7e563          	bltu	a5,a4,1c18 <main+0x4ac>
/// @brief Feeds the watchdog and keeps him happy :)
/// @param None
/// @return None
__attribute__((always_inline))
static inline void iwdg_feed(void)
{ IWDG->CTLR = IWDG_KEY_FEED; }
    1bf2:	67ad                	lui	a5,0xb
    1bf4:	40003737          	lui	a4,0x40003
    1bf8:	aaa78793          	addi	a5,a5,-1366 # aaaa <sysinit.c.f98e60a8+0x41a2>
    1bfc:	c31c                	sw	a5,0(a4)
	while(true)
    1bfe:	b7cd                	j	1be0 <main+0x474>
		i2c_conf = (FUNCONF_SYSTEM_CORE_CLOCK / (3 * dev->clkr)) & I2C_CKCFGR_CCR;
    1c00:	02dc7537          	lui	a0,0x2dc7
    1c04:	95ba                	add	a1,a1,a4
    1c06:	c0050513          	addi	a0,a0,-1024 # 2dc6c00 <sysinit.c.f98e60a8+0x2dc02f8>
    1c0a:	93bfe0ef          	jal	544 <__hidden___udivsi3>
    1c0e:	14fd                	addi	s1,s1,-1
    1c10:	8d65                	and	a0,a0,s1
		i2c_conf |= I2C_CKCFGR_FS;
    1c12:	7761                	lui	a4,0xffff8
    1c14:	8d59                	or	a0,a0,a4
    1c16:	b105                	j	1836 <main+0xca>
	{
	 	// If the timer is up, execute the task and update its last time
		if((now - tasks[idx].last_ms) >= tasks[idx].period_ms)
    1c18:	4458                	lw	a4,12(s0)
    1c1a:	4410                	lw	a2,8(s0)
    1c1c:	40e68733          	sub	a4,a3,a4
    1c20:	00c76963          	bltu	a4,a2,1c32 <main+0x4c6>
		{
			tasks[idx].task();
    1c24:	4058                	lw	a4,4(s0)
    1c26:	c23e                	sw	a5,4(sp)
    1c28:	c036                	sw	a3,0(sp)
    1c2a:	9702                	jalr	a4
			tasks[idx].last_ms = now;
    1c2c:	4682                	lw	a3,0(sp)
    1c2e:	4792                	lw	a5,4(sp)
    1c30:	c454                	sw	a3,12(s0)
	for(size_t idx = 0; idx < task_count; idx++)
    1c32:	0785                	addi	a5,a5,1
    1c34:	0441                	addi	s0,s0,16
    1c36:	bf55                	j	1bea <main+0x47e>

00001c38 <EXTI7_0_IRQHandler>:
{
    1c38:	1121                	addi	sp,sp,-24
    1c3a:	c03e                	sw	a5,0(sp)
	if((EXTI->INTFR & 0x00000010) || (EXTI->INTFR & 0x00000020))
    1c3c:	400107b7          	lui	a5,0x40010
    1c40:	40078793          	addi	a5,a5,1024 # 40010400 <_eusrstack+0x2000fc00>
{
    1c44:	c23a                	sw	a4,4(sp)
	if((EXTI->INTFR & 0x00000010) || (EXTI->INTFR & 0x00000020))
    1c46:	4bd8                	lw	a4,20(a5)
{
    1c48:	ca2a                	sw	a0,20(sp)
    1c4a:	c82e                	sw	a1,16(sp)
    1c4c:	c632                	sw	a2,12(sp)
    1c4e:	c436                	sw	a3,8(sp)
	if((EXTI->INTFR & 0x00000010) || (EXTI->INTFR & 0x00000020))
    1c50:	8b41                	andi	a4,a4,16
    1c52:	e709                	bnez	a4,1c5c <EXTI7_0_IRQHandler+0x24>
    1c54:	4bdc                	lw	a5,20(a5)
    1c56:	0207f793          	andi	a5,a5,32
    1c5a:	cfb5                	beqz	a5,1cd6 <EXTI7_0_IRQHandler+0x9e>
		if(EXTI->INTFR & 0x10) EXTI->INTFR = 0x10;
    1c5c:	40010737          	lui	a4,0x40010
		uint32_t portc_read = GPIOC->INDR;
    1c60:	400117b7          	lui	a5,0x40011
		if(EXTI->INTFR & 0x10) EXTI->INTFR = 0x10;
    1c64:	40070713          	addi	a4,a4,1024 # 40010400 <_eusrstack+0x2000fc00>
		uint32_t portc_read = GPIOC->INDR;
    1c68:	479c                	lw	a5,8(a5)
		if(EXTI->INTFR & 0x10) EXTI->INTFR = 0x10;
    1c6a:	4b54                	lw	a3,20(a4)
    1c6c:	8ac1                	andi	a3,a3,16
    1c6e:	c299                	beqz	a3,1c74 <EXTI7_0_IRQHandler+0x3c>
    1c70:	46c1                	li	a3,16
    1c72:	cb54                	sw	a3,20(a4)
		if(EXTI->INTFR & 0x20) EXTI->INTFR = 0x20;
    1c74:	4b54                	lw	a3,20(a4)
    1c76:	0206f693          	andi	a3,a3,32
    1c7a:	c681                	beqz	a3,1c82 <EXTI7_0_IRQHandler+0x4a>
    1c7c:	02000693          	li	a3,32
    1c80:	cb54                	sw	a3,20(a4)
		int8_t step = rotenc_table[ (rotenc_prev_bitmask << 2) | rotenc_curr_bitmask ];
    1c82:	c3d18683          	lb	a3,-963(gp) # 20000039 <rotenc_prev_bitmask.1>
		       int8_t rotenc_curr_bitmask = (((portc_read >> 4) & 1) << 1) | ((portc_read >> 5) & 1);
    1c86:	0037d713          	srli	a4,a5,0x3
    1c8a:	8395                	srli	a5,a5,0x5
    1c8c:	8b09                	andi	a4,a4,2
    1c8e:	8b85                	andi	a5,a5,1
    1c90:	00f76633          	or	a2,a4,a5
		int8_t step = rotenc_table[ (rotenc_prev_bitmask << 2) | rotenc_curr_bitmask ];
    1c94:	068a                	slli	a3,a3,0x2
    1c96:	6789                	lui	a5,0x2
    1c98:	8ed1                	or	a3,a3,a2
    1c9a:	3e478793          	addi	a5,a5,996 # 23e4 <rotenc_table>
    1c9e:	97b6                	add	a5,a5,a3
		       int8_t rotenc_curr_bitmask = (((portc_read >> 4) & 1) << 1) | ((portc_read >> 5) & 1);
    1ca0:	8732                	mv	a4,a2
		accumulator += step;
    1ca2:	c7c1c683          	lbu	a3,-900(gp) # 20000078 <accumulator.0>
    1ca6:	0007c783          	lbu	a5,0(a5)
		     if(accumulator >=  4) { g_rotary_encoder_clicks++; accumulator -= 4; }
    1caa:	450d                	li	a0,3
		accumulator += step;
    1cac:	97b6                	add	a5,a5,a3
    1cae:	0ff7f693          	zext.b	a3,a5
    1cb2:	07e2                	slli	a5,a5,0x18
    1cb4:	87e1                	srai	a5,a5,0x18
    1cb6:	c6f18e23          	sb	a5,-900(gp) # 20000078 <accumulator.0>
		     if(accumulator >=  4) { g_rotary_encoder_clicks++; accumulator -= 4; }
    1cba:	02f55763          	bge	a0,a5,1ce8 <EXTI7_0_IRQHandler+0xb0>
    1cbe:	c941d783          	lhu	a5,-876(gp) # 20000090 <g_rotary_encoder_clicks>
    1cc2:	16f1                	addi	a3,a3,-4
    1cc4:	0785                	addi	a5,a5,1
    1cc6:	07c2                	slli	a5,a5,0x10
    1cc8:	87c1                	srai	a5,a5,0x10
    1cca:	c8f19a23          	sh	a5,-876(gp) # 20000090 <g_rotary_encoder_clicks>
		else if(accumulator <= -4) { g_rotary_encoder_clicks--; accumulator += 4; }
    1cce:	c6d18e23          	sb	a3,-900(gp) # 20000078 <accumulator.0>
		rotenc_prev_bitmask = rotenc_curr_bitmask;
    1cd2:	c2e18ea3          	sb	a4,-963(gp) # 20000039 <rotenc_prev_bitmask.1>
}
    1cd6:	4552                	lw	a0,20(sp)
    1cd8:	45c2                	lw	a1,16(sp)
    1cda:	4632                	lw	a2,12(sp)
    1cdc:	46a2                	lw	a3,8(sp)
    1cde:	4712                	lw	a4,4(sp)
    1ce0:	4782                	lw	a5,0(sp)
    1ce2:	0161                	addi	sp,sp,24
    1ce4:	30200073          	mret
		else if(accumulator <= -4) { g_rotary_encoder_clicks--; accumulator += 4; }
    1ce8:	5575                	li	a0,-3
    1cea:	fea7d4e3          	bge	a5,a0,1cd2 <EXTI7_0_IRQHandler+0x9a>
    1cee:	c941d783          	lhu	a5,-876(gp) # 20000090 <g_rotary_encoder_clicks>
    1cf2:	0691                	addi	a3,a3,4
    1cf4:	17fd                	addi	a5,a5,-1
    1cf6:	07c2                	slli	a5,a5,0x10
    1cf8:	87c1                	srai	a5,a5,0x10
    1cfa:	c8f19a23          	sh	a5,-876(gp) # 20000090 <g_rotary_encoder_clicks>
    1cfe:	bfc1                	j	1cce <EXTI7_0_IRQHandler+0x96>

00001d00 <SysTick_Handler>:
{
    1d00:	1151                	addi	sp,sp,-12
    1d02:	c03e                	sw	a5,0(sp)
	SysTick->CMP += SYSTICK_ONE_MILLISECOND;
    1d04:	e000f7b7          	lui	a5,0xe000f
{
    1d08:	c23a                	sw	a4,4(sp)
	SysTick->CMP += SYSTICK_ONE_MILLISECOND;
    1d0a:	4b98                	lw	a4,16(a5)
{
    1d0c:	c436                	sw	a3,8(sp)
	SysTick->CMP += SYSTICK_ONE_MILLISECOND;
    1d0e:	66b1                	lui	a3,0xc
    1d10:	b8068693          	addi	a3,a3,-1152 # bb80 <sysinit.c.f98e60a8+0x5278>
    1d14:	9736                	add	a4,a4,a3
    1d16:	cb98                	sw	a4,16(a5)
	SysTick->SR = 0x00000000;
    1d18:	0007a223          	sw	zero,4(a5) # e000f004 <_eusrstack+0xc000e804>
	_systick_millis++;
    1d1c:	ca81a783          	lw	a5,-856(gp) # 200000a4 <_systick_millis>
}
    1d20:	46a2                	lw	a3,8(sp)
	_systick_millis++;
    1d22:	0785                	addi	a5,a5,1
    1d24:	caf1a423          	sw	a5,-856(gp) # 200000a4 <_systick_millis>
}
    1d28:	4712                	lw	a4,4(sp)
    1d2a:	4782                	lw	a5,0(sp)
    1d2c:	0131                	addi	sp,sp,12
    1d2e:	30200073          	mret
	...

00001d34 <thermistor_pair>:
    1d34:	03f10000 03ee0004 03ea0008 03e5000c     ................
    1d44:	03e00010 03da0014 03d30018 03cb001c     ................
    1d54:	03c20020 03b70024 03ac0028 039f002c      ...$...(...,...
    1d64:	03900030 03800034 036f0038 035c003c     0...4...8.o.<.\.
    1d74:	03480040 03330044 031c0048 0304004c     @.H.D.3.H...L...
    1d84:	02eb0050 02d10054 02b60058 029b005c     P...T...X...\...
    1d94:	027f0060 02630064 02470068 022c006c     `...d.c.h.G.l.,.
    1da4:	02100070 01f50074 01db0078 01c1007c     p...t...x...|...
    1db4:	01a80080 01900084 01790088 0163008c     ..........y...c.
    1dc4:	014f0090 013b0094 01280098 0116009c     ..O...;...(.....
    1dd4:	010500a0 00f500a4 00e600a8 00d800ac     ................
    1de4:	00cb00b0 00bf00b4 00b300b8 00a800bc     ................
    1df4:	009e00c0 009500c4 008c00c8 008400cc     ................
    1e04:	007c00d0 007500d4 006e00d8 006800dc     ..|...u...n...h.
    1e14:	006200e0 005c00e4 005700e8 005300ec     ..b...\...W...S.
    1e24:	004e00f0 004a00f4 004600f8 004200fc     ..N...J...F...B.
    1e34:	003f0100 003c0104 00390108 0036010c     ..?...<...9...6.
    1e44:	00330110 00310114 002e0118 002c011c     ..3...1.......,.
    1e54:	002a0120 00280124 00260128 0025012c      .*.$.(.(.&.,.%.
    1e64:	a8f0d5ae 4000d33f 0020148d 12dac8a1     ....?..@.. .....
    1e74:	22d97f81 a6a440db 000000af              ...".@......

00001e80 <__clz_tab>:
    1e80:	02020100 03030303 04040404 04040404     ................
    1e90:	05050505 05050505 05050505 05050505     ................
    1ea0:	06060606 06060606 06060606 06060606     ................
    1eb0:	06060606 06060606 06060606 06060606     ................
    1ec0:	07070707 07070707 07070707 07070707     ................
    1ed0:	07070707 07070707 07070707 07070707     ................
    1ee0:	07070707 07070707 07070707 07070707     ................
    1ef0:	07070707 07070707 07070707 07070707     ................
    1f00:	08080808 08080808 08080808 08080808     ................
    1f10:	08080808 08080808 08080808 08080808     ................
    1f20:	08080808 08080808 08080808 08080808     ................
    1f30:	08080808 08080808 08080808 08080808     ................
    1f40:	08080808 08080808 08080808 08080808     ................
    1f50:	08080808 08080808 08080808 08080808     ................
    1f60:	08080808 08080808 08080808 08080808     ................
    1f70:	08080808 08080808 08080808 08080808     ................
    1f80:	7e7e7e7e 52415420 20544547 7e7e7e7e     ~~~~ TARGET ~~~~
    1f90:	00000000 7e7e7e7e 54434120 204c4155     ....~~~~ ACTUAL 
    1fa0:	7e7e7e7e 00000000 207e7e7e 4f525245     ~~~~....~~~ ERRO
    1fb0:	7e7e2052 0000007e 54544142 00595245     R ~~~...BATTERY.
    1fc0:	544c4f56 20454741 00574f4c 5245564f     VOLTAGE LOW.OVER
    1fd0:	52525543 00544e45 544f4f42 00474e49     CURRENT.BOOTING.
    1fe0:	48524354 0047414d 322e3156 00000000     TCRHMAG.V1.2....
    1ff0:	7366666f 203a7465 67096425 3a6e6961     offset: %d.gain:
    2000:	0a642520 00000000                        %d.....

00002008 <font8x8_data>:
	...
    2010:	18306646 0062660c 60600000 00000000     Ff0..fb...``....
    2020:	59717f3e 003e7f4d 7f7f4240 00004040     >.qYM.>.@B..@@..
    2030:	49597362 0000666f 49496322 0000367f     bsYIof.."cII.6..
    2040:	53161c18 00507f7f 45456727 0000397d     ...S..P.'gEE}9..
    2050:	494b7e3c 00003079 79710303 0000070f     <~KIy0....qy....
    2060:	49497f36 0000367f 69494f06 00001e3f     6.II.6...OIi?...
    2070:	66660000 00000000 66e68000 00000000     ..ff.......f....
    2080:	63361c08 00000041 24242424 00002424     ..6cA...$$$$$$..
    2090:	36634100 0000081c 59510302 0000060f     .Ac6......QY....
    20a0:	5d417f3e 001e1f5d 13137e7c 00007c7e     >.A]]...|~..~|..
    20b0:	497f7f41 00367f49 41633e1c 00226341     A..II.6..>cAAc".
    20c0:	417f7f41 001c3e63 497f7f41 0063415d     A..Ac>..A..I]Ac.
    20d0:	497f7f41 0003011d 41633e1c 00727351     A..I.....>cAQsr.
    20e0:	08087f7f 00007f7f 7f7f4100 00000041     .........A..A...
    20f0:	41407030 00013f7f 087f7f41 0063771c     0p@A.?..A....wc.
    2100:	417f7f41 00706040 1c0e7f7f 007f7f0e     A..A@`p.........
    2110:	0c067f7f 007f7f18 41633e1c 001c3e63     .........>cAc>..
    2120:	497f7f41 00060f09 71213f1e 00005e7f     A..I.....?!q.^..
    2130:	097f7f41 00667f19 594d6f26 00003273     A.....f.&oMYs2..
    2140:	7f7f4103 00000341 40407f7f 00007f7f     .A..A.....@@....
    2150:	60603f1f 00001f3f 18307f7f 007f7f30     .?``?.....0.0...
    2160:	183c6743 0043673c 78784f07 0000074f     Cg<.<gC..OxxO...
    2170:	59716347 0073674d 18181818 18181818     GcqYMgs.........

00002180 <font8x8_lut>:
    2180:	302e2520 34333231 38373635 3c3b3a39      %.0123456789:;<
    2190:	403f3e3d 44434241 48474645 4c4b4a49     =>?@ABCDEFGHIJKL
    21a0:	504f4e4d 54535251 58575655 007e5a59     MNOPQRSTUVWXYZ~.

000021b0 <font16x16_data>:
	...
    21dc:	18000000 00001800 00000000 00000000     ................
	...
    21f8:	3ff81ff0 20083018 20082008 3ff83018     ...?.0. . . .0.?
    2208:	00001ff0 00000000 00000000 00000000     ................
    2218:	00000000 3ff80000 00003ff8 00000000     .......?.?......
	...
    2238:	3f083e08 21082108 21082108 21f82108     .>.?.!.!.!.!.!.!
    2248:	000020f0 00000000 00000000 00000000     . ..............
    2258:	21082008 21082108 21082108 3ff82108     . .!.!.!.!.!.!.?
    2268:	00001ff0 00000000 00000000 00000000     ................
    2278:	03f801f8 02000200 3f800200 02003f80     ...........?.?..
    2288:	00000200 00000000 00000000 00000000     ................
    2298:	21f821f8 21082108 21082108 3f082108     .!.!.!.!.!.!.!.?
    22a8:	00001e08 00000000 00000000 00000000     ................
    22b8:	3ff81ff0 20883188 20882088 31882088     ...?.1. . . . .1
    22c8:	1f001f88 00000000 00000000 00000000     ................
    22d8:	00080008 3c083008 03c80f08 003800f8     .....0.<......8.
    22e8:	00000008 00000000 00000000 00000000     ................
    22f8:	3ff81ef0 21082108 21082108 3ff82108     ...?.!.!.!.!.!.?
    2308:	00001ff0 00000000 00000000 00000000     ................
    2318:	21f801f0 22082318 22082208 23182208     ...!.#.".".".".#
    2328:	1ff03ff8 00000000 00000000 00000000     .?..............
    2338:	3ff81ff0 20082008 20082008 20082008     ...?. . . . . . 
    2348:	00002008 00000000 00000000 00000000     . ..............
    2358:	3ff83ff0 01080108 01080108 01080108     .?.?............
    2368:	00000108 00000000 00000000 00000000     ................
    2378:	00380000 0044007c 00440044 0038007c     ..8.|.D.D.D.|.8.
	...
    239c:	7ffe7ffe 60026002 00006002 00000000     .....`.`.`......
	...
    23bc:	60026002 7ffe7ffe 00000000 00000000     .`.`............
    23cc:	00000000                                ....

000023d0 <font16_16_lut>:
    23d0:	31302e20 35343332 39383736 5b604643      .0123456789CF`[
    23e0:	0000005d                                ]...

000023e4 <rotenc_table>:
    23e4:	0001ff00 ff000001 010000ff 00ff0100     ................

000023f4 <font6x8_battperc_data>:
    23f4:	bd81e73c e73cbdbd 81818181 bdbdbdbd     <.....<.........
    2404:	8181bdbd 81818181 bdbdbdbd 8181ff81     ................
    2414:	ff818181                                ....

00002418 <GPIO_PORT_MAP>:
    2418:	40010800 00000000 40011000 40011400     ...@.......@...@
