
build/tcrhmag.elf:     file format elf32-littleriscv


Disassembly of section .init:

00000000 <InterruptVector>:
	void InterruptVector()         __attribute__((naked)) __attribute((section(".init"))) __attribute((weak,alias("InterruptVectorDefault"))) __attribute((naked));
	void InterruptVectorDefault()  __attribute__((naked)) __attribute((section(".init"))) __attribute((naked));
	void InterruptVectorDefault( void )
	{
		#if !defined(FUNCONF_TINYVECTOR) || !FUNCONF_TINYVECTOR
			asm volatile( DEFAULT_INTERRUPT_VECTOR_CONTENTS );
   0:	4530006f          	j	c52 <handle_reset>
   4:	00000000          	.word	0x00000000
   8:	00000d10          	.word	0x00000d10
   c:	00000cc4          	.word	0x00000cc4
	...
  30:	000018d4          	.word	0x000018d4
  34:	00000000          	.word	0x00000000
  38:	00000cc4          	.word	0x00000cc4
  3c:	00000000          	.word	0x00000000
  40:	00000cc4          	.word	0x00000cc4
  44:	00000cc4          	.word	0x00000cc4
  48:	00000cc4          	.word	0x00000cc4
  4c:	00000cc4          	.word	0x00000cc4
  50:	00001906          	.word	0x00001906
  54:	00000cc4          	.word	0x00000cc4
  58:	00000cc4          	.word	0x00000cc4
  5c:	00000cc4          	.word	0x00000cc4
  60:	00000cc4          	.word	0x00000cc4
  64:	00000cc4          	.word	0x00000cc4
  68:	00000cc4          	.word	0x00000cc4
  6c:	00000cc4          	.word	0x00000cc4
  70:	00000cc4          	.word	0x00000cc4
  74:	00000cc4          	.word	0x00000cc4
  78:	00000cc4          	.word	0x00000cc4
  7c:	00000cc4          	.word	0x00000cc4
  80:	00000cc4          	.word	0x00000cc4
  84:	00000cc4          	.word	0x00000cc4
  88:	00000cc4          	.word	0x00000cc4
  8c:	00000cc4          	.word	0x00000cc4
  90:	00000cc4          	.word	0x00000cc4
  94:	00000cc4          	.word	0x00000cc4
  98:	00000cc4          	.word	0x00000cc4
  9c:	0000                	unimp
	...

Disassembly of section .text:

000000a0 <__divdi3>:
      a0:	fcc10113          	addi	sp,sp,-52
      a4:	d806                	sw	ra,48(sp)
      a6:	d622                	sw	s0,44(sp)
      a8:	d426                	sw	s1,40(sp)
      aa:	c002                	sw	zero,0(sp)
      ac:	832a                	mv	t1,a0
      ae:	0005db63          	bgez	a1,c4 <__divdi3+0x24>
      b2:	00a037b3          	snez	a5,a0
      b6:	40b005b3          	neg	a1,a1
      ba:	8d9d                	sub	a1,a1,a5
      bc:	57fd                	li	a5,-1
      be:	40a00333          	neg	t1,a0
      c2:	c03e                	sw	a5,0(sp)
      c4:	0006dd63          	bgez	a3,de <__divdi3+0x3e>
      c8:	4782                	lw	a5,0(sp)
      ca:	40d006b3          	neg	a3,a3
      ce:	fff7c793          	not	a5,a5
      d2:	c03e                	sw	a5,0(sp)
      d4:	00c037b3          	snez	a5,a2
      d8:	8e9d                	sub	a3,a3,a5
      da:	40c00633          	neg	a2,a2
      de:	82b2                	mv	t0,a2
      e0:	841a                	mv	s0,t1
      e2:	84ae                	mv	s1,a1
      e4:	2a069563          	bnez	a3,38e <__divdi3+0x2ee>
      e8:	6689                	lui	a3,0x2
      ea:	b2c68693          	addi	a3,a3,-1236 # 1b2c <__clz_tab>
      ee:	0ec5f563          	bgeu	a1,a2,1d8 <__divdi3+0x138>
      f2:	67c1                	lui	a5,0x10
      f4:	0cf67b63          	bgeu	a2,a5,1ca <__divdi3+0x12a>
      f8:	10063793          	sltiu	a5,a2,256
      fc:	0017c793          	xori	a5,a5,1
     100:	078e                	slli	a5,a5,0x3
     102:	00f65533          	srl	a0,a2,a5
     106:	96aa                	add	a3,a3,a0
     108:	0006c683          	lbu	a3,0(a3)
     10c:	02000513          	li	a0,32
     110:	97b6                	add	a5,a5,a3
     112:	40f506b3          	sub	a3,a0,a5
     116:	00f50c63          	beq	a0,a5,12e <__divdi3+0x8e>
     11a:	00d59733          	sll	a4,a1,a3
     11e:	00f357b3          	srl	a5,t1,a5
     122:	00d612b3          	sll	t0,a2,a3
     126:	00e7e4b3          	or	s1,a5,a4
     12a:	00d31433          	sll	s0,t1,a3
     12e:	0102d793          	srli	a5,t0,0x10
     132:	c23e                	sw	a5,4(sp)
     134:	4592                	lw	a1,4(sp)
     136:	01029793          	slli	a5,t0,0x10
     13a:	83c1                	srli	a5,a5,0x10
     13c:	8526                	mv	a0,s1
     13e:	ca16                	sw	t0,20(sp)
     140:	c43e                	sw	a5,8(sp)
     142:	2109                	jal	544 <__hidden___udivsi3>
     144:	85aa                	mv	a1,a0
     146:	c82a                	sw	a0,16(sp)
     148:	4522                	lw	a0,8(sp)
     14a:	2ee9                	jal	524 <__mulsi3>
     14c:	4592                	lw	a1,4(sp)
     14e:	c62a                	sw	a0,12(sp)
     150:	8526                	mv	a0,s1
     152:	2939                	jal	570 <__umodsi3>
     154:	4642                	lw	a2,16(sp)
     156:	46b2                	lw	a3,12(sp)
     158:	0542                	slli	a0,a0,0x10
     15a:	01045713          	srli	a4,s0,0x10
     15e:	8f49                	or	a4,a4,a0
     160:	42d2                	lw	t0,20(sp)
     162:	84b2                	mv	s1,a2
     164:	00d77c63          	bgeu	a4,a3,17c <__divdi3+0xdc>
     168:	9716                	add	a4,a4,t0
     16a:	fff60493          	addi	s1,a2,-1
     16e:	00576763          	bltu	a4,t0,17c <__divdi3+0xdc>
     172:	00d77563          	bgeu	a4,a3,17c <__divdi3+0xdc>
     176:	ffe60493          	addi	s1,a2,-2
     17a:	9716                	add	a4,a4,t0
     17c:	4592                	lw	a1,4(sp)
     17e:	40d707b3          	sub	a5,a4,a3
     182:	853e                	mv	a0,a5
     184:	ca16                	sw	t0,20(sp)
     186:	c63e                	sw	a5,12(sp)
     188:	2e75                	jal	544 <__hidden___udivsi3>
     18a:	85aa                	mv	a1,a0
     18c:	c82a                	sw	a0,16(sp)
     18e:	4522                	lw	a0,8(sp)
     190:	0442                	slli	s0,s0,0x10
     192:	8041                	srli	s0,s0,0x10
     194:	2e41                	jal	524 <__mulsi3>
     196:	c42a                	sw	a0,8(sp)
     198:	4592                	lw	a1,4(sp)
     19a:	4532                	lw	a0,12(sp)
     19c:	2ed1                	jal	570 <__umodsi3>
     19e:	4742                	lw	a4,16(sp)
     1a0:	46a2                	lw	a3,8(sp)
     1a2:	0542                	slli	a0,a0,0x10
     1a4:	8c49                	or	s0,s0,a0
     1a6:	863a                	mv	a2,a4
     1a8:	00d47c63          	bgeu	s0,a3,1c0 <__divdi3+0x120>
     1ac:	42d2                	lw	t0,20(sp)
     1ae:	fff70613          	addi	a2,a4,-1
     1b2:	9416                	add	s0,s0,t0
     1b4:	00546663          	bltu	s0,t0,1c0 <__divdi3+0x120>
     1b8:	00d47463          	bgeu	s0,a3,1c0 <__divdi3+0x120>
     1bc:	ffe70613          	addi	a2,a4,-2
     1c0:	01049793          	slli	a5,s1,0x10
     1c4:	8fd1                	or	a5,a5,a2
     1c6:	4481                	li	s1,0
     1c8:	a0c5                	j	2a8 <__divdi3+0x208>
     1ca:	01000537          	lui	a0,0x1000
     1ce:	47c1                	li	a5,16
     1d0:	f2a669e3          	bltu	a2,a0,102 <__divdi3+0x62>
     1d4:	47e1                	li	a5,24
     1d6:	b735                	j	102 <__divdi3+0x62>
     1d8:	4781                	li	a5,0
     1da:	ca09                	beqz	a2,1ec <__divdi3+0x14c>
     1dc:	67c1                	lui	a5,0x10
     1de:	0ef67663          	bgeu	a2,a5,2ca <__divdi3+0x22a>
     1e2:	10063793          	sltiu	a5,a2,256
     1e6:	0017c793          	xori	a5,a5,1
     1ea:	078e                	slli	a5,a5,0x3
     1ec:	00f65733          	srl	a4,a2,a5
     1f0:	9736                	add	a4,a4,a3
     1f2:	00074703          	lbu	a4,0(a4)
     1f6:	02000693          	li	a3,32
     1fa:	97ba                	add	a5,a5,a4
     1fc:	40f68733          	sub	a4,a3,a5
     200:	0cf69c63          	bne	a3,a5,2d8 <__divdi3+0x238>
     204:	40c58633          	sub	a2,a1,a2
     208:	4485                	li	s1,1
     20a:	0102d793          	srli	a5,t0,0x10
     20e:	c23e                	sw	a5,4(sp)
     210:	4592                	lw	a1,4(sp)
     212:	01029793          	slli	a5,t0,0x10
     216:	83c1                	srli	a5,a5,0x10
     218:	8532                	mv	a0,a2
     21a:	cc16                	sw	t0,24(sp)
     21c:	c43e                	sw	a5,8(sp)
     21e:	ca32                	sw	a2,20(sp)
     220:	2615                	jal	544 <__hidden___udivsi3>
     222:	85aa                	mv	a1,a0
     224:	c82a                	sw	a0,16(sp)
     226:	4522                	lw	a0,8(sp)
     228:	2cf5                	jal	524 <__mulsi3>
     22a:	4652                	lw	a2,20(sp)
     22c:	4592                	lw	a1,4(sp)
     22e:	c62a                	sw	a0,12(sp)
     230:	8532                	mv	a0,a2
     232:	2e3d                	jal	570 <__umodsi3>
     234:	43c2                	lw	t2,16(sp)
     236:	4332                	lw	t1,12(sp)
     238:	0542                	slli	a0,a0,0x10
     23a:	01045693          	srli	a3,s0,0x10
     23e:	8ec9                	or	a3,a3,a0
     240:	42e2                	lw	t0,24(sp)
     242:	879e                	mv	a5,t2
     244:	0066fc63          	bgeu	a3,t1,25c <__divdi3+0x1bc>
     248:	9696                	add	a3,a3,t0
     24a:	fff38793          	addi	a5,t2,-1
     24e:	0056e763          	bltu	a3,t0,25c <__divdi3+0x1bc>
     252:	0066f563          	bgeu	a3,t1,25c <__divdi3+0x1bc>
     256:	ffe38793          	addi	a5,t2,-2
     25a:	9696                	add	a3,a3,t0
     25c:	4592                	lw	a1,4(sp)
     25e:	cc3e                	sw	a5,24(sp)
     260:	406687b3          	sub	a5,a3,t1
     264:	853e                	mv	a0,a5
     266:	c63e                	sw	a5,12(sp)
     268:	ca16                	sw	t0,20(sp)
     26a:	2ce9                	jal	544 <__hidden___udivsi3>
     26c:	85aa                	mv	a1,a0
     26e:	c82a                	sw	a0,16(sp)
     270:	4522                	lw	a0,8(sp)
     272:	0442                	slli	s0,s0,0x10
     274:	8041                	srli	s0,s0,0x10
     276:	247d                	jal	524 <__mulsi3>
     278:	4592                	lw	a1,4(sp)
     27a:	c42a                	sw	a0,8(sp)
     27c:	4532                	lw	a0,12(sp)
     27e:	2ccd                	jal	570 <__umodsi3>
     280:	46c2                	lw	a3,16(sp)
     282:	4622                	lw	a2,8(sp)
     284:	0542                	slli	a0,a0,0x10
     286:	8c49                	or	s0,s0,a0
     288:	47e2                	lw	a5,24(sp)
     28a:	85b6                	mv	a1,a3
     28c:	00c47c63          	bgeu	s0,a2,2a4 <__divdi3+0x204>
     290:	42d2                	lw	t0,20(sp)
     292:	fff68593          	addi	a1,a3,-1
     296:	9416                	add	s0,s0,t0
     298:	00546663          	bltu	s0,t0,2a4 <__divdi3+0x204>
     29c:	00c47463          	bgeu	s0,a2,2a4 <__divdi3+0x204>
     2a0:	ffe68593          	addi	a1,a3,-2
     2a4:	07c2                	slli	a5,a5,0x10
     2a6:	8fcd                	or	a5,a5,a1
     2a8:	853e                	mv	a0,a5
     2aa:	4782                	lw	a5,0(sp)
     2ac:	85a6                	mv	a1,s1
     2ae:	cb81                	beqz	a5,2be <__divdi3+0x21e>
     2b0:	00a037b3          	snez	a5,a0
     2b4:	409005b3          	neg	a1,s1
     2b8:	8d9d                	sub	a1,a1,a5
     2ba:	40a00533          	neg	a0,a0
     2be:	50c2                	lw	ra,48(sp)
     2c0:	5432                	lw	s0,44(sp)
     2c2:	54a2                	lw	s1,40(sp)
     2c4:	03410113          	addi	sp,sp,52
     2c8:	8082                	ret
     2ca:	01000737          	lui	a4,0x1000
     2ce:	47c1                	li	a5,16
     2d0:	f0e66ee3          	bltu	a2,a4,1ec <__divdi3+0x14c>
     2d4:	47e1                	li	a5,24
     2d6:	bf19                	j	1ec <__divdi3+0x14c>
     2d8:	00f5d4b3          	srl	s1,a1,a5
     2dc:	00e595b3          	sll	a1,a1,a4
     2e0:	00f357b3          	srl	a5,t1,a5
     2e4:	00e612b3          	sll	t0,a2,a4
     2e8:	8fcd                	or	a5,a5,a1
     2ea:	c43e                	sw	a5,8(sp)
     2ec:	0102d793          	srli	a5,t0,0x10
     2f0:	c23e                	sw	a5,4(sp)
     2f2:	4592                	lw	a1,4(sp)
     2f4:	01029793          	slli	a5,t0,0x10
     2f8:	83c1                	srli	a5,a5,0x10
     2fa:	8526                	mv	a0,s1
     2fc:	cc16                	sw	t0,24(sp)
     2fe:	c63e                	sw	a5,12(sp)
     300:	00e31433          	sll	s0,t1,a4
     304:	2481                	jal	544 <__hidden___udivsi3>
     306:	85aa                	mv	a1,a0
     308:	ca2a                	sw	a0,20(sp)
     30a:	4532                	lw	a0,12(sp)
     30c:	2c21                	jal	524 <__mulsi3>
     30e:	4592                	lw	a1,4(sp)
     310:	c82a                	sw	a0,16(sp)
     312:	8526                	mv	a0,s1
     314:	2cb1                	jal	570 <__umodsi3>
     316:	47a2                	lw	a5,8(sp)
     318:	4652                	lw	a2,20(sp)
     31a:	46c2                	lw	a3,16(sp)
     31c:	0542                	slli	a0,a0,0x10
     31e:	83c1                	srli	a5,a5,0x10
     320:	8fc9                	or	a5,a5,a0
     322:	42e2                	lw	t0,24(sp)
     324:	84b2                	mv	s1,a2
     326:	00d7fc63          	bgeu	a5,a3,33e <__divdi3+0x29e>
     32a:	9796                	add	a5,a5,t0
     32c:	fff60493          	addi	s1,a2,-1
     330:	0057e763          	bltu	a5,t0,33e <__divdi3+0x29e>
     334:	00d7f563          	bgeu	a5,a3,33e <__divdi3+0x29e>
     338:	ffe60493          	addi	s1,a2,-2
     33c:	9796                	add	a5,a5,t0
     33e:	4592                	lw	a1,4(sp)
     340:	8f95                	sub	a5,a5,a3
     342:	853e                	mv	a0,a5
     344:	cc16                	sw	t0,24(sp)
     346:	c83e                	sw	a5,16(sp)
     348:	2af5                	jal	544 <__hidden___udivsi3>
     34a:	85aa                	mv	a1,a0
     34c:	ca2a                	sw	a0,20(sp)
     34e:	4532                	lw	a0,12(sp)
     350:	2ad1                	jal	524 <__mulsi3>
     352:	4592                	lw	a1,4(sp)
     354:	c62a                	sw	a0,12(sp)
     356:	4542                	lw	a0,16(sp)
     358:	2c21                	jal	570 <__umodsi3>
     35a:	00815603          	lhu	a2,8(sp)
     35e:	46d2                	lw	a3,20(sp)
     360:	47b2                	lw	a5,12(sp)
     362:	0542                	slli	a0,a0,0x10
     364:	8e49                	or	a2,a2,a0
     366:	42e2                	lw	t0,24(sp)
     368:	85b6                	mv	a1,a3
     36a:	00f67c63          	bgeu	a2,a5,382 <__divdi3+0x2e2>
     36e:	9616                	add	a2,a2,t0
     370:	fff68593          	addi	a1,a3,-1
     374:	00566763          	bltu	a2,t0,382 <__divdi3+0x2e2>
     378:	00f67563          	bgeu	a2,a5,382 <__divdi3+0x2e2>
     37c:	ffe68593          	addi	a1,a3,-2
     380:	9616                	add	a2,a2,t0
     382:	01049713          	slli	a4,s1,0x10
     386:	8e1d                	sub	a2,a2,a5
     388:	00b764b3          	or	s1,a4,a1
     38c:	bdbd                	j	20a <__divdi3+0x16a>
     38e:	18d5e763          	bltu	a1,a3,51c <__divdi3+0x47c>
     392:	67c1                	lui	a5,0x10
     394:	02f6fe63          	bgeu	a3,a5,3d0 <__divdi3+0x330>
     398:	1006b793          	sltiu	a5,a3,256
     39c:	0017c793          	xori	a5,a5,1
     3a0:	078e                	slli	a5,a5,0x3
     3a2:	6709                	lui	a4,0x2
     3a4:	00f6d533          	srl	a0,a3,a5
     3a8:	b2c70713          	addi	a4,a4,-1236 # 1b2c <__clz_tab>
     3ac:	972a                	add	a4,a4,a0
     3ae:	00074503          	lbu	a0,0(a4)
     3b2:	953e                	add	a0,a0,a5
     3b4:	02000793          	li	a5,32
     3b8:	40a784b3          	sub	s1,a5,a0
     3bc:	02a79163          	bne	a5,a0,3de <__divdi3+0x33e>
     3c0:	4785                	li	a5,1
     3c2:	eeb6e3e3          	bltu	a3,a1,2a8 <__divdi3+0x208>
     3c6:	00c33633          	sltu	a2,t1,a2
     3ca:	00164793          	xori	a5,a2,1
     3ce:	bde9                	j	2a8 <__divdi3+0x208>
     3d0:	01000737          	lui	a4,0x1000
     3d4:	47c1                	li	a5,16
     3d6:	fce6e6e3          	bltu	a3,a4,3a2 <__divdi3+0x302>
     3da:	47e1                	li	a5,24
     3dc:	b7d9                	j	3a2 <__divdi3+0x302>
     3de:	009697b3          	sll	a5,a3,s1
     3e2:	00a656b3          	srl	a3,a2,a0
     3e6:	8edd                	or	a3,a3,a5
     3e8:	00a5d433          	srl	s0,a1,a0
     3ec:	009617b3          	sll	a5,a2,s1
     3f0:	00a35533          	srl	a0,t1,a0
     3f4:	009595b3          	sll	a1,a1,s1
     3f8:	c43e                	sw	a5,8(sp)
     3fa:	00b567b3          	or	a5,a0,a1
     3fe:	c63e                	sw	a5,12(sp)
     400:	0106d793          	srli	a5,a3,0x10
     404:	c23e                	sw	a5,4(sp)
     406:	4592                	lw	a1,4(sp)
     408:	01069793          	slli	a5,a3,0x10
     40c:	83c1                	srli	a5,a5,0x10
     40e:	8522                	mv	a0,s0
     410:	d01a                	sw	t1,32(sp)
     412:	ce36                	sw	a3,28(sp)
     414:	c83e                	sw	a5,16(sp)
     416:	223d                	jal	544 <__hidden___udivsi3>
     418:	85aa                	mv	a1,a0
     41a:	cc2a                	sw	a0,24(sp)
     41c:	4542                	lw	a0,16(sp)
     41e:	2219                	jal	524 <__mulsi3>
     420:	4592                	lw	a1,4(sp)
     422:	ca2a                	sw	a0,20(sp)
     424:	8522                	mv	a0,s0
     426:	22a9                	jal	570 <__umodsi3>
     428:	47b2                	lw	a5,12(sp)
     42a:	42e2                	lw	t0,24(sp)
     42c:	4652                	lw	a2,20(sp)
     42e:	0107d413          	srli	s0,a5,0x10
     432:	0542                	slli	a0,a0,0x10
     434:	8c49                	or	s0,s0,a0
     436:	46f2                	lw	a3,28(sp)
     438:	5302                	lw	t1,32(sp)
     43a:	8796                	mv	a5,t0
     43c:	00c47c63          	bgeu	s0,a2,454 <__divdi3+0x3b4>
     440:	9436                	add	s0,s0,a3
     442:	fff28793          	addi	a5,t0,-1
     446:	00d46763          	bltu	s0,a3,454 <__divdi3+0x3b4>
     44a:	00c47563          	bgeu	s0,a2,454 <__divdi3+0x3b4>
     44e:	ffe28793          	addi	a5,t0,-2
     452:	9436                	add	s0,s0,a3
     454:	4592                	lw	a1,4(sp)
     456:	d03e                	sw	a5,32(sp)
     458:	40c407b3          	sub	a5,s0,a2
     45c:	853e                	mv	a0,a5
     45e:	d21a                	sw	t1,36(sp)
     460:	ca3e                	sw	a5,20(sp)
     462:	ce36                	sw	a3,28(sp)
     464:	20c5                	jal	544 <__hidden___udivsi3>
     466:	85aa                	mv	a1,a0
     468:	cc2a                	sw	a0,24(sp)
     46a:	4542                	lw	a0,16(sp)
     46c:	2865                	jal	524 <__mulsi3>
     46e:	4592                	lw	a1,4(sp)
     470:	842a                	mv	s0,a0
     472:	4552                	lw	a0,20(sp)
     474:	28f5                	jal	570 <__umodsi3>
     476:	00c15603          	lhu	a2,12(sp)
     47a:	43e2                	lw	t2,24(sp)
     47c:	0542                	slli	a0,a0,0x10
     47e:	8e49                	or	a2,a2,a0
     480:	5782                	lw	a5,32(sp)
     482:	5312                	lw	t1,36(sp)
     484:	859e                	mv	a1,t2
     486:	00867d63          	bgeu	a2,s0,4a0 <__divdi3+0x400>
     48a:	46f2                	lw	a3,28(sp)
     48c:	fff38593          	addi	a1,t2,-1
     490:	9636                	add	a2,a2,a3
     492:	00d66763          	bltu	a2,a3,4a0 <__divdi3+0x400>
     496:	00867563          	bgeu	a2,s0,4a0 <__divdi3+0x400>
     49a:	ffe38593          	addi	a1,t2,-2
     49e:	9636                	add	a2,a2,a3
     4a0:	40860733          	sub	a4,a2,s0
     4a4:	4622                	lw	a2,8(sp)
     4a6:	66c1                	lui	a3,0x10
     4a8:	07c2                	slli	a5,a5,0x10
     4aa:	8fcd                	or	a5,a5,a1
     4ac:	fff68293          	addi	t0,a3,-1 # ffff <oled.c.45f942c9+0xa639>
     4b0:	0057f433          	and	s0,a5,t0
     4b4:	005672b3          	and	t0,a2,t0
     4b8:	8241                	srli	a2,a2,0x10
     4ba:	c232                	sw	a2,4(sp)
     4bc:	8522                	mv	a0,s0
     4be:	8596                	mv	a1,t0
     4c0:	2095                	jal	524 <__mulsi3>
     4c2:	83aa                	mv	t2,a0
     4c4:	4592                	lw	a1,4(sp)
     4c6:	8522                	mv	a0,s0
     4c8:	28b1                	jal	524 <__mulsi3>
     4ca:	842a                	mv	s0,a0
     4cc:	8596                	mv	a1,t0
     4ce:	0107d513          	srli	a0,a5,0x10
     4d2:	2889                	jal	524 <__mulsi3>
     4d4:	82aa                	mv	t0,a0
     4d6:	4592                	lw	a1,4(sp)
     4d8:	0107d513          	srli	a0,a5,0x10
     4dc:	20a1                	jal	524 <__mulsi3>
     4de:	0103d613          	srli	a2,t2,0x10
     4e2:	005406b3          	add	a3,s0,t0
     4e6:	00d60433          	add	s0,a2,a3
     4ea:	00547463          	bgeu	s0,t0,4f2 <__divdi3+0x452>
     4ee:	66c1                	lui	a3,0x10
     4f0:	9536                	add	a0,a0,a3
     4f2:	01045693          	srli	a3,s0,0x10
     4f6:	9536                	add	a0,a0,a3
     4f8:	02a76063          	bltu	a4,a0,518 <__divdi3+0x478>
     4fc:	cca715e3          	bne	a4,a0,1c6 <__divdi3+0x126>
     500:	6741                	lui	a4,0x10
     502:	177d                	addi	a4,a4,-1 # ffff <oled.c.45f942c9+0xa639>
     504:	8c79                	and	s0,s0,a4
     506:	0442                	slli	s0,s0,0x10
     508:	00e3f733          	and	a4,t2,a4
     50c:	00931333          	sll	t1,t1,s1
     510:	943a                	add	s0,s0,a4
     512:	4481                	li	s1,0
     514:	d8837ae3          	bgeu	t1,s0,2a8 <__divdi3+0x208>
     518:	17fd                	addi	a5,a5,-1 # ffff <oled.c.45f942c9+0xa639>
     51a:	b175                	j	1c6 <__divdi3+0x126>
     51c:	4481                	li	s1,0
     51e:	4781                	li	a5,0
     520:	b361                	j	2a8 <__divdi3+0x208>
	...

00000524 <__mulsi3>:
     524:	862a                	mv	a2,a0
     526:	4501                	li	a0,0
     528:	0015f693          	andi	a3,a1,1
     52c:	c291                	beqz	a3,530 <__mulsi3+0xc>
     52e:	9532                	add	a0,a0,a2
     530:	8185                	srli	a1,a1,0x1
     532:	0606                	slli	a2,a2,0x1
     534:	f9f5                	bnez	a1,528 <__mulsi3+0x4>
     536:	8082                	ret
     538:	0000                	unimp
	...

0000053c <__divsi3>:
     53c:	02054e63          	bltz	a0,578 <__umodsi3+0x8>
     540:	0405c363          	bltz	a1,586 <__umodsi3+0x16>

00000544 <__hidden___udivsi3>:
     544:	862e                	mv	a2,a1
     546:	85aa                	mv	a1,a0
     548:	557d                	li	a0,-1
     54a:	c215                	beqz	a2,56e <__hidden___udivsi3+0x2a>
     54c:	4685                	li	a3,1
     54e:	00b67863          	bgeu	a2,a1,55e <__hidden___udivsi3+0x1a>
     552:	00c05663          	blez	a2,55e <__hidden___udivsi3+0x1a>
     556:	0606                	slli	a2,a2,0x1
     558:	0686                	slli	a3,a3,0x1
     55a:	feb66ce3          	bltu	a2,a1,552 <__hidden___udivsi3+0xe>
     55e:	4501                	li	a0,0
     560:	00c5e463          	bltu	a1,a2,568 <__hidden___udivsi3+0x24>
     564:	8d91                	sub	a1,a1,a2
     566:	8d55                	or	a0,a0,a3
     568:	8285                	srli	a3,a3,0x1
     56a:	8205                	srli	a2,a2,0x1
     56c:	faf5                	bnez	a3,560 <__hidden___udivsi3+0x1c>
     56e:	8082                	ret

00000570 <__umodsi3>:
     570:	8286                	mv	t0,ra
     572:	3fc9                	jal	544 <__hidden___udivsi3>
     574:	852e                	mv	a0,a1
     576:	8282                	jr	t0
     578:	40a00533          	neg	a0,a0
     57c:	00b04763          	bgtz	a1,58a <__umodsi3+0x1a>
     580:	40b005b3          	neg	a1,a1
     584:	b7c1                	j	544 <__hidden___udivsi3>
     586:	40b005b3          	neg	a1,a1
     58a:	8286                	mv	t0,ra
     58c:	3f65                	jal	544 <__hidden___udivsi3>
     58e:	40a00533          	neg	a0,a0
     592:	8282                	jr	t0

00000594 <__modsi3>:
     594:	8286                	mv	t0,ra
     596:	0005c763          	bltz	a1,5a4 <__modsi3+0x10>
     59a:	00054963          	bltz	a0,5ac <__modsi3+0x18>
     59e:	375d                	jal	544 <__hidden___udivsi3>
     5a0:	852e                	mv	a0,a1
     5a2:	8282                	jr	t0
     5a4:	40b005b3          	neg	a1,a1
     5a8:	fe055be3          	bgez	a0,59e <__modsi3+0xa>
     5ac:	40a00533          	neg	a0,a0
     5b0:	3f51                	jal	544 <__hidden___udivsi3>
     5b2:	40b00533          	neg	a0,a1
     5b6:	8282                	jr	t0
	...

000005ba <mini_pad>:
	if(pad_to == 0) pad_to = len;
     5ba:	c699                	beqz	a3,5c8 <mini_pad+0xe>
	int overflow = 0;
     5bc:	4301                	li	t1,0
	if(len > pad_to) {
     5be:	00b6d763          	bge	a3,a1,5cc <mini_pad+0x12>
		len = pad_to;
     5c2:	85b6                	mv	a1,a3
		overflow = 1;
     5c4:	4305                	li	t1,1
     5c6:	a019                	j	5cc <mini_pad+0x12>
	int overflow = 0;
     5c8:	4301                	li	t1,0
	if(pad_to == 0) pad_to = len;
     5ca:	86ae                	mv	a3,a1
	for(i = pad_to - len; i > 0; i --) {
     5cc:	8e8d                	sub	a3,a3,a1
	char * pbuffer = buffer;
     5ce:	87ba                	mv	a5,a4
     5d0:	00e683b3          	add	t2,a3,a4
	for(i = pad_to - len; i > 0; i --) {
     5d4:	40f382b3          	sub	t0,t2,a5
     5d8:	04504a63          	bgtz	t0,62c <mini_pad+0x72>
     5dc:	fff6c793          	not	a5,a3
     5e0:	87fd                	srai	a5,a5,0x1f
     5e2:	8efd                	and	a3,a3,a5
     5e4:	96ba                	add	a3,a3,a4
     5e6:	4781                	li	a5,0
	for(i = len; i > 0; i --) {
     5e8:	40f58633          	sub	a2,a1,a5
     5ec:	00f682b3          	add	t0,a3,a5
     5f0:	04c04263          	bgtz	a2,634 <mini_pad+0x7a>
     5f4:	fff5c793          	not	a5,a1
     5f8:	87fd                	srai	a5,a5,0x1f
     5fa:	8dfd                	and	a1,a1,a5
     5fc:	95b6                	add	a1,a1,a3
	len = pbuffer - buffer;
     5fe:	40e58533          	sub	a0,a1,a4
	if(overflow) {
     602:	02030463          	beqz	t1,62a <mini_pad+0x70>
		for (i = 0; i < 3 && pbuffer > buffer; i ++) {
     606:	02b77263          	bgeu	a4,a1,62a <mini_pad+0x70>
			*(pbuffer-- - 1) = '*';
     60a:	02a00793          	li	a5,42
     60e:	fef58fa3          	sb	a5,-1(a1)
     612:	fff58693          	addi	a3,a1,-1
		for (i = 0; i < 3 && pbuffer > buffer; i ++) {
     616:	00d77a63          	bgeu	a4,a3,62a <mini_pad+0x70>
			*(pbuffer-- - 1) = '*';
     61a:	fef58f23          	sb	a5,-2(a1)
     61e:	ffe58693          	addi	a3,a1,-2
		for (i = 0; i < 3 && pbuffer > buffer; i ++) {
     622:	00d77463          	bgeu	a4,a3,62a <mini_pad+0x70>
			*(pbuffer-- - 1) = '*';
     626:	fef58ea3          	sb	a5,-3(a1)
}
     62a:	8082                	ret
		*(pbuffer++) = pad_char;
     62c:	0785                	addi	a5,a5,1
     62e:	fec78fa3          	sb	a2,-1(a5)
	for(i = pad_to - len; i > 0; i --) {
     632:	b74d                	j	5d4 <mini_pad+0x1a>
		*(pbuffer++) = *(ptr++);
     634:	00f50633          	add	a2,a0,a5
     638:	00064603          	lbu	a2,0(a2)
     63c:	0785                	addi	a5,a5,1
     63e:	00c28023          	sb	a2,0(t0)
	for(i = len; i > 0; i --) {
     642:	b75d                	j	5e8 <mini_pad+0x2e>

00000644 <_puts>:
{
     644:	832a                	mv	t1,a0
     646:	852e                	mv	a0,a1
	if(!buf) return len;
     648:	ce01                	beqz	a2,660 <_puts+0x1c>
	char * p0 = b->buffer;
     64a:	00062283          	lw	t0,0(a2)
	for (i = 0; i < len; i++) {
     64e:	4701                	li	a4,0
		if(b->pbuffer == b->buffer + b->buffer_len - 1) {
     650:	425c                	lw	a5,4(a2)
	for (i = 0; i < len; i++) {
     652:	00a74863          	blt	a4,a0,662 <_puts+0x1e>
	*(b->pbuffer) = 0;
     656:	00078023          	sb	zero,0(a5)
	return b->pbuffer - p0;
     65a:	4248                	lw	a0,4(a2)
     65c:	40550533          	sub	a0,a0,t0
}
     660:	8082                	ret
		if(b->pbuffer == b->buffer + b->buffer_len - 1) {
     662:	460c                	lw	a1,8(a2)
     664:	4214                	lw	a3,0(a2)
     666:	15fd                	addi	a1,a1,-1
     668:	96ae                	add	a3,a3,a1
     66a:	fed786e3          	beq	a5,a3,656 <_puts+0x12>
		*(b->pbuffer ++) = s[i];
     66e:	00178693          	addi	a3,a5,1
     672:	c254                	sw	a3,4(a2)
     674:	00e306b3          	add	a3,t1,a4
     678:	0006c683          	lbu	a3,0(a3) # 10000 <oled.c.45f942c9+0xa63a>
	for (i = 0; i < len; i++) {
     67c:	0705                	addi	a4,a4,1
		*(b->pbuffer ++) = s[i];
     67e:	00d78023          	sb	a3,0(a5)
	for (i = 0; i < len; i++) {
     682:	b7f9                	j	650 <_puts+0xc>

00000684 <PrintHex>:
	while( (*DMDATA0) & 0x80 );
     684:	e00007b7          	lui	a5,0xe0000
     688:	0f478793          	addi	a5,a5,244 # e00000f4 <_eusrstack+0xbffff8f4>
     68c:	4398                	lw	a4,0(a5)
     68e:	08077713          	andi	a4,a4,128
     692:	ff6d                	bnez	a4,68c <PrintHex+0x8>
	*DMDATA0 = 0x78302088; //" 0x"
     694:	78302737          	lui	a4,0x78302
     698:	08870713          	addi	a4,a4,136 # 78302088 <_eusrstack+0x58301888>
		while( (*DMDATA0) & 0x80 );
     69c:	e00006b7          	lui	a3,0xe0000
	*DMDATA0 = 0x78302088; //" 0x"
     6a0:	c398                	sw	a4,0(a5)
		while( (*DMDATA0) & 0x80 );
     6a2:	0f468693          	addi	a3,a3,244 # e00000f4 <_eusrstack+0xbffff8f4>
	for( shift = 28; shift >= 0; shift -= 4 )
     6a6:	4771                	li	a4,28
		s += ( s < 10 ) ? '0' : ('a' - 10);
     6a8:	45a5                	li	a1,9
	for( shift = 28; shift >= 0; shift -= 4 )
     6aa:	5671                	li	a2,-4
		while( (*DMDATA0) & 0x80 );
     6ac:	429c                	lw	a5,0(a3)
     6ae:	0807f793          	andi	a5,a5,128
     6b2:	ffed                	bnez	a5,6ac <PrintHex+0x28>
		int s = (n>>shift) & 0xf;
     6b4:	00e55333          	srl	t1,a0,a4
     6b8:	00f37313          	andi	t1,t1,15
		s += ( s < 10 ) ? '0' : ('a' - 10);
     6bc:	0065b7b3          	sltu	a5,a1,t1
     6c0:	40f007b3          	neg	a5,a5
     6c4:	0277f793          	andi	a5,a5,39
     6c8:	03078793          	addi	a5,a5,48
     6cc:	979a                	add	a5,a5,t1
		*DMDATA0 = 0x85 | (s<<8); //" 0x"
     6ce:	07a2                	slli	a5,a5,0x8
     6d0:	0857e793          	ori	a5,a5,133
     6d4:	c29c                	sw	a5,0(a3)
	for( shift = 28; shift >= 0; shift -= 4 )
     6d6:	1771                	addi	a4,a4,-4
     6d8:	fcc71ae3          	bne	a4,a2,6ac <PrintHex+0x28>
}
     6dc:	8082                	ret

000006de <mini_itoa.part.0>:
int mini_itoa(long value, unsigned int radix, int uppercase, int unsig, char *buffer)
     6de:	1101                	addi	sp,sp,-32
     6e0:	ce06                	sw	ra,28(sp)
     6e2:	cc22                	sw	s0,24(sp)
     6e4:	ca26                	sw	s1,20(sp)
	int	negative = 0;
     6e6:	c002                	sw	zero,0(sp)
int mini_itoa(long value, unsigned int radix, int uppercase, int unsig, char *buffer)
     6e8:	832a                	mv	t1,a0
	if (value < 0 && !unsig) {
     6ea:	00055763          	bgez	a0,6f8 <mini_itoa.part.0+0x1a>
     6ee:	e689                	bnez	a3,6f8 <mini_itoa.part.0+0x1a>
		negative = 1;
     6f0:	4785                	li	a5,1
		value = -value;
     6f2:	40a00333          	neg	t1,a0
		negative = 1;
     6f6:	c03e                	sw	a5,0(sp)
     6f8:	8a05                	andi	a2,a2,1
     6fa:	06100413          	li	s0,97
     6fe:	c219                	beqz	a2,704 <mini_itoa.part.0+0x26>
     700:	04100413          	li	s0,65
	int	negative = 0;
     704:	84ba                	mv	s1,a4
		*(pbuffer++) = (digit < 10 ? '0' + digit : (uppercase ? 'A' : 'a') + digit - 10);
     706:	1459                	addi	s0,s0,-10
		int digit = value % radix;
     708:	851a                	mv	a0,t1
     70a:	c83a                	sw	a4,16(sp)
     70c:	c21a                	sw	t1,4(sp)
     70e:	c62e                	sw	a1,12(sp)
     710:	c41a                	sw	t1,8(sp)
     712:	3db9                	jal	570 <__umodsi3>
		*(pbuffer++) = (digit < 10 ? '0' + digit : (uppercase ? 'A' : 'a') + digit - 10);
     714:	47a5                	li	a5,9
     716:	4322                	lw	t1,8(sp)
     718:	45b2                	lw	a1,12(sp)
     71a:	4742                	lw	a4,16(sp)
     71c:	0ff57693          	zext.b	a3,a0
     720:	06a7e163          	bltu	a5,a0,782 <mini_itoa.part.0+0xa4>
     724:	03068693          	addi	a3,a3,48
     728:	0ff6f693          	zext.b	a3,a3
     72c:	00148793          	addi	a5,s1,1
     730:	00d48023          	sb	a3,0(s1)
		value /= radix;
     734:	851a                	mv	a0,t1
     736:	c83a                	sw	a4,16(sp)
		*(pbuffer++) = (digit < 10 ? '0' + digit : (uppercase ? 'A' : 'a') + digit - 10);
     738:	c63e                	sw	a5,12(sp)
		value /= radix;
     73a:	c42e                	sw	a1,8(sp)
     73c:	3521                	jal	544 <__hidden___udivsi3>
	} while (value > 0);
     73e:	4692                	lw	a3,4(sp)
     740:	45a2                	lw	a1,8(sp)
     742:	47b2                	lw	a5,12(sp)
     744:	4742                	lw	a4,16(sp)
		value /= radix;
     746:	832a                	mv	t1,a0
	} while (value > 0);
     748:	02b6fb63          	bgeu	a3,a1,77e <mini_itoa.part.0+0xa0>
	if (negative)
     74c:	4682                	lw	a3,0(sp)
     74e:	c699                	beqz	a3,75c <mini_itoa.part.0+0x7e>
		*(pbuffer++) = '-';
     750:	02d00693          	li	a3,45
     754:	00d78023          	sb	a3,0(a5)
     758:	00248793          	addi	a5,s1,2
	len = (pbuffer - buffer);
     75c:	40e78533          	sub	a0,a5,a4
	for (i = 0; i < len / 2; i++) {
     760:	01f55693          	srli	a3,a0,0x1f
     764:	96aa                	add	a3,a3,a0
	*(pbuffer) = '\0';
     766:	00078023          	sb	zero,0(a5)
	for (i = 0; i < len / 2; i++) {
     76a:	8685                	srai	a3,a3,0x1
     76c:	4601                	li	a2,0
     76e:	17fd                	addi	a5,a5,-1
     770:	00d64b63          	blt	a2,a3,786 <mini_itoa.part.0+0xa8>
}
     774:	40f2                	lw	ra,28(sp)
     776:	4462                	lw	s0,24(sp)
     778:	44d2                	lw	s1,20(sp)
     77a:	6105                	addi	sp,sp,32
     77c:	8082                	ret
		*(pbuffer++) = (digit < 10 ? '0' + digit : (uppercase ? 'A' : 'a') + digit - 10);
     77e:	84be                	mv	s1,a5
     780:	b761                	j	708 <mini_itoa.part.0+0x2a>
     782:	96a2                	add	a3,a3,s0
     784:	b755                	j	728 <mini_itoa.part.0+0x4a>
		char j = buffer[i];
     786:	00c705b3          	add	a1,a4,a2
		buffer[i] = buffer[len-i-1];
     78a:	0007c283          	lbu	t0,0(a5)
		char j = buffer[i];
     78e:	0005c303          	lbu	t1,0(a1)
	for (i = 0; i < len / 2; i++) {
     792:	0605                	addi	a2,a2,1
		buffer[i] = buffer[len-i-1];
     794:	00558023          	sb	t0,0(a1)
		buffer[len-i-1] = j;
     798:	00678023          	sb	t1,0(a5)
	for (i = 0; i < len / 2; i++) {
     79c:	bfc9                	j	76e <mini_itoa.part.0+0x90>

0000079e <gpio_set_mode>:
	
	// Make array of uint8_t from [pin] enum. See definition for details
	uint8_t *byte = (uint8_t *)&pin;
	
	// Set the RCC Register to enable clock on the specified port
	GPIO_RCC->APB2PCENR |= (RCC_APB2PCENR_AFIO | (RCC_APB2PCENR_IOPxEN << byte[0]));
     79e:	400216b7          	lui	a3,0x40021
     7a2:	4e90                	lw	a2,24(a3)
     7a4:	4791                	li	a5,4
     7a6:	00a797b3          	sll	a5,a5,a0
     7aa:	8fd1                	or	a5,a5,a2
     7ac:	0017e793          	ori	a5,a5,1
     7b0:	ce9c                	sw	a5,24(a3)
     7b2:	0ff57713          	zext.b	a4,a0

	// Clear then set the GPIO Config Register
	GPIO_PORT_MAP[ byte[0] ]->CFGLR &=        ~(0x0F  << (4 * byte[1]));
     7b6:	6789                	lui	a5,0x2
     7b8:	070a                	slli	a4,a4,0x2
     7ba:	04878793          	addi	a5,a5,72 # 2048 <GPIO_PORT_MAP>
     7be:	97ba                	add	a5,a5,a4
     7c0:	4398                	lw	a4,0(a5)
     7c2:	8121                	srli	a0,a0,0x8
     7c4:	0ff57513          	zext.b	a0,a0
     7c8:	4310                	lw	a2,0(a4)
     7ca:	00251693          	slli	a3,a0,0x2
     7ce:	47bd                	li	a5,15
     7d0:	00d797b3          	sll	a5,a5,a3
     7d4:	fff7c793          	not	a5,a5
     7d8:	8ff1                	and	a5,a5,a2
     7da:	c31c                	sw	a5,0(a4)
	GPIO_PORT_MAP[ byte[0] ]->CFGLR |=  (mode & 0x0F) << (4 * byte[1]);
     7dc:	4310                	lw	a2,0(a4)
     7de:	00f5f793          	andi	a5,a1,15
     7e2:	00d797b3          	sll	a5,a5,a3
     7e6:	8fd1                	or	a5,a5,a2
     7e8:	c31c                	sw	a5,0(a4)

	// If [mode] is INPUT_PULLUP or INPUT_PULLDOWN, set the [OUTDR] Register
	if(mode == INPUT_PULLUP || mode == INPUT_PULLDOWN)
     7ea:	47e1                	li	a5,24
     7ec:	00f59663          	bne	a1,a5,7f8 <gpio_set_mode+0x5a>
inline void gpio_digital_write(const GPIO_PIN pin, const GPIO_STATE state)
{
	// Make array of uint8_t from [pin] enum. See definition for details
	uint8_t *byte = (uint8_t *)&pin;

	uint32_t mask = 0x01 << byte[1];          // Shift by pin number
     7f0:	4785                	li	a5,1
     7f2:	00a797b3          	sll	a5,a5,a0
	if(state == GPIO_LOW) mask = mask << 16;  // Shift by 16 if LOW, to Reset

	GPIO_PORT_MAP[ byte[0] ]->BSHR = mask;
     7f6:	cb1c                	sw	a5,16(a4)
}
     7f8:	8082                	ret

000007fa <i2c_error>:
/// the bit flags
/// @param none
/// @return i2c_err_t error value
static inline i2c_err_t i2c_error(void)
{
	if(I2C1->STAR1 & I2C_STAR1_BERR)  {I2C1->STAR1 &= ~I2C_STAR1_BERR;  return I2C_ERR_BERR;}
     7fa:	400057b7          	lui	a5,0x40005
     7fe:	4147d703          	lhu	a4,1044(a5) # 40005414 <_eusrstack+0x20004c14>
     802:	40078793          	addi	a5,a5,1024
     806:	10077713          	andi	a4,a4,256
     80a:	cb19                	beqz	a4,820 <i2c_error+0x26>
     80c:	0147d703          	lhu	a4,20(a5)
     810:	66c1                	lui	a3,0x10
     812:	eff68693          	addi	a3,a3,-257 # feff <oled.c.45f942c9+0xa539>
     816:	8f75                	and	a4,a4,a3
     818:	00e79a23          	sh	a4,20(a5)
     81c:	4505                	li	a0,1
     81e:	8082                	ret
	if(I2C1->STAR1 & I2C_STAR1_AF)    {I2C1->STAR1 &= ~I2C_STAR1_AF;    return I2C_ERR_NACK;}
     820:	0147d703          	lhu	a4,20(a5)
     824:	40077713          	andi	a4,a4,1024
     828:	cb19                	beqz	a4,83e <i2c_error+0x44>
     82a:	0147d703          	lhu	a4,20(a5)
     82e:	66c1                	lui	a3,0x10
     830:	bff68693          	addi	a3,a3,-1025 # fbff <oled.c.45f942c9+0xa239>
     834:	8f75                	and	a4,a4,a3
     836:	00e79a23          	sh	a4,20(a5)
     83a:	4509                	li	a0,2
     83c:	8082                	ret
	if(I2C1->STAR1 & I2C_STAR1_ARLO)  {I2C1->STAR1 &= ~I2C_STAR1_ARLO;  return I2C_ERR_ARLO;}
     83e:	0147d703          	lhu	a4,20(a5)
     842:	20077713          	andi	a4,a4,512
     846:	cb19                	beqz	a4,85c <i2c_error+0x62>
     848:	0147d703          	lhu	a4,20(a5)
     84c:	66c1                	lui	a3,0x10
     84e:	dff68693          	addi	a3,a3,-513 # fdff <oled.c.45f942c9+0xa439>
     852:	8f75                	and	a4,a4,a3
     854:	00e79a23          	sh	a4,20(a5)
     858:	450d                	li	a0,3
     85a:	8082                	ret
	if(I2C1->STAR1 & I2C_STAR1_OVR)   {I2C1->STAR1 &= ~I2C_STAR1_OVR;   return I2C_ERR_OVR;}
     85c:	0147d703          	lhu	a4,20(a5)

	return I2C_OK;
     860:	4501                	li	a0,0
	if(I2C1->STAR1 & I2C_STAR1_OVR)   {I2C1->STAR1 &= ~I2C_STAR1_OVR;   return I2C_ERR_OVR;}
     862:	01471693          	slli	a3,a4,0x14
     866:	0006db63          	bgez	a3,87c <i2c_error+0x82>
     86a:	0147d703          	lhu	a4,20(a5)
     86e:	76fd                	lui	a3,0xfffff
     870:	7ff68693          	addi	a3,a3,2047 # fffff7ff <_eusrstack+0xdfffefff>
     874:	8f75                	and	a4,a4,a3
     876:	00e79a23          	sh	a4,20(a5)
     87a:	4511                	li	a0,4
}
     87c:	8082                	ret

0000087e <append_formatted_2dp_string>:
/// formatted string at the given pointer
/// @param val, Milli[x] range value
/// @param str, pointer to the first char of the string to append to
/// @return None
static void append_formatted_2dp_string(const uint16_t val, char *str)
{
     87e:	1141                	addi	sp,sp,-16
     880:	c422                	sw	s0,8(sp)
     882:	842e                	mv	s0,a1
	uint16_t whole = val / 1000;          // volts
     884:	3e800593          	li	a1,1000
{
     888:	c606                	sw	ra,12(sp)
     88a:	c226                	sw	s1,4(sp)
     88c:	c02a                	sw	a0,0(sp)
	uint16_t whole = val / 1000;          // volts
     88e:	395d                	jal	544 <__hidden___udivsi3>
     890:	01051493          	slli	s1,a0,0x10
	uint16_t frac  = (val % 1000) / 10;   // hundredths of a volt
     894:	4502                	lw	a0,0(sp)
     896:	3e800593          	li	a1,1000
	uint16_t whole = val / 1000;          // volts
     89a:	80c1                	srli	s1,s1,0x10
	uint16_t frac  = (val % 1000) / 10;   // hundredths of a volt
     89c:	39d1                	jal	570 <__umodsi3>
     89e:	0542                	slli	a0,a0,0x10
     8a0:	45a9                	li	a1,10
     8a2:	8141                	srli	a0,a0,0x10
     8a4:	3145                	jal	544 <__hidden___udivsi3>
     8a6:	01051793          	slli	a5,a0,0x10
     8aa:	83c1                	srli	a5,a5,0x10

	str[0] = (whole / 10) + '0';
     8ac:	45a9                	li	a1,10
     8ae:	8526                	mv	a0,s1
	uint16_t frac  = (val % 1000) / 10;   // hundredths of a volt
     8b0:	c03e                	sw	a5,0(sp)
	str[0] = (whole / 10) + '0';
     8b2:	3949                	jal	544 <__hidden___udivsi3>
     8b4:	03050513          	addi	a0,a0,48 # 1000030 <oled.c.45f942c9+0xffa66a>
     8b8:	00a40023          	sb	a0,0(s0)
	str[1] = (whole % 10) + '0';
     8bc:	45a9                	li	a1,10
     8be:	8526                	mv	a0,s1
     8c0:	3945                	jal	570 <__umodsi3>
     8c2:	03050513          	addi	a0,a0,48
     8c6:	00a400a3          	sb	a0,1(s0)
	str[2] = '.';
	str[3] = (frac / 10) + '0';
     8ca:	4502                	lw	a0,0(sp)
	str[2] = '.';
     8cc:	02e00793          	li	a5,46
     8d0:	00f40123          	sb	a5,2(s0)
	str[3] = (frac / 10) + '0';
     8d4:	45a9                	li	a1,10
     8d6:	31bd                	jal	544 <__hidden___udivsi3>
     8d8:	03050513          	addi	a0,a0,48
     8dc:	00a401a3          	sb	a0,3(s0)
	str[4] = (frac % 10) + '0';
     8e0:	4502                	lw	a0,0(sp)
     8e2:	45a9                	li	a1,10
     8e4:	3171                	jal	570 <__umodsi3>
     8e6:	03050513          	addi	a0,a0,48
     8ea:	00a40223          	sb	a0,4(s0)
}
     8ee:	40b2                	lw	ra,12(sp)
     8f0:	4422                	lw	s0,8(sp)
     8f2:	4492                	lw	s1,4(sp)
     8f4:	0141                	addi	sp,sp,16
     8f6:	8082                	ret

000008f8 <gpio_set_opamp_inputs.constprop.0>:
		(GPIO_EXTEN->EXTEN_CTR & ~GPIO_EXTEN_OPA_PSEL) |
     8f8:	400247b7          	lui	a5,0x40024
     8fc:	80078793          	addi	a5,a5,-2048 # 40023800 <_eusrstack+0x20023000>
     900:	4398                	lw	a4,0(a5)
     902:	fffc06b7          	lui	a3,0xfffc0
     906:	16fd                	addi	a3,a3,-1 # fffbffff <_eusrstack+0xdffbf7ff>
     908:	8f75                	and	a4,a4,a3
		((pos == GPIO_OPAMP_CH2_POS) ? GPIO_EXTEN_OPA_PSEL : 0);
     90a:	054a                	slli	a0,a0,0x12
		(GPIO_EXTEN->EXTEN_CTR & ~GPIO_EXTEN_OPA_PSEL) |
     90c:	8f49                	or	a4,a4,a0
	GPIO_EXTEN->EXTEN_CTR =
     90e:	c398                	sw	a4,0(a5)
		(GPIO_EXTEN->EXTEN_CTR & ~GPIO_EXTEN_OPA_NSEL) |
     910:	4398                	lw	a4,0(a5)
     912:	7681                	lui	a3,0xfffe0
     914:	16fd                	addi	a3,a3,-1 # fffdffff <_eusrstack+0xdffdf7ff>
     916:	8f75                	and	a4,a4,a3
	GPIO_EXTEN->EXTEN_CTR =
     918:	c398                	sw	a4,0(a5)
}
     91a:	8082                	ret

0000091c <DelaySysTick.constprop.0>:
#endif

void DelaySysTick( uint32_t n )
{
#if defined(CH32V003) || defined(CH32V00x)
	uint32_t targend = SysTick->CNT + n;
     91c:	e000f6b7          	lui	a3,0xe000f
     920:	4698                	lw	a4,8(a3)
     922:	016e37b7          	lui	a5,0x16e3
     926:	60078793          	addi	a5,a5,1536 # 16e3600 <oled.c.45f942c9+0x16ddc3a>
     92a:	973e                	add	a4,a4,a5
	while( ((int32_t)( SysTick->CNT - targend )) < 0 );
     92c:	469c                	lw	a5,8(a3)
     92e:	8f99                	sub	a5,a5,a4
     930:	fe07cee3          	bltz	a5,92c <DelaySysTick.constprop.0+0x10>
	uint64_t targend = SysTick->CNT - n;
	while( ((int64_t)( SysTick->CNT - targend )) > 0 );
#else
	#error DelaySysTick not defined.
#endif
}
     934:	8082                	ret

00000936 <internal_handle_input.constprop.0>:
	uint32_t dmd0 = *dmdata0;
     936:	e00007b7          	lui	a5,0xe0000
     93a:	0f47a783          	lw	a5,244(a5) # e00000f4 <_eusrstack+0xbffff8f4>
}
     93e:	8082                	ret

00000940 <_write.constprop.0>:
	if( ( *DMDATA0 & 0xc0 ) == 0xc0 ) return 0;
     940:	e00007b7          	lui	a5,0xe0000
     944:	0f478793          	addi	a5,a5,244 # e00000f4 <_eusrstack+0xbffff8f4>
     948:	4398                	lw	a4,0(a5)
WEAK int _write(int fd, const char *buf, int size)
     94a:	1121                	addi	sp,sp,-24
     94c:	ca06                	sw	ra,20(sp)
     94e:	c822                	sw	s0,16(sp)
     950:	c626                	sw	s1,12(sp)
	if( ( *DMDATA0 & 0xc0 ) == 0xc0 ) return 0;
     952:	0c077713          	andi	a4,a4,192
     956:	0c000693          	li	a3,192
     95a:	00d70b63          	beq	a4,a3,970 <_write.constprop.0+0x30>
	char buffer[4] = { 0 };
     95e:	c402                	sw	zero,8(sp)
     960:	842e                	mv	s0,a1
	if( size == 0 )
     962:	eddd                	bnez	a1,a20 <_write.constprop.0+0xe0>
		lastdmd = (*DMDATA0);
     964:	439c                	lw	a5,0(a5)
		if( lastdmd && !(lastdmd&0x80) ) internal_handle_input( (uint32_t*)DMDATA0 );
     966:	c789                	beqz	a5,970 <_write.constprop.0+0x30>
     968:	0807f793          	andi	a5,a5,128
     96c:	e391                	bnez	a5,970 <_write.constprop.0+0x30>
     96e:	37e1                	jal	936 <internal_handle_input.constprop.0>
	if( ( *DMDATA0 & 0xc0 ) == 0xc0 ) return 0;
     970:	4401                	li	s0,0
}
     972:	40d2                	lw	ra,20(sp)
     974:	8522                	mv	a0,s0
     976:	4442                	lw	s0,16(sp)
     978:	44b2                	lw	s1,12(sp)
     97a:	0161                	addi	sp,sp,24
     97c:	8082                	ret
		int tosend = size - place;
     97e:	409407b3          	sub	a5,s0,s1
		if( tosend > 7 ) tosend = 7;
     982:	471d                	li	a4,7
     984:	00f75363          	bge	a4,a5,98a <_write.constprop.0+0x4a>
     988:	87ba                	mv	a5,a4
     98a:	001006b7          	lui	a3,0x100
		while( ( lastdmd = (*DMDATA0) ) & 0x80 )
     98e:	e0000737          	lui	a4,0xe0000
		if( tosend > 7 ) tosend = 7;
     992:	0685                	addi	a3,a3,1 # 100001 <oled.c.45f942c9+0xfa63b>
		while( ( lastdmd = (*DMDATA0) ) & 0x80 )
     994:	0f470713          	addi	a4,a4,244 # e00000f4 <_eusrstack+0xbffff8f4>
     998:	4310                	lw	a2,0(a4)
     99a:	08067593          	andi	a1,a2,128
     99e:	e1a5                	bnez	a1,9fe <_write.constprop.0+0xbe>
		if( lastdmd ) internal_handle_input( (uint32_t*)DMDATA0 );
     9a0:	c611                	beqz	a2,9ac <_write.constprop.0+0x6c>
     9a2:	c22a                	sw	a0,4(sp)
     9a4:	c03e                	sw	a5,0(sp)
     9a6:	3f41                	jal	936 <internal_handle_input.constprop.0>
     9a8:	4512                	lw	a0,4(sp)
     9aa:	4782                	lw	a5,0(sp)
     9ac:	0034                	addi	a3,sp,8
		if( tosend > 7 ) tosend = 7;
     9ae:	470d                	li	a4,3
     9b0:	85b6                	mv	a1,a3
		while( t < tosend )
     9b2:	04f74d63          	blt	a4,a5,a0c <_write.constprop.0+0xcc>
		*DMDATA1 = *(uint32_t*)&(buffer[0]);
     9b6:	46a2                	lw	a3,8(sp)
     9b8:	e0000737          	lui	a4,0xe0000
		while( t < tosend && t < 3 )
     9bc:	460d                	li	a2,3
		*DMDATA1 = *(uint32_t*)&(buffer[0]);
     9be:	0ed72c23          	sw	a3,248(a4) # e00000f8 <_eusrstack+0xbffff8f8>
     9c2:	009506b3          	add	a3,a0,s1
		t = 0;
     9c6:	4701                	li	a4,0
			buffer[t+1] = buf[t+place];
     9c8:	0006c283          	lbu	t0,0(a3)
     9cc:	0705                	addi	a4,a4,1
     9ce:	00e58333          	add	t1,a1,a4
     9d2:	00530023          	sb	t0,0(t1)
		while( t < tosend && t < 3 )
     9d6:	00e78563          	beq	a5,a4,9e0 <_write.constprop.0+0xa0>
     9da:	0685                	addi	a3,a3,1
     9dc:	fec716e3          	bne	a4,a2,9c8 <_write.constprop.0+0x88>
		buffer[0] = 0x80 | (tosend + 4);
     9e0:	00478713          	addi	a4,a5,4
     9e4:	f8076713          	ori	a4,a4,-128
     9e8:	00e10423          	sb	a4,8(sp)
		*DMDATA0 = *(uint32_t*)&(buffer[0]);
     9ec:	46a2                	lw	a3,8(sp)
     9ee:	e0000737          	lui	a4,0xe0000
		place += tosend;
     9f2:	94be                	add	s1,s1,a5
		*DMDATA0 = *(uint32_t*)&(buffer[0]);
     9f4:	0ed72a23          	sw	a3,244(a4) # e00000f4 <_eusrstack+0xbffff8f4>
	while( place < size )
     9f8:	f884c3e3          	blt	s1,s0,97e <_write.constprop.0+0x3e>
     9fc:	bf9d                	j	972 <_write.constprop.0+0x32>
			if( timeout-- == 0 )
     9fe:	16fd                	addi	a3,a3,-1
     a00:	fec1                	bnez	a3,998 <_write.constprop.0+0x58>
				*DMDATA0 |= 0xc0;
     a02:	431c                	lw	a5,0(a4)
     a04:	0c07e793          	ori	a5,a5,192
     a08:	c31c                	sw	a5,0(a4)
				return 0;
     a0a:	b79d                	j	970 <_write.constprop.0+0x30>
			buffer[t-3] = buf[t+place];
     a0c:	00e48633          	add	a2,s1,a4
     a10:	962a                	add	a2,a2,a0
     a12:	00064603          	lbu	a2,0(a2)
			t++;
     a16:	0705                	addi	a4,a4,1
     a18:	0685                	addi	a3,a3,1
			buffer[t-3] = buf[t+place];
     a1a:	fec68fa3          	sb	a2,-1(a3)
     a1e:	bf51                	j	9b2 <_write.constprop.0+0x72>
     a20:	4481                	li	s1,0
     a22:	bfd9                	j	9f8 <_write.constprop.0+0xb8>

00000a24 <__puts_uart>:
{
     a24:	1161                	addi	sp,sp,-8
     a26:	c022                	sw	s0,0(sp)
     a28:	c206                	sw	ra,4(sp)
     a2a:	842e                	mv	s0,a1
	_write( 0, s, len );
     a2c:	3f11                	jal	940 <_write.constprop.0>
}
     a2e:	4092                	lw	ra,4(sp)
     a30:	8522                	mv	a0,s0
     a32:	4402                	lw	s0,0(sp)
     a34:	0121                	addi	sp,sp,8
     a36:	8082                	ret

00000a38 <i2c_write_reg>:


i2c_err_t i2c_write_reg(const i2c_device_t *dev,    const uint32_t reg,
                                                    const uint8_t *buf,
                                                    const size_t len)
{
     a38:	1101                	addi	sp,sp,-32
     a3a:	cc22                	sw	s0,24(sp)
	I2C_TIMEOUT_WAIT_FOR((I2C1->STAR2 & I2C_STAR2_BUSY), i2c_ret);
     a3c:	c301a403          	lw	s0,-976(gp) # 2000002c <_i2c_timeout>
     a40:	400057b7          	lui	a5,0x40005
{
     a44:	ca26                	sw	s1,20(sp)
     a46:	c232                	sw	a2,4(sp)
     a48:	ce06                	sw	ra,28(sp)
     a4a:	84aa                	mv	s1,a0
     a4c:	c02e                	sw	a1,0(sp)
     a4e:	c436                	sw	a3,8(sp)
	I2C_TIMEOUT_WAIT_FOR((I2C1->STAR2 & I2C_STAR2_BUSY), i2c_ret);
     a50:	8622                	mv	a2,s0
     a52:	40078793          	addi	a5,a5,1024 # 40005400 <_eusrstack+0x20004c00>
     a56:	0187d683          	lhu	a3,24(a5)
     a5a:	8a89                	andi	a3,a3,2
     a5c:	e6c1                	bnez	a3,ae4 <i2c_write_reg+0xac>
	I2C1->CTLR1 |= I2C_CTLR1_START;
     a5e:	0007d683          	lhu	a3,0(a5)
	return (status & status_mask) == status_mask; 
     a62:	00030637          	lui	a2,0x30
     a66:	0605                	addi	a2,a2,1 # 30001 <oled.c.45f942c9+0x2a63b>
	I2C1->CTLR1 |= I2C_CTLR1_START;
     a68:	1006e693          	ori	a3,a3,256
     a6c:	00d79023          	sh	a3,0(a5)
	uint32_t status = (uint32_t)I2C1->STAR1 | (uint32_t)(I2C1->STAR2 << 16);
     a70:	400056b7          	lui	a3,0x40005
     a74:	40068693          	addi	a3,a3,1024 # 40005400 <_eusrstack+0x20004c00>
     a78:	0146d583          	lhu	a1,20(a3)
     a7c:	0186d783          	lhu	a5,24(a3)
     a80:	07c2                	slli	a5,a5,0x10
     a82:	8fcd                	or	a5,a5,a1
	return (status & status_mask) == status_mask; 
     a84:	8ff1                	and	a5,a5,a2
	while(!i2c_status(I2C_EVENT_MASTER_MODE_SELECT));
     a86:	fec799e3          	bne	a5,a2,a78 <i2c_write_reg+0x40>
	if(dev->type == I2C_ADDR_7BIT)
     a8a:	40dc                	lw	a5,4(s1)
     a8c:	c7ad                	beqz	a5,af6 <i2c_write_reg+0xbe>
	if(dev->type == I2C_ADDR_10BIT)
     a8e:	4605                	li	a2,1
     a90:	0ac78163          	beq	a5,a2,b32 <i2c_write_reg+0xfa>
	if(i2c_ret == I2C_OK) { i2c_start(); i2c_ret = i2c_send_addr(I2C_WRITE, dev); }

	// Send the register byte/s - MSBFirst
	if(i2c_ret == I2C_OK)
	{
		for(int8_t b = dev->regb - 1; b >= 0; b--)
     a94:	00a4c783          	lbu	a5,10(s1)
     a98:	17fd                	addi	a5,a5,-1
     a9a:	07e2                	slli	a5,a5,0x18
     a9c:	87e1                	srai	a5,a5,0x18
     a9e:	00379693          	slli	a3,a5,0x3
     aa2:	1407d163          	bgez	a5,be4 <i2c_write_reg+0x1ac>
			if(i2c_ret != I2C_OK || (i2c_ret = i2c_error()) != I2C_OK) break;
		}
	}

	// Write the data
	if(i2c_ret == I2C_OK)
     aa6:	4792                	lw	a5,4(sp)
     aa8:	4722                	lw	a4,8(sp)
     aaa:	00e784b3          	add	s1,a5,a4
	{
		uint8_t cbyte = 0;
		while(cbyte < len)
		{
			// Write the byte and wait for it to finish transmitting
			I2C_TIMEOUT_WAIT_FOR(!(I2C1->STAR1 & I2C_STAR1_TXE), i2c_ret);
     aae:	400056b7          	lui	a3,0x40005
     ab2:	8622                	mv	a2,s0
     ab4:	40068693          	addi	a3,a3,1024 # 40005400 <_eusrstack+0x20004c00>
     ab8:	0146d703          	lhu	a4,20(a3)
     abc:	08077713          	andi	a4,a4,128
     ac0:	16070463          	beqz	a4,c28 <i2c_write_reg+0x1f0>
     ac4:	4501                	li	a0,0
			//while(!(I2C1->STAR1 & I2C_STAR1_TXE));
			I2C1->DATAR = buf[cbyte];
     ac6:	0007c683          	lbu	a3,0(a5)
     aca:	c03e                	sw	a5,0(sp)
     acc:	40005737          	lui	a4,0x40005
     ad0:	40d71823          	sh	a3,1040(a4) # 40005410 <_eusrstack+0x20004c10>
			++cbyte;

			// Make sure no errors occured for this byte
			if(i2c_ret != I2C_OK || (i2c_ret = i2c_error()) != I2C_OK) break;
     ad4:	ed5d                	bnez	a0,b92 <i2c_write_reg+0x15a>
     ad6:	3315                	jal	7fa <i2c_error>
     ad8:	ed4d                	bnez	a0,b92 <i2c_write_reg+0x15a>
		while(cbyte < len)
     ada:	4782                	lw	a5,0(sp)
     adc:	0785                	addi	a5,a5,1
     ade:	fcf498e3          	bne	s1,a5,aae <i2c_write_reg+0x76>
     ae2:	a845                	j	b92 <i2c_write_reg+0x15a>
	I2C_TIMEOUT_WAIT_FOR((I2C1->STAR2 & I2C_STAR2_BUSY), i2c_ret);
     ae4:	fff60693          	addi	a3,a2,-1
     ae8:	e609                	bnez	a2,af2 <i2c_write_reg+0xba>
	i2c_err_t i2c_err = i2c_error();
     aea:	3b01                	jal	7fa <i2c_error>
	if(i2c_err == I2C_OK) i2c_err = I2C_ERR_BUSY;
     aec:	e15d                	bnez	a0,b92 <i2c_write_reg+0x15a>
     aee:	4515                	li	a0,5
     af0:	a04d                	j	b92 <i2c_write_reg+0x15a>
	I2C_TIMEOUT_WAIT_FOR((I2C1->STAR2 & I2C_STAR2_BUSY), i2c_ret);
     af2:	8636                	mv	a2,a3
     af4:	b78d                	j	a56 <i2c_write_reg+0x1e>
		uint8_t addr_7b = (dev->addr << 1);
     af6:	0084d783          	lhu	a5,8(s1)
	uint32_t status = (uint32_t)I2C1->STAR1 | (uint32_t)(I2C1->STAR2 << 16);
     afa:	40005637          	lui	a2,0x40005
			I2C_TIMEOUT_WAIT_FOR(!i2c_status(I2C_EVENT_MASTER_TRANSMITTER_MODE_SELECTED), i2c_ret);
     afe:	85a2                	mv	a1,s0
		uint8_t addr_7b = (dev->addr << 1);
     b00:	0786                	slli	a5,a5,0x1
			I2C1->DATAR = addr_7b & 0xFE;
     b02:	0ff7f793          	zext.b	a5,a5
     b06:	00f69823          	sh	a5,16(a3)
	return (status & status_mask) == status_mask; 
     b0a:	000706b7          	lui	a3,0x70
	uint32_t status = (uint32_t)I2C1->STAR1 | (uint32_t)(I2C1->STAR2 << 16);
     b0e:	40060613          	addi	a2,a2,1024 # 40005400 <_eusrstack+0x20004c00>
	return (status & status_mask) == status_mask; 
     b12:	08268693          	addi	a3,a3,130 # 70082 <oled.c.45f942c9+0x6a6bc>
	uint32_t status = (uint32_t)I2C1->STAR1 | (uint32_t)(I2C1->STAR2 << 16);
     b16:	01465503          	lhu	a0,20(a2)
     b1a:	01865783          	lhu	a5,24(a2)
     b1e:	07c2                	slli	a5,a5,0x10
     b20:	8fc9                	or	a5,a5,a0
	return (status & status_mask) == status_mask; 
     b22:	8ff5                	and	a5,a5,a3
			I2C_TIMEOUT_WAIT_FOR(!i2c_status(I2C_EVENT_MASTER_TRANSMITTER_MODE_SELECTED), i2c_ret);
     b24:	f6d788e3          	beq	a5,a3,a94 <i2c_write_reg+0x5c>
     b28:	fff58793          	addi	a5,a1,-1
     b2c:	dddd                	beqz	a1,aea <i2c_write_reg+0xb2>
     b2e:	85be                	mv	a1,a5
     b30:	b7dd                	j	b16 <i2c_write_reg+0xde>
		uint8_t addr_10b_u = 0xF0 | ((dev->addr >> 7) & 0x06);
     b32:	0084d603          	lhu	a2,8(s1)
			I2C_TIMEOUT_WAIT_FOR(!(I2C1->STAR1 & I2C_STAR1_ADD10), i2c_ret);
     b36:	85a2                	mv	a1,s0
		uint8_t addr_10b_u = 0xF0 | ((dev->addr >> 7) & 0x06);
     b38:	00765793          	srli	a5,a2,0x7
     b3c:	8b99                	andi	a5,a5,6
			I2C1->DATAR = addr_10b_u;
     b3e:	0f07e793          	ori	a5,a5,240
     b42:	00f69823          	sh	a5,16(a3)
			I2C_TIMEOUT_WAIT_FOR(!(I2C1->STAR1 & I2C_STAR1_ADD10), i2c_ret);
     b46:	400057b7          	lui	a5,0x40005
     b4a:	40078793          	addi	a5,a5,1024 # 40005400 <_eusrstack+0x20004c00>
     b4e:	0147d683          	lhu	a3,20(a5)
     b52:	8aa1                	andi	a3,a3,8
     b54:	cead                	beqz	a3,bce <i2c_write_reg+0x196>
     b56:	c632                	sw	a2,12(sp)
			if(i2c_ret != I2C_OK || (i2c_ret = i2c_error()) != I2C_OK) return i2c_ret;
     b58:	314d                	jal	7fa <i2c_error>
     b5a:	ed05                	bnez	a0,b92 <i2c_write_reg+0x15a>
     b5c:	4632                	lw	a2,12(sp)
			I2C1->DATAR = addr_10b_l;
     b5e:	400057b7          	lui	a5,0x40005
     b62:	40078793          	addi	a5,a5,1024 # 40005400 <_eusrstack+0x20004c00>
     b66:	0ff67613          	zext.b	a2,a2
	return (status & status_mask) == status_mask; 
     b6a:	000706b7          	lui	a3,0x70
			I2C1->DATAR = addr_10b_l;
     b6e:	00c79823          	sh	a2,16(a5)
			I2C_TIMEOUT_WAIT_FOR(!i2c_status(I2C_EVENT_MASTER_TRANSMITTER_MODE_SELECTED), i2c_ret);
     b72:	85a2                	mv	a1,s0
	uint32_t status = (uint32_t)I2C1->STAR1 | (uint32_t)(I2C1->STAR2 << 16);
     b74:	863e                	mv	a2,a5
	return (status & status_mask) == status_mask; 
     b76:	08268693          	addi	a3,a3,130 # 70082 <oled.c.45f942c9+0x6a6bc>
	uint32_t status = (uint32_t)I2C1->STAR1 | (uint32_t)(I2C1->STAR2 << 16);
     b7a:	01465503          	lhu	a0,20(a2)
     b7e:	01865783          	lhu	a5,24(a2)
     b82:	07c2                	slli	a5,a5,0x10
     b84:	8fc9                	or	a5,a5,a0
	return (status & status_mask) == status_mask; 
     b86:	8ff5                	and	a5,a5,a3
			I2C_TIMEOUT_WAIT_FOR(!i2c_status(I2C_EVENT_MASTER_TRANSMITTER_MODE_SELECTED), i2c_ret);
     b88:	04d79863          	bne	a5,a3,bd8 <i2c_write_reg+0x1a0>
			if(i2c_ret != I2C_OK || (i2c_ret = i2c_error()) != I2C_OK) return i2c_ret;
     b8c:	31bd                	jal	7fa <i2c_error>
     b8e:	f00503e3          	beqz	a0,a94 <i2c_write_reg+0x5c>
	uint32_t status = (uint32_t)I2C1->STAR1 | (uint32_t)(I2C1->STAR2 << 16);
     b92:	400056b7          	lui	a3,0x40005
	return (status & status_mask) == status_mask; 
     b96:	00070737          	lui	a4,0x70
	uint32_t status = (uint32_t)I2C1->STAR1 | (uint32_t)(I2C1->STAR2 << 16);
     b9a:	40068693          	addi	a3,a3,1024 # 40005400 <_eusrstack+0x20004c00>
	return (status & status_mask) == status_mask; 
     b9e:	08470713          	addi	a4,a4,132 # 70084 <oled.c.45f942c9+0x6a6be>
	uint32_t status = (uint32_t)I2C1->STAR1 | (uint32_t)(I2C1->STAR2 << 16);
     ba2:	0146d603          	lhu	a2,20(a3)
     ba6:	0186d783          	lhu	a5,24(a3)
     baa:	07c2                	slli	a5,a5,0x10
     bac:	8fd1                	or	a5,a5,a2
	return (status & status_mask) == status_mask; 
     bae:	8ff9                	and	a5,a5,a4
		}
	}

	// Wait for the bus to finish transmitting
	I2C_TIMEOUT_WAIT_FOR(!i2c_status(I2C_EVENT_MASTER_BYTE_TRANSMITTED), i2c_ret);
     bb0:	08e79863          	bne	a5,a4,c40 <i2c_write_reg+0x208>
	I2C1->CTLR1 |= I2C_CTLR1_STOP;
     bb4:	400057b7          	lui	a5,0x40005
     bb8:	4007d703          	lhu	a4,1024(a5) # 40005400 <_eusrstack+0x20004c00>
	// Signal a STOP
	i2c_stop();

	return i2c_ret;
}
     bbc:	40f2                	lw	ra,28(sp)
     bbe:	4462                	lw	s0,24(sp)
	I2C1->CTLR1 |= I2C_CTLR1_STOP;
     bc0:	20076713          	ori	a4,a4,512
     bc4:	40e79023          	sh	a4,1024(a5)
}
     bc8:	44d2                	lw	s1,20(sp)
     bca:	6105                	addi	sp,sp,32
     bcc:	8082                	ret
			I2C_TIMEOUT_WAIT_FOR(!(I2C1->STAR1 & I2C_STAR1_ADD10), i2c_ret);
     bce:	fff58693          	addi	a3,a1,-1
     bd2:	dd81                	beqz	a1,aea <i2c_write_reg+0xb2>
     bd4:	85b6                	mv	a1,a3
     bd6:	bfa5                	j	b4e <i2c_write_reg+0x116>
			I2C_TIMEOUT_WAIT_FOR(!i2c_status(I2C_EVENT_MASTER_TRANSMITTER_MODE_SELECTED), i2c_ret);
     bd8:	fff58793          	addi	a5,a1,-1
     bdc:	f00587e3          	beqz	a1,aea <i2c_write_reg+0xb2>
     be0:	85be                	mv	a1,a5
     be2:	bf61                	j	b7a <i2c_write_reg+0x142>
			uint8_t reg_byte = (reg >> (8 * b)) & 0xFF;
     be4:	4702                	lw	a4,0(sp)
			I2C_TIMEOUT_WAIT_FOR(!(I2C1->STAR1 & I2C_STAR1_TXE), i2c_ret);
     be6:	85a2                	mv	a1,s0
			uint8_t reg_byte = (reg >> (8 * b)) & 0xFF;
     be8:	00d75633          	srl	a2,a4,a3
			I2C1->DATAR = reg_byte;
     bec:	0642                	slli	a2,a2,0x10
     bee:	40005737          	lui	a4,0x40005
     bf2:	8241                	srli	a2,a2,0x10
     bf4:	40070713          	addi	a4,a4,1024 # 40005400 <_eusrstack+0x20004c00>
     bf8:	00c71823          	sh	a2,16(a4)
			I2C_TIMEOUT_WAIT_FOR(!(I2C1->STAR1 & I2C_STAR1_TXE), i2c_ret);
     bfc:	01475603          	lhu	a2,20(a4)
     c00:	08067613          	andi	a2,a2,128
     c04:	ce01                	beqz	a2,c1c <i2c_write_reg+0x1e4>
     c06:	c836                	sw	a3,16(sp)
     c08:	c63e                	sw	a5,12(sp)
			if(i2c_ret != I2C_OK || (i2c_ret = i2c_error()) != I2C_OK) break;
     c0a:	3ec5                	jal	7fa <i2c_error>
     c0c:	46c2                	lw	a3,16(sp)
     c0e:	16e1                	addi	a3,a3,-8
     c10:	f149                	bnez	a0,b92 <i2c_write_reg+0x15a>
		for(int8_t b = dev->regb - 1; b >= 0; b--)
     c12:	47b2                	lw	a5,12(sp)
     c14:	17fd                	addi	a5,a5,-1
     c16:	07e2                	slli	a5,a5,0x18
     c18:	87e1                	srai	a5,a5,0x18
     c1a:	b561                	j	aa2 <i2c_write_reg+0x6a>
			I2C_TIMEOUT_WAIT_FOR(!(I2C1->STAR1 & I2C_STAR1_TXE), i2c_ret);
     c1c:	fff58613          	addi	a2,a1,-1
     c20:	ec0585e3          	beqz	a1,aea <i2c_write_reg+0xb2>
     c24:	85b2                	mv	a1,a2
     c26:	bfd9                	j	bfc <i2c_write_reg+0x1c4>
			I2C_TIMEOUT_WAIT_FOR(!(I2C1->STAR1 & I2C_STAR1_TXE), i2c_ret);
     c28:	fff60713          	addi	a4,a2,-1
     c2c:	ea01                	bnez	a2,c3c <i2c_write_reg+0x204>
     c2e:	c03e                	sw	a5,0(sp)
	i2c_err_t i2c_err = i2c_error();
     c30:	36e9                	jal	7fa <i2c_error>
	if(i2c_err == I2C_OK) i2c_err = I2C_ERR_BUSY;
     c32:	4782                	lw	a5,0(sp)
     c34:	e80519e3          	bnez	a0,ac6 <i2c_write_reg+0x8e>
     c38:	4515                	li	a0,5
     c3a:	b571                	j	ac6 <i2c_write_reg+0x8e>
			I2C_TIMEOUT_WAIT_FOR(!(I2C1->STAR1 & I2C_STAR1_TXE), i2c_ret);
     c3c:	863a                	mv	a2,a4
     c3e:	bdad                	j	ab8 <i2c_write_reg+0x80>
	I2C_TIMEOUT_WAIT_FOR(!i2c_status(I2C_EVENT_MASTER_BYTE_TRANSMITTED), i2c_ret);
     c40:	fff40793          	addi	a5,s0,-1
     c44:	e409                	bnez	s0,c4e <i2c_write_reg+0x216>
	i2c_err_t i2c_err = i2c_error();
     c46:	3e55                	jal	7fa <i2c_error>
	if(i2c_err == I2C_OK) i2c_err = I2C_ERR_BUSY;
     c48:	f535                	bnez	a0,bb4 <i2c_write_reg+0x17c>
     c4a:	4515                	li	a0,5
     c4c:	b7a5                	j	bb4 <i2c_write_reg+0x17c>
	I2C_TIMEOUT_WAIT_FOR(!i2c_status(I2C_EVENT_MASTER_BYTE_TRANSMITTED), i2c_ret);
     c4e:	843e                	mv	s0,a5
     c50:	bf89                	j	ba2 <i2c_write_reg+0x16a>

00000c52 <handle_reset>:
	asm volatile( "\n\
     c52:	1ffff197          	auipc	gp,0x1ffff
     c56:	7aa18193          	addi	gp,gp,1962 # 200003fc <__global_pointer$>
     c5a:	40418113          	addi	sp,gp,1028 # 20000800 <_eusrstack>
     c5e:	6509                	lui	a0,0x2
     c60:	88050513          	addi	a0,a0,-1920 # 1880 <main+0x82c>
     c64:	30051073          	csrw	mstatus,a0
     c68:	468d                	li	a3,3
     c6a:	fffff517          	auipc	a0,0xfffff
     c6e:	39650513          	addi	a0,a0,918 # 0 <InterruptVector>
     c72:	8d55                	or	a0,a0,a3
     c74:	30551073          	csrw	mtvec,a0
asm volatile(
     c78:	c2c18513          	addi	a0,gp,-980 # 20000028 <accumulator.0>
     c7c:	06818593          	addi	a1,gp,104 # 20000464 <_ebss>
     c80:	4601                	li	a2,0
     c82:	00b55663          	bge	a0,a1,c8e <handle_reset+0x3c>
     c86:	c110                	sw	a2,0(a0)
     c88:	0511                	addi	a0,a0,4
     c8a:	feb54ee3          	blt	a0,a1,c86 <handle_reset+0x34>
     c8e:	00001517          	auipc	a0,0x1
     c92:	3da50513          	addi	a0,a0,986 # 2068 <_data_lma>
     c96:	c0418593          	addi	a1,gp,-1020 # 20000000 <rotenc_prev_bitmask.1>
     c9a:	c2c18613          	addi	a2,gp,-980 # 20000028 <accumulator.0>
     c9e:	00c58863          	beq	a1,a2,cae <handle_reset+0x5c>
     ca2:	4114                	lw	a3,0(a0)
     ca4:	c194                	sw	a3,0(a1)
     ca6:	0511                	addi	a0,a0,4
     ca8:	0591                	addi	a1,a1,4
     caa:	fec59ae3          	bne	a1,a2,c9e <handle_reset+0x4c>
	SysTick->CTLR = 5;
     cae:	e000f7b7          	lui	a5,0xe000f
     cb2:	4715                	li	a4,5
     cb4:	c398                	sw	a4,0(a5)
asm volatile(
     cb6:	6785                	lui	a5,0x1
     cb8:	05478793          	addi	a5,a5,84 # 1054 <main>
     cbc:	34179073          	csrw	mepc,a5
     cc0:	30200073          	mret

00000cc4 <ADC1_2_IRQHandler>:

// Return the Machine Exception Program Register (MEPC)
static inline uint32_t __get_MEPC(void)
{
	uint32_t result;
	__ASM volatile( ADD_ARCH_ZICSR "csrr %0," "mepc" : "=r"(result));
     cc4:	34102573          	csrr	a0,mepc
	PrintHex( __get_MEPC() ); // "addr2line -e debugprintfdemo.elf 0x000007e6" ---> debugprintfdemo.c:45
     cc8:	3a75                	jal	684 <PrintHex>
	__ASM volatile( ADD_ARCH_ZICSR "csrr %0, mstatus": "=r"(result) );
     cca:	30002573          	csrr	a0,mstatus
	PrintHex( __get_MSTATUS() );
     cce:	3a5d                	jal	684 <PrintHex>

// Return the Machine Trap Value Register (MTVAL)
static inline uint32_t __get_MTVAL(void)
{
	uint32_t result;
	__ASM volatile( ADD_ARCH_ZICSR "csrr %0," "mtval" : "=r" (result) );
     cd0:	34302573          	csrr	a0,mtval
	PrintHex( __get_MTVAL() );
     cd4:	3a45                	jal	684 <PrintHex>
	__ASM volatile( ADD_ARCH_ZICSR "csrr %0," "mcause": "=r"(result));
     cd6:	34202573          	csrr	a0,mcause
	PrintHex( __get_MCAUSE() );
     cda:	326d                	jal	684 <PrintHex>
	while( (*DMDATA0) & 0x80 );
     cdc:	e00007b7          	lui	a5,0xe0000
     ce0:	0f478793          	addi	a5,a5,244 # e00000f4 <_eusrstack+0xbffff8f4>
     ce4:	4398                	lw	a4,0(a5)
     ce6:	08077713          	andi	a4,a4,128
     cea:	ff6d                	bnez	a4,ce4 <ADC1_2_IRQHandler+0x20>
	*DMDATA0 = 0x0a85;
     cec:	6705                	lui	a4,0x1
     cee:	a8570713          	addi	a4,a4,-1403 # a85 <i2c_write_reg+0x4d>
     cf2:	c398                	sw	a4,0(a5)
	while( (*DMDATA0) & 0x80 );
     cf4:	e00007b7          	lui	a5,0xe0000
     cf8:	0f478793          	addi	a5,a5,244 # e00000f4 <_eusrstack+0xbffff8f4>
     cfc:	4398                	lw	a4,0(a5)
     cfe:	08077713          	andi	a4,a4,128
     d02:	ff6d                	bnez	a4,cfc <ADC1_2_IRQHandler+0x38>
	*DMDATA0 = 0xaaaaaa83;
     d04:	aaaab737          	lui	a4,0xaaaab
     d08:	a8370713          	addi	a4,a4,-1405 # aaaaaa83 <_eusrstack+0x8aaaa283>
     d0c:	c398                	sw	a4,0(a5)
	asm volatile( "1: j 1b" );
     d0e:	a001                	j	d0e <ADC1_2_IRQHandler+0x4a>

00000d10 <NMI_Handler>:
	RCC->INTR |= RCC_CSSC;	// clear the clock security int flag
     d10:	40021737          	lui	a4,0x40021
     d14:	471c                	lw	a5,8(a4)
     d16:	008006b7          	lui	a3,0x800
     d1a:	8fd5                	or	a5,a5,a3
     d1c:	c71c                	sw	a5,8(a4)

00000d1e <strlen>:
	for (; *s; s++);
     d1e:	87aa                	mv	a5,a0
     d20:	0007c703          	lbu	a4,0(a5)
     d24:	e701                	bnez	a4,d2c <strlen+0xe>
}
     d26:	40a78533          	sub	a0,a5,a0
     d2a:	8082                	ret
	for (; *s; s++);
     d2c:	0785                	addi	a5,a5,1
     d2e:	bfcd                	j	d20 <strlen+0x2>

00000d30 <mini_vpprintf>:
{
     d30:	fa410113          	addi	sp,sp,-92
     d34:	caa2                	sw	s0,84(sp)
     d36:	c8a6                	sw	s1,80(sp)
     d38:	cc86                	sw	ra,88(sp)
     d3a:	c02a                	sw	a0,0(sp)
     d3c:	c22e                	sw	a1,4(sp)
     d3e:	8432                	mv	s0,a2
     d40:	84b6                	mv	s1,a3
	if(puts == (void*)0) {
     d42:	e509                	bnez	a0,d4c <mini_vpprintf+0x1c>
		puts = _puts; buf = (void*)0;
     d44:	64400793          	li	a5,1604
     d48:	c202                	sw	zero,4(sp)
     d4a:	c03e                	sw	a5,0(sp)
	int n = 0;
     d4c:	ca02                	sw	zero,20(sp)
	while ((ch=*(fmt++))) {
     d4e:	00044783          	lbu	a5,0(s0)
     d52:	00140713          	addi	a4,s0,1
     d56:	00f10fa3          	sb	a5,31(sp)
     d5a:	eb81                	bnez	a5,d6a <mini_vpprintf+0x3a>
}
     d5c:	40e6                	lw	ra,88(sp)
     d5e:	4456                	lw	s0,84(sp)
     d60:	4552                	lw	a0,20(sp)
     d62:	44c6                	lw	s1,80(sp)
     d64:	05c10113          	addi	sp,sp,92
     d68:	8082                	ret
     d6a:	c63a                	sw	a4,12(sp)
		if (ch!='%') {
     d6c:	02500693          	li	a3,37
     d70:	02d78063          	beq	a5,a3,d90 <mini_vpprintf+0x60>
			len = puts(&ch, len, buf);
     d74:	4612                	lw	a2,4(sp)
     d76:	4782                	lw	a5,0(sp)
     d78:	4585                	li	a1,1
     d7a:	01f10513          	addi	a0,sp,31
     d7e:	9782                	jalr	a5
	while ((ch=*(fmt++))) {
     d80:	4732                	lw	a4,12(sp)
     d82:	c426                	sw	s1,8(sp)
     d84:	843a                	mv	s0,a4
		n = n + len;
     d86:	47d2                	lw	a5,20(sp)
     d88:	44a2                	lw	s1,8(sp)
     d8a:	97aa                	add	a5,a5,a0
     d8c:	ca3e                	sw	a5,20(sp)
     d8e:	b7c1                	j	d4e <mini_vpprintf+0x1e>
			ch=*(fmt++);
     d90:	00144783          	lbu	a5,1(s0)
			if (ch == '0') pad_char = '0';
     d94:	03000693          	li	a3,48
			ch=*(fmt++);
     d98:	00240713          	addi	a4,s0,2
     d9c:	00f10fa3          	sb	a5,31(sp)
			if (ch == '0') pad_char = '0';
     da0:	c63e                	sw	a5,12(sp)
     da2:	08d79363          	bne	a5,a3,e28 <mini_vpprintf+0xf8>
				ch=*(fmt++);
     da6:	843a                	mv	s0,a4
     da8:	4681                	li	a3,0
     daa:	4701                	li	a4,0
			while (ch >= '0' && ch <= '9') {
     dac:	45a5                	li	a1,9
     dae:	a819                	j	dc4 <mini_vpprintf+0x94>
				pad_to = pad_to * 10 + (ch - '0');
     db0:	00271793          	slli	a5,a4,0x2
     db4:	97ba                	add	a5,a5,a4
     db6:	0786                	slli	a5,a5,0x1
				ch=*(fmt++);
     db8:	0405                	addi	s0,s0,1
				pad_to = pad_to * 10 + (ch - '0');
     dba:	00f60733          	add	a4,a2,a5
				ch=*(fmt++);
     dbe:	fff44783          	lbu	a5,-1(s0)
     dc2:	4685                	li	a3,1
			while (ch >= '0' && ch <= '9') {
     dc4:	fd078613          	addi	a2,a5,-48
     dc8:	0ff67513          	zext.b	a0,a2
     dcc:	fea5f2e3          	bgeu	a1,a0,db0 <mini_vpprintf+0x80>
     dd0:	c299                	beqz	a3,dd6 <mini_vpprintf+0xa6>
     dd2:	00f10fa3          	sb	a5,31(sp)
			if(pad_to > (signed int) sizeof(bf)) {
     dd6:	c83a                	sw	a4,16(sp)
     dd8:	46e1                	li	a3,24
     dda:	00e6d363          	bge	a3,a4,de0 <mini_vpprintf+0xb0>
     dde:	c836                	sw	a3,16(sp)
			if (ch == 'l') {
     de0:	06c00613          	li	a2,108
			char l = 0;
     de4:	4681                	li	a3,0
			if (ch == 'l') {
     de6:	00c79863          	bne	a5,a2,df6 <mini_vpprintf+0xc6>
				ch=*(fmt++);
     dea:	00044783          	lbu	a5,0(s0)
				l = 1;
     dee:	4685                	li	a3,1
				ch=*(fmt++);
     df0:	0405                	addi	s0,s0,1
     df2:	00f10fa3          	sb	a5,31(sp)
			switch (ch) {
     df6:	01f14603          	lbu	a2,31(sp)
     dfa:	06400793          	li	a5,100
     dfe:	06f60563          	beq	a2,a5,e68 <mini_vpprintf+0x138>
     e02:	02c7e763          	bltu	a5,a2,e30 <mini_vpprintf+0x100>
     e06:	05800793          	li	a5,88
     e0a:	0af60263          	beq	a2,a5,eae <mini_vpprintf+0x17e>
     e0e:	06300793          	li	a5,99
     e12:	0cf60063          	beq	a2,a5,ed2 <mini_vpprintf+0x1a2>
     e16:	d239                	beqz	a2,d5c <mini_vpprintf+0x2c>
					len = puts(&ch, len, buf);
     e18:	4612                	lw	a2,4(sp)
     e1a:	4782                	lw	a5,0(sp)
     e1c:	4585                	li	a1,1
     e1e:	01f10513          	addi	a0,sp,31
     e22:	9782                	jalr	a5
					break;
     e24:	c426                	sw	s1,8(sp)
     e26:	b785                	j	d86 <mini_vpprintf+0x56>
			char pad_char = ' ';
     e28:	02000693          	li	a3,32
     e2c:	c636                	sw	a3,12(sp)
     e2e:	bfa5                	j	da6 <mini_vpprintf+0x76>
			switch (ch) {
     e30:	07500793          	li	a5,117
     e34:	02f60a63          	beq	a2,a5,e68 <mini_vpprintf+0x138>
     e38:	07800793          	li	a5,120
     e3c:	06f60963          	beq	a2,a5,eae <mini_vpprintf+0x17e>
     e40:	07300793          	li	a5,115
     e44:	fcf61ae3          	bne	a2,a5,e18 <mini_vpprintf+0xe8>
					ptr = va_arg(va, char*);
     e48:	00448793          	addi	a5,s1,4
     e4c:	4084                	lw	s1,0(s1)
     e4e:	cc3a                	sw	a4,24(sp)
     e50:	c43e                	sw	a5,8(sp)
					len = mini_strlen(ptr);
     e52:	8526                	mv	a0,s1
     e54:	35e9                	jal	d1e <strlen>
					if (pad_to > 0) {
     e56:	4762                	lw	a4,24(sp)
					len = mini_strlen(ptr);
     e58:	85aa                	mv	a1,a0
					if (pad_to > 0) {
     e5a:	08e05963          	blez	a4,eec <mini_vpprintf+0x1bc>
						len = mini_pad(ptr, len, pad_char, pad_to, bf);
     e5e:	46c2                	lw	a3,16(sp)
     e60:	4632                	lw	a2,12(sp)
     e62:	1838                	addi	a4,sp,56
     e64:	8526                	mv	a0,s1
     e66:	a025                	j	e8e <mini_vpprintf+0x15e>
						len = mini_itoa(va_arg(va, unsigned long), 10, 0, (ch=='u'), bf2);
     e68:	00448793          	addi	a5,s1,4
     e6c:	c43e                	sw	a5,8(sp)
					if(l) {
     e6e:	ca85                	beqz	a3,e9e <mini_vpprintf+0x16e>
						len = mini_itoa(va_arg(va, unsigned long), 10, 0, (ch=='u'), bf2);
     e70:	f8b60613          	addi	a2,a2,-117
     e74:	1018                	addi	a4,sp,32
     e76:	00163693          	seqz	a3,a2
     e7a:	4088                	lw	a0,0(s1)
     e7c:	4601                	li	a2,0
     e7e:	45a9                	li	a1,10
     e80:	85fff0ef          	jal	6de <mini_itoa.part.0>
					len = mini_pad(bf2, len, pad_char, pad_to, bf);
     e84:	46c2                	lw	a3,16(sp)
     e86:	4632                	lw	a2,12(sp)
     e88:	1838                	addi	a4,sp,56
     e8a:	85aa                	mv	a1,a0
					len = mini_pad(bf2, len, pad_char, pad_to, bf);
     e8c:	1008                	addi	a0,sp,32
     e8e:	f2cff0ef          	jal	5ba <mini_pad>
					len = puts(bf, len, buf);
     e92:	4612                	lw	a2,4(sp)
					len = mini_pad(bf2, len, pad_char, pad_to, bf);
     e94:	85aa                	mv	a1,a0
					len = puts(bf, len, buf);
     e96:	1828                	addi	a0,sp,56
     e98:	4782                	lw	a5,0(sp)
     e9a:	9782                	jalr	a5
					break;
     e9c:	b5ed                	j	d86 <mini_vpprintf+0x56>
						if(ch == 'u') {
     e9e:	07500793          	li	a5,117
     ea2:	1018                	addi	a4,sp,32
     ea4:	4685                	li	a3,1
     ea6:	fcf60ae3          	beq	a2,a5,e7a <mini_vpprintf+0x14a>
	if (radix > 16)
     eaa:	4681                	li	a3,0
     eac:	b7f9                	j	e7a <mini_vpprintf+0x14a>
					if(l) {
     eae:	4088                	lw	a0,0(s1)
						len = mini_itoa(va_arg(va, unsigned long), 16, (ch=='X'), 1, bf2);
     eb0:	fa860613          	addi	a2,a2,-88
						len = mini_itoa(va_arg(va, unsigned long), 10, 0, (ch=='u'), bf2);
     eb4:	00448793          	addi	a5,s1,4
     eb8:	1018                	addi	a4,sp,32
     eba:	4685                	li	a3,1
     ebc:	00163613          	seqz	a2,a2
     ec0:	45c1                	li	a1,16
     ec2:	c43e                	sw	a5,8(sp)
	if (radix > 16)
     ec4:	81bff0ef          	jal	6de <mini_itoa.part.0>
					len = mini_pad(bf2, len, pad_char, pad_to, bf);
     ec8:	46c2                	lw	a3,16(sp)
     eca:	4632                	lw	a2,12(sp)
     ecc:	85aa                	mv	a1,a0
     ece:	1838                	addi	a4,sp,56
     ed0:	bf75                	j	e8c <mini_vpprintf+0x15c>
					ch = (char)(va_arg(va, int));
     ed2:	00448793          	addi	a5,s1,4
     ed6:	c43e                	sw	a5,8(sp)
     ed8:	409c                	lw	a5,0(s1)
					len = mini_pad(&ch, 1, pad_char, pad_to, bf);
     eda:	46c2                	lw	a3,16(sp)
     edc:	4632                	lw	a2,12(sp)
					ch = (char)(va_arg(va, int));
     ede:	00f10fa3          	sb	a5,31(sp)
					len = mini_pad(&ch, 1, pad_char, pad_to, bf);
     ee2:	1838                	addi	a4,sp,56
     ee4:	4585                	li	a1,1
     ee6:	01f10513          	addi	a0,sp,31
     eea:	b755                	j	e8e <mini_vpprintf+0x15e>
						len = puts(ptr, len, buf);
     eec:	4612                	lw	a2,4(sp)
     eee:	8526                	mv	a0,s1
     ef0:	b765                	j	e98 <mini_vpprintf+0x168>

00000ef2 <printf>:
{
     ef2:	1111                	addi	sp,sp,-28
     ef4:	c632                	sw	a2,12(sp)
	int ret_status = mini_vpprintf(__puts_uart, 0, format, args);
     ef6:	862a                	mv	a2,a0
     ef8:	6505                	lui	a0,0x1
{
     efa:	c42e                	sw	a1,8(sp)
     efc:	c836                	sw	a3,16(sp)
	int ret_status = mini_vpprintf(__puts_uart, 0, format, args);
     efe:	4581                	li	a1,0
	va_start( args, format );
     f00:	0034                	addi	a3,sp,8
	int ret_status = mini_vpprintf(__puts_uart, 0, format, args);
     f02:	a2450513          	addi	a0,a0,-1500 # a24 <__puts_uart>
{
     f06:	c206                	sw	ra,4(sp)
     f08:	ca3a                	sw	a4,20(sp)
     f0a:	cc3e                	sw	a5,24(sp)
	va_start( args, format );
     f0c:	c036                	sw	a3,0(sp)
	int ret_status = mini_vpprintf(__puts_uart, 0, format, args);
     f0e:	350d                	jal	d30 <mini_vpprintf>
}
     f10:	4092                	lw	ra,4(sp)
     f12:	0171                	addi	sp,sp,28
     f14:	8082                	ret

00000f16 <memset>:
WEAK void *memset(void *dest, int c, size_t n) { unsigned char *s = dest; for (; n; n--, s++) *s = c; return dest; }
     f16:	962a                	add	a2,a2,a0
     f18:	87aa                	mv	a5,a0
     f1a:	00c79363          	bne	a5,a2,f20 <memset+0xa>
     f1e:	8082                	ret
     f20:	00b78023          	sb	a1,0(a5)
     f24:	0785                	addi	a5,a5,1
     f26:	bfd5                	j	f1a <memset+0x4>

00000f28 <strchr>:
	c = (unsigned char)c;
     f28:	0ff5f593          	zext.b	a1,a1
		char ts = *s;
     f2c:	00054783          	lbu	a5,0(a0)
		if( ts == c ) return (char*)s;
     f30:	00b78663          	beq	a5,a1,f3c <strchr+0x14>
		if( !ts ) return 0;
     f34:	c399                	beqz	a5,f3a <strchr+0x12>
		s++;
     f36:	0505                	addi	a0,a0,1
	{
     f38:	bfd5                	j	f2c <strchr+0x4>
		if( !ts ) return 0;
     f3a:	4501                	li	a0,0
}
     f3c:	8082                	ret

00000f3e <font16x16_to_framebuffer.part.0>:
static void font16x16_to_framebuffer(const char *str, uint8_t *ptr)
     f3e:	1151                	addi	sp,sp,-12
     f40:	c222                	sw	s0,4(sp)
     f42:	c026                	sw	s1,0(sp)
     f44:	c406                	sw	ra,8(sp)
     f46:	842a                	mv	s0,a0
     f48:	84ae                	mv	s1,a1
		const char *lut_ptr = strchr(font16_16_lut, *str++);
     f4a:	6709                	lui	a4,0x2
	while(*str)
     f4c:	00044583          	lbu	a1,0(s0)
     f50:	e591                	bnez	a1,f5c <font16x16_to_framebuffer.part.0+0x1e>
}
     f52:	40a2                	lw	ra,8(sp)
     f54:	4412                	lw	s0,4(sp)
     f56:	4482                	lw	s1,0(sp)
     f58:	0131                	addi	sp,sp,12
     f5a:	8082                	ret
		const char *lut_ptr = strchr(font16_16_lut, *str++);
     f5c:	03470513          	addi	a0,a4,52 # 2034 <font16_16_lut>
     f60:	37e1                	jal	f28 <strchr>
     f62:	0405                	addi	s0,s0,1
		if(lut_ptr == NULL) continue;
     f64:	6709                	lui	a4,0x2
     f66:	6689                	lui	a3,0x2
     f68:	d175                	beqz	a0,f4c <font16x16_to_framebuffer.part.0+0xe>
		const uint16_t *glyph = font16x16_data[lut_ptr - font16_16_lut];
     f6a:	03470793          	addi	a5,a4,52 # 2034 <font16_16_lut>
     f6e:	40f507b3          	sub	a5,a0,a5
     f72:	e1468613          	addi	a2,a3,-492 # 1e14 <font16x16_data>
     f76:	0796                	slli	a5,a5,0x5
     f78:	97b2                	add	a5,a5,a2
     f7a:	02078513          	addi	a0,a5,32
     f7e:	8626                	mv	a2,s1
			ptr[line]              = (uint8_t)(glyph[line] & 0xFF);
     f80:	0007d583          	lhu	a1,0(a5)
		for(uint8_t line = 0; line < GLYPH_ROWS; line++)
     f84:	0789                	addi	a5,a5,2
     f86:	0605                	addi	a2,a2,1
			ptr[line]              = (uint8_t)(glyph[line] & 0xFF);
     f88:	feb60fa3          	sb	a1,-1(a2)
			ptr[line + OLED_WIDTH] = (uint8_t)(glyph[line] >> 8);
     f8c:	ffe7d583          	lhu	a1,-2(a5)
     f90:	81a1                	srli	a1,a1,0x8
     f92:	06b60fa3          	sb	a1,127(a2)
		for(uint8_t line = 0; line < GLYPH_ROWS; line++)
     f96:	fea795e3          	bne	a5,a0,f80 <font16x16_to_framebuffer.part.0+0x42>
		ptr += GLYPH_ROWS;
     f9a:	04c1                	addi	s1,s1,16
     f9c:	bf45                	j	f4c <font16x16_to_framebuffer.part.0+0xe>

00000f9e <memcpy>:
	for (; n; n--) *d++ = *s++;
     f9e:	4781                	li	a5,0
     fa0:	00f61363          	bne	a2,a5,fa6 <memcpy+0x8>
}
     fa4:	8082                	ret
	for (; n; n--) *d++ = *s++;
     fa6:	00f58733          	add	a4,a1,a5
     faa:	00074683          	lbu	a3,0(a4)
     fae:	00f50733          	add	a4,a0,a5
     fb2:	0785                	addi	a5,a5,1
     fb4:	00d70023          	sb	a3,0(a4)
     fb8:	b7e5                	j	fa0 <memcpy+0x2>

00000fba <font8x8_to_framebuffer.part.0>:
static void font8x8_to_framebuffer(const char *str, uint8_t *ptr)
     fba:	1151                	addi	sp,sp,-12
     fbc:	c222                	sw	s0,4(sp)
     fbe:	c026                	sw	s1,0(sp)
     fc0:	c406                	sw	ra,8(sp)
     fc2:	84aa                	mv	s1,a0
     fc4:	842e                	mv	s0,a1
	while(*str)
     fc6:	0004c583          	lbu	a1,0(s1)
     fca:	e591                	bnez	a1,fd6 <font8x8_to_framebuffer.part.0+0x1c>
}
     fcc:	40a2                	lw	ra,8(sp)
     fce:	4412                	lw	s0,4(sp)
     fd0:	4482                	lw	s1,0(sp)
     fd2:	0131                	addi	sp,sp,12
     fd4:	8082                	ret
		const char *lut_ptr = strchr(font8x8_lut, *str++);
     fd6:	6789                	lui	a5,0x2
     fd8:	de478513          	addi	a0,a5,-540 # 1de4 <font8x8_lut>
     fdc:	0485                	addi	s1,s1,1
     fde:	37a9                	jal	f28 <strchr>
		if(lut_ptr == NULL) continue;
     fe0:	d17d                	beqz	a0,fc6 <font8x8_to_framebuffer.part.0+0xc>
		memcpy(ptr, font8x8_data[lut_ptr - font8x8_lut], sizeof(font8x8_data[0]));
     fe2:	6789                	lui	a5,0x2
     fe4:	de478793          	addi	a5,a5,-540 # 1de4 <font8x8_lut>
     fe8:	40f507b3          	sub	a5,a0,a5
     fec:	6589                	lui	a1,0x2
     fee:	078e                	slli	a5,a5,0x3
     ff0:	c6c58593          	addi	a1,a1,-916 # 1c6c <font8x8_data>
     ff4:	8522                	mv	a0,s0
     ff6:	4621                	li	a2,8
     ff8:	95be                	add	a1,a1,a5
     ffa:	3755                	jal	f9e <memcpy>
		ptr += sizeof(font8x8_data[0]);
     ffc:	0421                	addi	s0,s0,8
     ffe:	b7e1                	j	fc6 <font8x8_to_framebuffer.part.0+0xc>

00001000 <SystemInit>:
	#endif
#elif defined(CH32X03x)
	FLASH->ACTLR = FLASH_ACTLR_LATENCY_2;                   // +2 Cycle Latency (Recommended per TRM)
#elif defined(CH32V003)
	#if FUNCONF_SYSTEM_CORE_CLOCK > 25000000
		FLASH->ACTLR = FLASH_ACTLR_LATENCY_1;               // +1 Cycle Latency
    1000:	400227b7          	lui	a5,0x40022
    1004:	4705                	li	a4,1
    1006:	c398                	sw	a4,0(a5)
#elif defined(FUNCONF_USE_HSI) && FUNCONF_USE_HSI
	#if defined(CH32V30x) || defined(CH32V20x) || defined(CH32V10x)
		EXTEN->EXTEN_CTR |= EXTEN_PLL_HSI_PRE;
	#endif
	#if defined(FUNCONF_USE_PLL) && FUNCONF_USE_PLL
		RCC->CFGR0 = BASE_CFGR0;
    1008:	400217b7          	lui	a5,0x40021
		RCC->CTLR  = BASE_CTLR | RCC_HSION | RCC_PLLON; 			// Use HSI, enable PLL.
    100c:	01080737          	lui	a4,0x1080
		RCC->CFGR0 = BASE_CFGR0;
    1010:	0007a223          	sw	zero,4(a5) # 40021004 <_eusrstack+0x20020804>
		RCC->CTLR  = BASE_CTLR | RCC_HSION | RCC_PLLON; 			// Use HSI, enable PLL.
    1014:	08170713          	addi	a4,a4,129 # 1080081 <oled.c.45f942c9+0x107a6bb>
    1018:	c398                	sw	a4,0(a5)
		FLASH->ACTLR = FLASH_ACTLR_LATENCY_1;       		// +1 Cycle Latency
	#endif
#endif

#if !defined(CH57x) && !defined(CH58x) && !defined(CH59x)
	RCC->INTR  = 0x009F0000;                               // Clear PLL, CSSC, HSE, HSI and LSI ready flags.
    101a:	009f0737          	lui	a4,0x9f0
    101e:	c798                	sw	a4,8(a5)
#endif

#if defined(FUNCONF_USE_PLL) && FUNCONF_USE_PLL && !defined(CH57x) && !defined(CH58x) && !defined(CH59x)
	while((RCC->CTLR & RCC_PLLRDY) == 0);                       	// Wait till PLL is ready
    1020:	4398                	lw	a4,0(a5)
    1022:	00671693          	slli	a3,a4,0x6
    1026:	fe06dde3          	bgez	a3,1020 <SystemInit+0x20>
	uint32_t tmp32 = RCC->CFGR0 & ~(0x03);							// clr the SW
    102a:	43d8                	lw	a4,4(a5)
	RCC->CFGR0 = tmp32 | RCC_SW_PLL;                       			// Select PLL as system clock source
	while ((RCC->CFGR0 & (uint32_t)RCC_SWS) != (uint32_t)0x08); 	// Wait till PLL is used as system clock source
    102c:	400216b7          	lui	a3,0x40021
	uint32_t tmp32 = RCC->CFGR0 & ~(0x03);							// clr the SW
    1030:	9b71                	andi	a4,a4,-4
	RCC->CFGR0 = tmp32 | RCC_SW_PLL;                       			// Select PLL as system clock source
    1032:	00276713          	ori	a4,a4,2
    1036:	c3d8                	sw	a4,4(a5)
	while ((RCC->CFGR0 & (uint32_t)RCC_SWS) != (uint32_t)0x08); 	// Wait till PLL is used as system clock source
    1038:	4721                	li	a4,8
    103a:	42dc                	lw	a5,4(a3)
    103c:	8bb1                	andi	a5,a5,12
    103e:	fee79ee3          	bne	a5,a4,103a <SystemInit+0x3a>
	*DMDATA1 = 0x00;
    1042:	e00007b7          	lui	a5,0xe0000
    1046:	0e07ac23          	sw	zero,248(a5) # e00000f8 <_eusrstack+0xbffff8f8>
	*DMDATA0 = 0x80;
    104a:	08000713          	li	a4,128
    104e:	0ee7aa23          	sw	a4,244(a5)
	SetupUART( UART_BRR );
#endif
#if defined( FUNCONF_USE_DEBUGPRINTF ) && FUNCONF_USE_DEBUGPRINTF
	SetupDebugPrintf();
#endif
}
    1052:	8082                	ret

00001054 <main>:



/*** Main ********************************************************************/
int main(void)
{
    1054:	fa810113          	addi	sp,sp,-88
    1058:	ca86                	sw	ra,84(sp)
    105a:	c8a2                	sw	s0,80(sp)
    105c:	c6a6                	sw	s1,76(sp)
	SystemInit();

	/*** IO Initialisation *******************************/
	// I2C Setup for the OLED
	i2c_device_t i2c_oled = {
    105e:	6409                	lui	s0,0x2
	SystemInit();
    1060:	3745                	jal	1000 <SystemInit>
	i2c_device_t i2c_oled = {
    1062:	b0040593          	addi	a1,s0,-1280 # 1b00 <thermistor_pair+0x130>
    1066:	4641                	li	a2,16
    1068:	1008                	addi	a0,sp,32
    106a:	3f15                	jal	f9e <memcpy>
	_i2c_timeout = dev->tout;
    106c:	7d000713          	li	a4,2000
    1070:	c2e1a823          	sw	a4,-976(gp) # 2000002c <_i2c_timeout>
	RCC->APB1PRSTR |=  RCC_APB1Periph_I2C1;
    1074:	400214b7          	lui	s1,0x40021
    1078:	4898                	lw	a4,16(s1)
    107a:	00200637          	lui	a2,0x200
	RCC->APB1PRSTR &= ~RCC_APB1Periph_I2C1;
    107e:	ffe006b7          	lui	a3,0xffe00
	RCC->APB1PRSTR |=  RCC_APB1Periph_I2C1;
    1082:	8f51                	or	a4,a4,a2
    1084:	c898                	sw	a4,16(s1)
	RCC->APB1PRSTR &= ~RCC_APB1Periph_I2C1;
    1086:	4898                	lw	a4,16(s1)
    1088:	16fd                	addi	a3,a3,-1 # ffdfffff <_eusrstack+0xdfdff7ff>
    108a:	8f75                	and	a4,a4,a3
    108c:	c898                	sw	a4,16(s1)
	RCC->APB1PCENR |= RCC_APB1Periph_I2C1;
    108e:	4cd8                	lw	a4,28(s1)
    1090:	8f51                	or	a4,a4,a2
    1092:	ccd8                	sw	a4,28(s1)
	RCC->APB2PCENR |= I2C_PORT_RCC | RCC_APB2Periph_AFIO;
    1094:	4c98                	lw	a4,24(s1)
	AFIO->PCFR1 &= ~(0x04400002);
    1096:	fbc00637          	lui	a2,0xfbc00
    109a:	1675                	addi	a2,a2,-3 # fbbffffd <_eusrstack+0xdbbff7fd>
	RCC->APB2PCENR |= I2C_PORT_RCC | RCC_APB2Periph_AFIO;
    109c:	01176713          	ori	a4,a4,17
    10a0:	cc98                	sw	a4,24(s1)
	AFIO->PCFR1 &= ~(0x04400002);
    10a2:	40010737          	lui	a4,0x40010
    10a6:	4354                	lw	a3,4(a4)
    10a8:	8ef1                	and	a3,a3,a2
    10aa:	c354                	sw	a3,4(a4)
	AFIO->PCFR1 |= I2C_AFIO_REG;
    10ac:	4354                	lw	a3,4(a4)
	I2C_PORT->CFGLR &= ~(0x0F << (4 * I2C_PIN_SCL));
    10ae:	767d                	lui	a2,0xfffff
    10b0:	0ff60613          	addi	a2,a2,255 # fffff0ff <_eusrstack+0xdfffe8ff>
	AFIO->PCFR1 |= I2C_AFIO_REG;
    10b4:	c354                	sw	a3,4(a4)
	I2C_PORT->CFGLR &= ~(0x0F << (4 * I2C_PIN_SDA));
    10b6:	40011737          	lui	a4,0x40011
    10ba:	4314                	lw	a3,0(a4)
    10bc:	f0f6f693          	andi	a3,a3,-241
    10c0:	c314                	sw	a3,0(a4)
	I2C_PORT->CFGLR |= (GPIO_Speed_10MHz | GPIO_CNF_OUT_OD_AF) << (4 * I2C_PIN_SDA);	
    10c2:	4314                	lw	a3,0(a4)
    10c4:	0d06e693          	ori	a3,a3,208
    10c8:	c314                	sw	a3,0(a4)
	I2C_PORT->CFGLR &= ~(0x0F << (4 * I2C_PIN_SCL));
    10ca:	4314                	lw	a3,0(a4)
    10cc:	8ef1                	and	a3,a3,a2
    10ce:	c314                	sw	a3,0(a4)
	I2C_PORT->CFGLR |= (GPIO_Speed_10MHz | GPIO_CNF_OUT_OD_AF) << (4 * I2C_PIN_SCL);
    10d0:	4314                	lw	a3,0(a4)
    10d2:	6605                	lui	a2,0x1
    10d4:	d0060613          	addi	a2,a2,-768 # d00 <ADC1_2_IRQHandler+0x3c>
    10d8:	8ed1                	or	a3,a3,a2
    10da:	c314                	sw	a3,0(a4)
	uint16_t i2c_conf = I2C1->CTLR2 & ~I2C_CTLR2_FREQ;
    10dc:	40005737          	lui	a4,0x40005
    10e0:	40475683          	lhu	a3,1028(a4) # 40005404 <_eusrstack+0x20004c04>
    10e4:	6641                	lui	a2,0x10
    10e6:	fc060613          	addi	a2,a2,-64 # ffc0 <oled.c.45f942c9+0xa5fa>
    10ea:	8ef1                	and	a3,a3,a2
	i2c_conf |= (FUNCONF_SYSTEM_CORE_CLOCK / I2C_PRERATE) & I2C_CTLR2_FREQ;
    10ec:	0306e693          	ori	a3,a3,48
	I2C1->CTLR2 = i2c_conf;
    10f0:	40d71223          	sh	a3,1028(a4)
	I2C1->CKCFGR = i2c_conf;
    10f4:	76e1                	lui	a3,0xffff8
    10f6:	06c1                	addi	a3,a3,16 # ffff8010 <_eusrstack+0xdfff7810>
    10f8:	40d71e23          	sh	a3,1052(a4)
	I2C1->CTLR1 |= I2C_CTLR1_PE;
    10fc:	40075683          	lhu	a3,1024(a4)
    1100:	0016e693          	ori	a3,a3,1
    1104:	40d71023          	sh	a3,1024(a4)
	return i2c_error();
    1108:	ef2ff0ef          	jal	7fa <i2c_error>
static void pwm_init(void)
{
	// NOTE: Uses TIM2 Channel 2 (PD3) and TIM2 Channel 3 (PC0)

	// Enable TIM2 Clock
	RCC->APB1PCENR |= RCC_APB1Periph_TIM2;
    110c:	4cd8                	lw	a4,28(s1)

	// Set GPIO OUTPUT 10MHz, Aleternate Function (Multiplex)
	gpio_set_mode(GPIO_PC0, OUTPUT_10MHZ_PP | OUTPUT_PP_AF);
    110e:	45a5                	li	a1,9
    1110:	4509                	li	a0,2
	RCC->APB1PCENR |= RCC_APB1Periph_TIM2;
    1112:	00176713          	ori	a4,a4,1
    1116:	ccd8                	sw	a4,28(s1)
	gpio_set_mode(GPIO_PC0, OUTPUT_10MHZ_PP | OUTPUT_PP_AF);
    1118:	e86ff0ef          	jal	79e <gpio_set_mode>
	gpio_set_mode(GPIO_PD3, OUTPUT_10MHZ_PP | OUTPUT_PP_AF);
    111c:	45a5                	li	a1,9
    111e:	30300513          	li	a0,771
    1122:	e7cff0ef          	jal	79e <gpio_set_mode>

	// Reset TIM2, Inits all registers
	RCC->APB1PRSTR |=  RCC_APB1Periph_TIM2;
    1126:	4898                	lw	a4,16(s1)
	RCC->APB1PRSTR &= ~RCC_APB1Periph_TIM2;

	// Set Prescaler to ~17KHz. More efficient switching
	TIM2->PSC = 0x000A;
    1128:	46a9                	li	a3,10
	// Set PWM Max Value (Autoreload Value)
	TIM2->ATRLR = 254;

	// Set the Compare Capture Register for Channel 3
	// TIM2_OC3M = 0b111 - PWM Mode 2 - Enable Preload
	TIM2->CHCTLR1 |= TIM_OC2M_2 | TIM_OC2M_1 | TIM_OC2M_0 | TIM_OC2PE;
    112a:	6621                	lui	a2,0x8
	RCC->APB1PRSTR |=  RCC_APB1Periph_TIM2;
    112c:	00176713          	ori	a4,a4,1
    1130:	c898                	sw	a4,16(s1)
	RCC->APB1PRSTR &= ~RCC_APB1Periph_TIM2;
    1132:	4898                	lw	a4,16(s1)
	TIM2->CHCTLR1 |= TIM_OC2M_2 | TIM_OC2M_1 | TIM_OC2M_0 | TIM_OC2PE;
    1134:	80060613          	addi	a2,a2,-2048 # 7800 <oled.c.45f942c9+0x1e3a>
	gpio_set_mode(ROTENC_SW_PIN, INPUT_PULLUP);
    1138:	45e1                	li	a1,24
	RCC->APB1PRSTR &= ~RCC_APB1Periph_TIM2;
    113a:	9b79                	andi	a4,a4,-2
    113c:	c898                	sw	a4,16(s1)
	TIM2->PSC = 0x000A;
    113e:	40000737          	lui	a4,0x40000
    1142:	02d71423          	sh	a3,40(a4) # 40000028 <_eusrstack+0x1ffff828>
	TIM2->ATRLR = 254;
    1146:	0fe00693          	li	a3,254
    114a:	02d71623          	sh	a3,44(a4)
	TIM2->CHCTLR1 |= TIM_OC2M_2 | TIM_OC2M_1 | TIM_OC2M_0 | TIM_OC2PE;
    114e:	01875683          	lhu	a3,24(a4)
	gpio_set_mode(ROTENC_SW_PIN, INPUT_PULLUP);
    1152:	30200513          	li	a0,770
	TIM2->CHCTLR1 |= TIM_OC2M_2 | TIM_OC2M_1 | TIM_OC2M_0 | TIM_OC2PE;
    1156:	8ed1                	or	a3,a3,a2
    1158:	00d71c23          	sh	a3,24(a4)
	TIM2->CHCTLR2 |= TIM_OC3M_2 | TIM_OC3M_1 | TIM_OC3M_0 | TIM_OC3PE;
    115c:	01c75683          	lhu	a3,28(a4)
    1160:	0786e693          	ori	a3,a3,120
    1164:	00d71e23          	sh	a3,28(a4)

	// Enable auto-reload
	TIM2->CTLR1 |= TIM_ARPE;
    1168:	00075683          	lhu	a3,0(a4)
    116c:	0806e693          	ori	a3,a3,128
    1170:	00d71023          	sh	a3,0(a4)

	// Enable channel output, polarity is ACTIVE_HIGH
	TIM2->CCER |= TIM_CC2E | TIM_CC2P;
    1174:	02075683          	lhu	a3,32(a4)
    1178:	0306e693          	ori	a3,a3,48
    117c:	02d71023          	sh	a3,32(a4)
	TIM2->CCER |= TIM_CC3E | TIM_CC3P;
    1180:	02075683          	lhu	a3,32(a4)
    1184:	3006e693          	ori	a3,a3,768
    1188:	02d71023          	sh	a3,32(a4)

	// Initialise Counter
	TIM2->SWEVGR |= TIM_UG;
    118c:	01475683          	lhu	a3,20(a4)
    1190:	0016e693          	ori	a3,a3,1
    1194:	00d71a23          	sh	a3,20(a4)

	// Enable TIM2
	TIM2->CTLR1 |= TIM_CEN;
    1198:	00075683          	lhu	a3,0(a4)
    119c:	0016e693          	ori	a3,a3,1
    11a0:	00d71023          	sh	a3,0(a4)
static  void pwm_set_duty(const uint8_t ch, const uint32_t duty)
{
	switch(ch)
	{
		case 2:
			TIM2->CH2CVR = duty;
    11a4:	0ff00693          	li	a3,255
    11a8:	df14                	sw	a3,56(a4)
			break;
		case 3:
			TIM2->CH3CVR = duty;
    11aa:	02072e23          	sw	zero,60(a4)
	gpio_set_mode(ROTENC_SW_PIN, INPUT_PULLUP);
    11ae:	df0ff0ef          	jal	79e <gpio_set_mode>
	gpio_set_mode(ROTENC_A_PIN,  INPUT_PULLUP);
    11b2:	45e1                	li	a1,24
    11b4:	40200513          	li	a0,1026
    11b8:	de6ff0ef          	jal	79e <gpio_set_mode>
	gpio_set_mode(ROTENC_B_PIN,  INPUT_PULLUP);
    11bc:	45e1                	li	a1,24
    11be:	50200513          	li	a0,1282
    11c2:	ddcff0ef          	jal	79e <gpio_set_mode>


void gpio_init_adc(const ADC_CLOCK_DIV div, const ADC_SAMPLE_CYCLES cycles)
{
	// Enable the ADC clock
	GPIO_RCC->APB2PCENR |= RCC_APB2Periph_ADC1;
    11c6:	4c98                	lw	a4,24(s1)

	// Set ACD Clock Divider
	GPIO_RCC->CFGR0 &= ~ADC_CLOCK_DIV_128;
    11c8:	76c1                	lui	a3,0xffff0
    11ca:	7ff68693          	addi	a3,a3,2047 # ffff07ff <_eusrstack+0xdffeffff>
	GPIO_RCC->APB2PCENR |= RCC_APB2Periph_ADC1;
    11ce:	20076713          	ori	a4,a4,512
    11d2:	cc98                	sw	a4,24(s1)
	GPIO_RCC->CFGR0 &= ~ADC_CLOCK_DIV_128;
    11d4:	40d8                	lw	a4,4(s1)
	// Reset the ADC, Inits all registers
	GPIO_RCC->APB2PRSTR |=  RCC_APB2Periph_ADC1;
	GPIO_RCC->APB2PRSTR &= ~RCC_APB2Periph_ADC1;
	
	// Set rule channel conversion to all 0, ready for read
	GPIO_ADC1->RSQR1 = 0;
    11d6:	400127b7          	lui	a5,0x40012
    11da:	40078793          	addi	a5,a5,1024 # 40012400 <_eusrstack+0x20011c00>
	GPIO_RCC->CFGR0 &= ~ADC_CLOCK_DIV_128;
    11de:	8f75                	and	a4,a4,a3
    11e0:	c0d8                	sw	a4,4(s1)
	GPIO_RCC->CFGR0 |= div;
    11e2:	40d8                	lw	a4,4(s1)
	// Set the Sample Register(s) for all channels at once
	GPIO_ADC1->SAMPTR1 = cycles;
	GPIO_ADC1->SAMPTR2 = cycles;

	// Enable the ADC, and set the triggering to external
	GPIO_ADC1->CTLR2 |= ADC_ADON | ADC_EXTSEL;
    11e4:	000e06b7          	lui	a3,0xe0
    11e8:	0685                	addi	a3,a3,1 # e0001 <oled.c.45f942c9+0xda63b>
	GPIO_RCC->CFGR0 |= div;
    11ea:	c0d8                	sw	a4,4(s1)
	GPIO_RCC->APB2PRSTR |=  RCC_APB2Periph_ADC1;
    11ec:	44d8                	lw	a4,12(s1)
    11ee:	20076713          	ori	a4,a4,512
    11f2:	c4d8                	sw	a4,12(s1)
	GPIO_RCC->APB2PRSTR &= ~RCC_APB2Periph_ADC1;
    11f4:	44d8                	lw	a4,12(s1)
    11f6:	dff77713          	andi	a4,a4,-513
    11fa:	c4d8                	sw	a4,12(s1)
	GPIO_ADC1->RSQR1 = 0;
    11fc:	0207a623          	sw	zero,44(a5)
	GPIO_ADC1->RSQR2 = 0;
    1200:	0207a823          	sw	zero,48(a5)
	GPIO_ADC1->SAMPTR1 = cycles;
    1204:	24925737          	lui	a4,0x24925
	GPIO_ADC1->RSQR3 = 0;
    1208:	0207aa23          	sw	zero,52(a5)
	GPIO_ADC1->SAMPTR1 = cycles;
    120c:	92470713          	addi	a4,a4,-1756 # 24924924 <_eusrstack+0x4924124>
    1210:	c7d8                	sw	a4,12(a5)
	GPIO_ADC1->SAMPTR2 = cycles;
    1212:	cb98                	sw	a4,16(a5)
	GPIO_ADC1->CTLR2 |= ADC_ADON | ADC_EXTSEL;
    1214:	4798                	lw	a4,8(a5)
    1216:	8f55                	or	a4,a4,a3
    1218:	c798                	sw	a4,8(a5)
	
	// Reset calibration, wait for it to finish
	GPIO_ADC1->CTLR2 |= ADC_RSTCAL;
    121a:	4798                	lw	a4,8(a5)
    121c:	00876713          	ori	a4,a4,8
    1220:	c798                	sw	a4,8(a5)
	while(GPIO_ADC1->CTLR2 & ADC_RSTCAL);
    1222:	4798                	lw	a4,8(a5)
    1224:	8b21                	andi	a4,a4,8
    1226:	ff75                	bnez	a4,1222 <main+0x1ce>

	// Calibrate the ADC, want for it to finish
	GPIO_ADC1->CTLR2 |= ADC_CAL;
    1228:	4798                	lw	a4,8(a5)
    122a:	00476713          	ori	a4,a4,4
    122e:	c798                	sw	a4,8(a5)
	while(GPIO_ADC1->CTLR2 & ADC_CAL);
    1230:	400127b7          	lui	a5,0x40012
    1234:	40078493          	addi	s1,a5,1024 # 40012400 <_eusrstack+0x20011c00>
    1238:	4498                	lw	a4,8(s1)
    123a:	8b11                	andi	a4,a4,4
    123c:	ff75                	bnez	a4,1238 <main+0x1e4>
	gpio_set_mode(OPAMP_CHA1_NEG, INPUT_FLOATING);
    123e:	4591                	li	a1,4
    1240:	10000513          	li	a0,256
    1244:	d5aff0ef          	jal	79e <gpio_set_mode>
	gpio_set_mode(OPAMP_CHA1_POS, INPUT_FLOATING);
    1248:	4591                	li	a1,4
    124a:	20000513          	li	a0,512
    124e:	d50ff0ef          	jal	79e <gpio_set_mode>
	gpio_set_mode(OPAMP_CHA2_POS, INPUT_FLOATING);
    1252:	4591                	li	a1,4
    1254:	70300513          	li	a0,1795
    1258:	d46ff0ef          	jal	79e <gpio_set_mode>
	gpio_set_mode(THERM_ADC_PIN,  INPUT_ANALOG);
    125c:	4581                	li	a1,0
    125e:	50300513          	li	a0,1283
    1262:	d3cff0ef          	jal	79e <gpio_set_mode>
	gpio_set_mode(BSENS_ADC_PIN,  INPUT_ANALOG);
    1266:	4581                	li	a1,0
    1268:	60300513          	li	a0,1539
    126c:	d32ff0ef          	jal	79e <gpio_set_mode>
	gpio_set_mode(OPAMP_ADC_PIN,  INPUT_ANALOG);	
    1270:	4581                	li	a1,0
    1272:	40300513          	li	a0,1027
    1276:	d28ff0ef          	jal	79e <gpio_set_mode>
	GPIO_EXTEN->EXTEN_CTR |= GPIO_EXTEN_OPA_EN;
    127a:	40024737          	lui	a4,0x40024
    127e:	80070713          	addi	a4,a4,-2048 # 40023800 <_eusrstack+0x20023000>
    1282:	4314                	lw	a3,0(a4)
    1284:	6641                	lui	a2,0x10
	gpio_set_opamp_inputs(GPIO_OPAMP_CH1_POS, GPIO_OPAMP_CH1_NEG);
    1286:	4501                	li	a0,0
    1288:	8ed1                	or	a3,a3,a2
    128a:	c314                	sw	a3,0(a4)
    128c:	e6cff0ef          	jal	8f8 <gpio_set_opamp_inputs.constprop.0>

/*** Function Definitions ****************************************************/
void opamp_calibrate(void)
{
	// Measure the offset of the OpAmp at 0 Input (While PWM Off)
	Delay_Ms(500);
    1290:	e8cff0ef          	jal	91c <DelaySysTick.constprop.0>
inline uint16_t gpio_analog_read(const GPIO_ANALOG_CHANNEL chan)
{
	// Set rule channel conversion for single conversion on passed channel
	// GPIO_ADC1->RSQR1 = 0;
	// GPIO_ADC1->RSQR2 = 0;
	GPIO_ADC1->RSQR3 = (uint32_t)chan;
    1294:	471d                	li	a4,7
    1296:	d8d8                	sw	a4,52(s1)

	GPIO_ADC1->CTLR2 |= ADC_SWSTART;
    1298:	4498                	lw	a4,8(s1)
    129a:	004006b7          	lui	a3,0x400
	while(!(GPIO_ADC1->STATR & ADC_EOC));
    129e:	400127b7          	lui	a5,0x40012
	GPIO_ADC1->CTLR2 |= ADC_SWSTART;
    12a2:	8f55                	or	a4,a4,a3
    12a4:	c498                	sw	a4,8(s1)
	while(!(GPIO_ADC1->STATR & ADC_EOC));
    12a6:	40078793          	addi	a5,a5,1024 # 40012400 <_eusrstack+0x20011c00>
    12aa:	4398                	lw	a4,0(a5)
    12ac:	8b09                	andi	a4,a4,2
    12ae:	df75                	beqz	a4,12aa <main+0x256>

	// Get the resulting data from the ADC
	return GPIO_ADC1->RDATAR;
    12b0:	47f8                	lw	a4,76(a5)
	// VCC/32 - The OpAmp Gain of 16 makes this effectively VCC/2
	// Compare the value output to the expected output (1023/2) to get an
	// offset
	
	// Switch to CH2 Positive Input and wait for it to stabilise
	gpio_set_opamp_inputs(GPIO_OPAMP_CH2_POS, GPIO_OPAMP_CH1_NEG);
    12b2:	4505                	li	a0,1
	_opamp_calibration_offset = gpio_analog_read(OPAMP_ADC_CH);
    12b4:	01071493          	slli	s1,a4,0x10
    12b8:	84c1                	srai	s1,s1,0x10
    12ba:	c2919b23          	sh	s1,-970(gp) # 20000032 <_opamp_calibration_offset>
	gpio_set_opamp_inputs(GPIO_OPAMP_CH2_POS, GPIO_OPAMP_CH1_NEG);
    12be:	e3aff0ef          	jal	8f8 <gpio_set_opamp_inputs.constprop.0>
	Delay_Ms(500);
    12c2:	e5aff0ef          	jal	91c <DelaySysTick.constprop.0>
	GPIO_ADC1->RSQR3 = (uint32_t)chan;
    12c6:	400127b7          	lui	a5,0x40012
    12ca:	40078793          	addi	a5,a5,1024 # 40012400 <_eusrstack+0x20011c00>
    12ce:	469d                	li	a3,7
    12d0:	dbd4                	sw	a3,52(a5)
	GPIO_ADC1->CTLR2 |= ADC_SWSTART;
    12d2:	4794                	lw	a3,8(a5)
    12d4:	00400637          	lui	a2,0x400
    12d8:	8ed1                	or	a3,a3,a2
    12da:	c794                	sw	a3,8(a5)
	while(!(GPIO_ADC1->STATR & ADC_EOC));
    12dc:	400127b7          	lui	a5,0x40012
    12e0:	40078793          	addi	a5,a5,1024 # 40012400 <_eusrstack+0x20011c00>
    12e4:	4394                	lw	a3,0(a5)
    12e6:	8a89                	andi	a3,a3,2
    12e8:	def5                	beqz	a3,12e4 <main+0x290>
	return GPIO_ADC1->RDATAR;
    12ea:	47fc                	lw	a5,76(a5)

	// Calculate the delta between the expected value and the read value
	int32_t delta = gpio_analog_read(OPAMP_ADC_CH) - _opamp_calibration_offset;
    12ec:	07c2                	slli	a5,a5,0x10
    12ee:	83c1                	srli	a5,a5,0x10
    12f0:	409785b3          	sub	a1,a5,s1
	if(delta == 0) delta = 1;
    12f4:	00979363          	bne	a5,s1,12fa <main+0x2a6>
    12f8:	4585                	li	a1,1
	
	_opamp_calibration_gain = ((int32_t)OPAMP_CAL_EXPECTED << 10) / delta;
    12fa:	00080537          	lui	a0,0x80
    12fe:	a3eff0ef          	jal	53c <__divsi3>
    1302:	01051613          	slli	a2,a0,0x10

	printf("offset: %d\tgain: %d\n", _opamp_calibration_offset, _opamp_calibration_gain);
    1306:	6509                	lui	a0,0x2
	_opamp_calibration_gain = ((int32_t)OPAMP_CAL_EXPECTED << 10) / delta;
    1308:	8641                	srai	a2,a2,0x10
	printf("offset: %d\tgain: %d\n", _opamp_calibration_offset, _opamp_calibration_gain);
    130a:	85a6                	mv	a1,s1
    130c:	c2c50513          	addi	a0,a0,-980 # 1c2c <__clz_tab+0x100>
	_opamp_calibration_gain = ((int32_t)OPAMP_CAL_EXPECTED << 10) / delta;
    1310:	c2c19a23          	sh	a2,-972(gp) # 20000030 <_opamp_calibration_gain>
	printf("offset: %d\tgain: %d\n", _opamp_calibration_offset, _opamp_calibration_gain);
    1314:	3ef9                	jal	ef2 <printf>

	// Switch back to CH1 Positive and wait for it to settle
	gpio_set_opamp_inputs(GPIO_OPAMP_CH1_POS, GPIO_OPAMP_CH1_NEG);
    1316:	4501                	li	a0,0
    1318:	de0ff0ef          	jal	8f8 <gpio_set_opamp_inputs.constprop.0>
	Delay_Ms(500);
    131c:	e00ff0ef          	jal	91c <DelaySysTick.constprop.0>
	if(dev == NULL) return OLED_INVALID_INPUT;

	// Set the static i2c device value to the given device
	_oled_dev = dev;

	const uint8_t init_arr[] = {
    1320:	b0040593          	addi	a1,s0,-1280
	_oled_dev = dev;
    1324:	1018                	addi	a4,sp,32
	const uint8_t init_arr[] = {
    1326:	4665                	li	a2,25
    1328:	05c1                	addi	a1,a1,16
    132a:	1808                	addi	a0,sp,48
	_oled_dev = dev;
    132c:	c4e1a023          	sw	a4,-960(gp) # 2000003c <_oled_dev>
	const uint8_t init_arr[] = {
    1330:	31bd                	jal	f9e <memcpy>
		0xA6,			// Normal display
		0xAF			// Display ON
	};
	
	// Write the Initialisation Array to the Display
	OLED_WRITE(OLED_REG_COMMAND, init_arr,  sizeof(init_arr));
    1332:	46e5                	li	a3,25
    1334:	1810                	addi	a2,sp,48
    1336:	4581                	li	a1,0
    1338:	1008                	addi	a0,sp,32
    133a:	efeff0ef          	jal	a38 <i2c_write_reg>
	RCC->APB2PCENR |= RCC_APB2Periph_AFIO;
    133e:	40021737          	lui	a4,0x40021
    1342:	4f1c                	lw	a5,24(a4)
	NVIC->IENR[((uint32_t)(IRQn) >> 5)] = (1 << ((uint32_t)(IRQn) & 0x1F));
    1344:	e000e6b7          	lui	a3,0xe000e
    1348:	0017e793          	ori	a5,a5,1
    134c:	cf1c                	sw	a5,24(a4)
	AFIO->EXTICR    = AFIO_EXTICR_EXTI4_PC | AFIO_EXTICR_EXTI5_PC;
    134e:	6785                	lui	a5,0x1
    1350:	40010737          	lui	a4,0x40010
    1354:	a0078793          	addi	a5,a5,-1536 # a00 <_write.constprop.0+0xc0>
    1358:	c71c                	sw	a5,8(a4)
	EXTI->INTENR    = EXTI_INTENR_MR4 | EXTI_INTENR_MR5;
    135a:	40070793          	addi	a5,a4,1024 # 40010400 <_eusrstack+0x2000fc00>
    135e:	03000713          	li	a4,48
    1362:	c398                	sw	a4,0(a5)
	EXTI->RTENR     = EXTI_RTENR_TR4  | EXTI_RTENR_TR5;
    1364:	c798                	sw	a4,8(a5)
	EXTI->FTENR     = EXTI_FTENR_TR4  | EXTI_FTENR_TR5;
    1366:	c7d8                	sw	a4,12(a5)
	EXTI->INTFR = 0x00000030;
    1368:	cbd8                	sw	a4,20(a5)
    136a:	001007b7          	lui	a5,0x100
    136e:	10f6a023          	sw	a5,256(a3) # e000e100 <_eusrstack+0xc000d900>
	SysTick->CMP = SYSTICK_ONE_MILLISECOND - 1;
    1372:	6731                	lui	a4,0xc
	SysTick->CTLR = 0x0000;
    1374:	e000f7b7          	lui	a5,0xe000f
    1378:	0007a023          	sw	zero,0(a5) # e000f000 <_eusrstack+0xc000e800>
	SysTick->CMP = SYSTICK_ONE_MILLISECOND - 1;
    137c:	b7f70713          	addi	a4,a4,-1153 # bb7f <oled.c.45f942c9+0x61b9>
    1380:	cb98                	sw	a4,16(a5)
	SysTick->CNT = 0x00000000;
    1382:	0007a423          	sw	zero,8(a5)
	g_systick_millis = 0x00000000;
    1386:	c401a823          	sw	zero,-944(gp) # 2000004c <g_systick_millis>
	SysTick->CTLR |= SYSTICK_CTLR_STE   |  // Enable Counter
    138a:	4398                	lw	a4,0(a5)
    138c:	00776713          	ori	a4,a4,7
    1390:	c398                	sw	a4,0(a5)
    1392:	6785                	lui	a5,0x1
	IWDG->CTLR = 0x5555;
    1394:	6715                	lui	a4,0x5
    1396:	10f6a023          	sw	a5,256(a3)
    139a:	55570713          	addi	a4,a4,1365 # 5555 <lib_i2c.c.771b9666+0x640>
    139e:	400037b7          	lui	a5,0x40003
    13a2:	c398                	sw	a4,0(a5)
    IWDG->PSCR = prescaler;
    13a4:	4691                	li	a3,4
    13a6:	c3d4                	sw	a3,4(a5)
	IWDG->CTLR = 0x5555;
    13a8:	c398                	sw	a4,0(a5)
    IWDG->RLDR = rst_val & 0x0FFF;
    13aa:	09b00713          	li	a4,155
    13ae:	c798                	sw	a4,8(a5)
	IWDG->CTLR = 0xCCCC;
    13b0:	6735                	lui	a4,0xd
    13b2:	ccc70713          	addi	a4,a4,-820 # cccc <oled.c.45f942c9+0x7306>
    13b6:	c398                	sw	a4,0(a5)
	g_heater_enabled = true;
    13b8:	4705                	li	a4,1
    13ba:	c4e18a23          	sb	a4,-940(gp) # 20000050 <g_heater_enabled>
	uint32_t millis_prev_display_update    = 0;
    13be:	c202                	sw	zero,4(sp)
	uint32_t millis_prev_battery_check     = 0;
    13c0:	ca02                	sw	zero,20(sp)
	uint32_t millis_prev_pid_temp_update   = 0;
    13c2:	c802                	sw	zero,16(sp)
	uint32_t millis_prev_user_input_update = 0;
    13c4:	c602                	sw	zero,12(sp)
	uint32_t millis_prev_led_update        = 0;
    13c6:	c402                	sw	zero,8(sp)
	pid_ctrl_t heater_pid =
    13c8:	cc02                	sw	zero,24(sp)
    13ca:	c002                	sw	zero,0(sp)
		if(g_systick_millis - millis_prev_led_update > MILLIS_LED_UPDATE)
    13cc:	4722                	lw	a4,8(sp)
    13ce:	c501a783          	lw	a5,-944(gp) # 2000004c <g_systick_millis>
    13d2:	8f99                	sub	a5,a5,a4
    13d4:	4765                	li	a4,25
    13d6:	04f77863          	bgeu	a4,a5,1426 <main+0x3d2>

	static int16_t led_val = LED_MIN_VAL;
	static int8_t  led_inc = 5;
	
	// If the system is running, Fade the LED in and out steadily
	if(fading)
    13da:	c541c783          	lbu	a5,-940(gp) # 20000050 <g_heater_enabled>
    13de:	46078963          	beqz	a5,1850 <main+0x7fc>
	{
		led_val += led_inc;
    13e2:	c0818783          	lb	a5,-1016(gp) # 20000004 <led_inc.3>
    13e6:	c061d703          	lhu	a4,-1018(gp) # 20000002 <led_val.2>

		// Flip to decrimenting if maximum is hit
		if(led_val >= LED_MAX_VAL) { led_val = LED_MAX_VAL; led_inc = -led_inc; }
    13ea:	0fe00513          	li	a0,254
		led_val += led_inc;
    13ee:	973e                	add	a4,a4,a5
    13f0:	0742                	slli	a4,a4,0x10
    13f2:	8741                	srai	a4,a4,0x10
		if(led_val >= LED_MAX_VAL) { led_val = LED_MAX_VAL; led_inc = -led_inc; }
    13f4:	00e55b63          	bge	a0,a4,140a <main+0x3b6>
    13f8:	0ff00713          	li	a4,255
    13fc:	c0e19323          	sh	a4,-1018(gp) # 20000002 <led_val.2>

		// Flip to incrimenting if the minimum is hit
		if(led_val <= LED_MIN_VAL) { led_val = LED_MIN_VAL; led_inc = -led_inc; }
    1400:	40f007b3          	neg	a5,a5
    1404:	c0f18423          	sb	a5,-1016(gp) # 20000004 <led_inc.3>
    1408:	a039                	j	1416 <main+0x3c2>
    140a:	02800513          	li	a0,40
    140e:	42e55e63          	bge	a0,a4,184a <main+0x7f6>
		led_val += led_inc;
    1412:	c0e19323          	sh	a4,-1018(gp) # 20000002 <led_val.2>
	// If the system isn't running, set the LED to maximum value
	} else { led_val = LED_MAX_VAL; }


	// Set the LED PWM to the calculated value
	pwm_set_duty(PWM_CHANNEL_LED, (uint8_t)led_val);
    1416:	c061c703          	lbu	a4,-1018(gp) # 20000002 <led_val.2>
			TIM2->CH2CVR = duty;
    141a:	400007b7          	lui	a5,0x40000
    141e:	df98                	sw	a4,56(a5)
			millis_prev_led_update = g_systick_millis;
    1420:	c501a783          	lw	a5,-944(gp) # 2000004c <g_systick_millis>
    1424:	c43e                	sw	a5,8(sp)
		if(g_systick_millis - millis_prev_user_input_update > MILLIS_USER_INPUT_UPDATE)
    1426:	4732                	lw	a4,12(sp)
    1428:	c501a783          	lw	a5,-944(gp) # 2000004c <g_systick_millis>
    142c:	8f99                	sub	a5,a5,a4
    142e:	03200713          	li	a4,50
    1432:	02f77f63          	bgeu	a4,a5,1470 <main+0x41c>
				int16_t inc = g_rotary_encoder_clicks * SETTING_TEMPERATURE_INCRIMENT;
    1436:	c4e1d783          	lhu	a5,-946(gp) # 2000004a <g_rotary_encoder_clicks>
				g_target_temperature = CLAMP(g_target_temperature + inc, 
    143a:	c2a19703          	lh	a4,-982(gp) # 20000026 <g_target_temperature>
				int16_t inc = g_rotary_encoder_clicks * SETTING_TEMPERATURE_INCRIMENT;
    143e:	07c2                	slli	a5,a5,0x10
    1440:	87c1                	srai	a5,a5,0x10
    1442:	00279513          	slli	a0,a5,0x2
    1446:	97aa                	add	a5,a5,a0
				g_target_temperature = CLAMP(g_target_temperature + inc, 
    1448:	07c2                	slli	a5,a5,0x10
    144a:	87c1                	srai	a5,a5,0x10
    144c:	97ba                	add	a5,a5,a4
    144e:	0dc00713          	li	a4,220
    1452:	00f75363          	bge	a4,a5,1458 <main+0x404>
    1456:	87ba                	mv	a5,a4
    1458:	03200713          	li	a4,50
    145c:	00e7d363          	bge	a5,a4,1462 <main+0x40e>
    1460:	87ba                	mv	a5,a4
    1462:	c2f19523          	sh	a5,-982(gp) # 20000026 <g_target_temperature>
				g_rotary_encoder_clicks = 0;
    1466:	c4019723          	sh	zero,-946(gp) # 2000004a <g_rotary_encoder_clicks>
			millis_prev_user_input_update = g_systick_millis;
    146a:	c501a783          	lw	a5,-944(gp) # 2000004c <g_systick_millis>
    146e:	c63e                	sw	a5,12(sp)
		if(g_systick_millis - millis_prev_pid_temp_update > MILLIS_PID_TEMP_UPDATE)
    1470:	4742                	lw	a4,16(sp)
    1472:	c501a783          	lw	a5,-944(gp) # 2000004c <g_systick_millis>
    1476:	8f99                	sub	a5,a5,a4
    1478:	06400713          	li	a4,100
    147c:	12f77e63          	bgeu	a4,a5,15b8 <main+0x564>
	GPIO_ADC1->RSQR3 = (uint32_t)chan;
    1480:	400127b7          	lui	a5,0x40012
    1484:	40078793          	addi	a5,a5,1024 # 40012400 <_eusrstack+0x20011c00>
    1488:	4715                	li	a4,5
    148a:	dbd8                	sw	a4,52(a5)
	GPIO_ADC1->CTLR2 |= ADC_SWSTART;
    148c:	4798                	lw	a4,8(a5)
    148e:	004006b7          	lui	a3,0x400
    1492:	8f55                	or	a4,a4,a3
    1494:	c798                	sw	a4,8(a5)
	while(!(GPIO_ADC1->STATR & ADC_EOC));
    1496:	4398                	lw	a4,0(a5)
    1498:	8b09                	andi	a4,a4,2
    149a:	df75                	beqz	a4,1496 <main+0x442>
	return GPIO_ADC1->RDATAR;
    149c:	47ec                	lw	a1,76(a5)
	if(adc >= thermistor_pair[0].adc)
    149e:	3f000793          	li	a5,1008
		return thermistor_pair[0].temp_c;
    14a2:	4501                	li	a0,0
    14a4:	05c2                	slli	a1,a1,0x10
    14a6:	81c1                	srli	a1,a1,0x10
	if(adc >= thermistor_pair[0].adc)
    14a8:	06b7e063          	bltu	a5,a1,1508 <main+0x4b4>
	if(adc <= thermistor_pair[therm_max_index].adc)
    14ac:	02500793          	li	a5,37
		return thermistor_pair[therm_max_index].temp_c;
    14b0:	12c00513          	li	a0,300
	if(adc <= thermistor_pair[therm_max_index].adc)
    14b4:	04b7fa63          	bgeu	a5,a1,1508 <main+0x4b4>
    14b8:	6689                	lui	a3,0x2
    14ba:	9d068613          	addi	a2,a3,-1584 # 19d0 <thermistor_pair>
    14be:	4781                	li	a5,0
    14c0:	9d068693          	addi	a3,a3,-1584
	for(uint16_t ti = 0; ti < therm_max_index; ti++)
    14c4:	04b00513          	li	a0,75
		adc0  = thermistor_pair[ti].adc;
    14c8:	00265483          	lhu	s1,2(a2) # 400002 <oled.c.45f942c9+0x3fa63c>
		if(adc <= adc0 && adc >= adc1)
    14cc:	38b4e763          	bltu	s1,a1,185a <main+0x806>
		adc1  = thermistor_pair[ti + 1].adc;
    14d0:	00665703          	lhu	a4,6(a2)
		if(adc <= adc0 && adc >= adc1)
    14d4:	38e5e363          	bltu	a1,a4,185a <main+0x806>
			temp0 = thermistor_pair[ti].temp_c;
    14d8:	00279613          	slli	a2,a5,0x2
			temp1 = thermistor_pair[ti + 1].temp_c;
    14dc:	0785                	addi	a5,a5,1
    14de:	078a                	slli	a5,a5,0x2
			temp0 = thermistor_pair[ti].temp_c;
    14e0:	9636                	add	a2,a2,a3
			temp1 = thermistor_pair[ti + 1].temp_c;
    14e2:	97b6                	add	a5,a5,a3
			temp0 = thermistor_pair[ti].temp_c;
    14e4:	00065403          	lhu	s0,0(a2)
			output = temp0 + (uint32_t)(adc0 - adc) * (temp1 - temp0) / (adc0 - adc1);
    14e8:	0007d503          	lhu	a0,0(a5)
    14ec:	40b485b3          	sub	a1,s1,a1
    14f0:	c83a                	sw	a4,16(sp)
    14f2:	8d01                	sub	a0,a0,s0
    14f4:	830ff0ef          	jal	524 <__mulsi3>
    14f8:	4742                	lw	a4,16(sp)
    14fa:	40e485b3          	sub	a1,s1,a4
    14fe:	846ff0ef          	jal	544 <__hidden___udivsi3>
    1502:	9522                	add	a0,a0,s0
    1504:	0542                	slli	a0,a0,0x10
    1506:	8141                	srli	a0,a0,0x10
			g_measured_temperature = thermistor_adc_to_temp(thermistor_adc);
    1508:	0542                	slli	a0,a0,0x10
    150a:	8541                	srai	a0,a0,0x10
    150c:	c4a19623          	sh	a0,-948(gp) # 20000048 <g_measured_temperature>
			heater_pwm = pid_calculate(&heater_pid, g_measured_temperature, g_target_temperature);
    1510:	c2a19403          	lh	s0,-982(gp) # 20000026 <g_target_temperature>
	// Calculate the current Error and Derivative
	int32_t error = sp - pv;
	int32_t derivative = error - pid->_prev_error;

	// Prevent Integral Windup by clamping
	pid->_integral = CLAMP_MIN_MAX(pid->_integral, -pid->_iclamp, pid->_iclamp);
    1514:	4702                	lw	a4,0(sp)
    1516:	6785                	lui	a5,0x1
    1518:	3ec78793          	addi	a5,a5,1004 # 13ec <main+0x398>
	int32_t error = sp - pv;
    151c:	8c09                	sub	s0,s0,a0
	pid->_integral = CLAMP_MIN_MAX(pid->_integral, -pid->_iclamp, pid->_iclamp);
    151e:	00e7d363          	bge	a5,a4,1524 <main+0x4d0>
    1522:	c03e                	sw	a5,0(sp)
    1524:	4702                	lw	a4,0(sp)
    1526:	77fd                	lui	a5,0xfffff
    1528:	c1478793          	addi	a5,a5,-1004 # ffffec14 <_eusrstack+0xdfffe414>
    152c:	00f75363          	bge	a4,a5,1532 <main+0x4de>
    1530:	c03e                	sw	a5,0(sp)
	//if(pid->_integral >  pid->_iclamp)   pid->_integral =  pid->_iclamp;
	//if(pid->_integral < -pid->_iclamp)   pid->_integral = -pid->_iclamp;


	int64_t P = (int32_t)pid->Kp * error;
	int64_t I = (int32_t)pid->Ki * pid->_integral;
    1532:	4702                	lw	a4,0(sp)
	int64_t P = (int32_t)pid->Kp * error;
    1534:	00541793          	slli	a5,s0,0x5
	int64_t I = (int32_t)pid->Ki * pid->_integral;
    1538:	4602                	lw	a2,0(sp)
	int64_t P = (int32_t)pid->Kp * error;
    153a:	8f81                	sub	a5,a5,s0
    153c:	078a                	slli	a5,a5,0x2
    153e:	97a2                	add	a5,a5,s0
	int64_t I = (int32_t)pid->Ki * pid->_integral;
    1540:	070a                	slli	a4,a4,0x2
	int64_t P = (int32_t)pid->Kp * error;
    1542:	00379693          	slli	a3,a5,0x3
	int64_t I = (int32_t)pid->Ki * pid->_integral;
    1546:	9732                	add	a4,a4,a2
    1548:	41f75613          	srai	a2,a4,0x1f
	int64_t P = (int32_t)pid->Kp * error;
    154c:	87fd                	srai	a5,a5,0x1f
	int64_t D = (int32_t)pid->Kd * derivative;
	// Add the PID values, then scale to preserve resolution of intagers
	int32_t cv = (int64_t)(P + I + D) / pid->scale;
    154e:	9736                	add	a4,a4,a3
    1550:	00d736b3          	sltu	a3,a4,a3
    1554:	97b2                	add	a5,a5,a2
    1556:	97b6                	add	a5,a5,a3
	int32_t derivative = error - pid->_prev_error;
    1558:	46e2                	lw	a3,24(sp)
	int32_t cv = (int64_t)(P + I + D) / pid->scale;
    155a:	06400613          	li	a2,100
	int32_t derivative = error - pid->_prev_error;
    155e:	40d406b3          	sub	a3,s0,a3
	int64_t D = (int32_t)pid->Kd * derivative;
    1562:	00269513          	slli	a0,a3,0x2
    1566:	9536                	add	a0,a0,a3
    1568:	41f55693          	srai	a3,a0,0x1f
	int32_t cv = (int64_t)(P + I + D) / pid->scale;
    156c:	953a                	add	a0,a0,a4
    156e:	00e535b3          	sltu	a1,a0,a4
    1572:	97b6                	add	a5,a5,a3
    1574:	95be                	add	a1,a1,a5
    1576:	4681                	li	a3,0
    1578:	b29fe0ef          	jal	a0 <__divdi3>

	// Only accumulate the integration value if the output is not in saturation
	if(cv <= pid->out_max && cv >= pid->out_min)    pid->_integral += error;
    157c:	0ff00713          	li	a4,255
    1580:	00a74863          	blt	a4,a0,1590 <main+0x53c>
	
	// Clamp the CV Output to the min/max
	cv = CLAMP_MIN_MAX(cv, pid->out_min, pid->out_max);
    1584:	4781                	li	a5,0
	if(cv <= pid->out_max && cv >= pid->out_min)    pid->_integral += error;
    1586:	00054a63          	bltz	a0,159a <main+0x546>
    158a:	4782                	lw	a5,0(sp)
    158c:	97a2                	add	a5,a5,s0
    158e:	c03e                	sw	a5,0(sp)
	cv = CLAMP_MIN_MAX(cv, pid->out_min, pid->out_max);
    1590:	87aa                	mv	a5,a0
    1592:	00a75463          	bge	a4,a0,159a <main+0x546>
    1596:	0ff00793          	li	a5,255
			if(!g_heater_enabled) heater_pwm = 0x00;
    159a:	c541c683          	lbu	a3,-940(gp) # 20000050 <g_heater_enabled>
			heater_pwm = pid_calculate(&heater_pid, g_measured_temperature, g_target_temperature);
    159e:	c4f1a423          	sw	a5,-952(gp) # 20000044 <heater_pwm.4>
			if(!g_heater_enabled) heater_pwm = 0x00;
    15a2:	e681                	bnez	a3,15aa <main+0x556>
    15a4:	c401a423          	sw	zero,-952(gp) # 20000044 <heater_pwm.4>
    15a8:	4781                	li	a5,0
			TIM2->CH3CVR = duty;
    15aa:	40000737          	lui	a4,0x40000
    15ae:	df5c                	sw	a5,60(a4)
			millis_prev_pid_temp_update = g_systick_millis;
    15b0:	c501a783          	lw	a5,-944(gp) # 2000004c <g_systick_millis>

	// Update the previous error for derivative
	pid->_prev_error = error;
    15b4:	cc22                	sw	s0,24(sp)
    15b6:	c83e                	sw	a5,16(sp)
		if(g_systick_millis - millis_prev_battery_check > MILLIS_BATTERY_CHECK)
    15b8:	4752                	lw	a4,20(sp)
    15ba:	c501a783          	lw	a5,-944(gp) # 2000004c <g_systick_millis>
    15be:	8f99                	sub	a5,a5,a4
    15c0:	0fa00713          	li	a4,250
    15c4:	14f77563          	bgeu	a4,a5,170e <main+0x6ba>
	GPIO_ADC1->RSQR3 = (uint32_t)chan;
    15c8:	40012437          	lui	s0,0x40012
    15cc:	40040413          	addi	s0,s0,1024 # 40012400 <_eusrstack+0x20011c00>
    15d0:	47a1                	li	a5,8
    15d2:	d85c                	sw	a5,52(s0)
	GPIO_ADC1->CTLR2 |= ADC_SWSTART;
    15d4:	441c                	lw	a5,8(s0)
    15d6:	00400737          	lui	a4,0x400
    15da:	8fd9                	or	a5,a5,a4
    15dc:	c41c                	sw	a5,8(s0)
	while(!(GPIO_ADC1->STATR & ADC_EOC));
    15de:	401c                	lw	a5,0(s0)
    15e0:	8b89                	andi	a5,a5,2
    15e2:	dff5                	beqz	a5,15de <main+0x58a>
	return GPIO_ADC1->RDATAR;
    15e4:	446c                	lw	a1,76(s0)
uint16_t gpio_read_system_mv(void)
{
	// Get the raw ADC Value for the VREF - shift by 10 (*1024),
	// then divide it by the ADC maximum.
	// This is the VREF Multiplier
	uint32_t vref_multiplier = ((uint32_t)GPIO_ADC_MAXIMUM << 10) / gpio_analog_read(GPIO_ADC_VREF);
    15e6:	00100537          	lui	a0,0x100
    15ea:	c0050513          	addi	a0,a0,-1024 # ffc00 <oled.c.45f942c9+0xfa23a>
    15ee:	05c2                	slli	a1,a1,0x10
    15f0:	81c1                	srli	a1,a1,0x10
    15f2:	f53fe0ef          	jal	544 <__hidden___udivsi3>
	GPIO_ADC1->RSQR3 = (uint32_t)chan;
    15f6:	4719                	li	a4,6
    15f8:	d858                	sw	a4,52(s0)
	GPIO_ADC1->CTLR2 |= ADC_SWSTART;
    15fa:	4418                	lw	a4,8(s0)

	// The mV value is equal to the ADC_VREF Millivolts, multiplied by the VREF
	// Multiplier, then shifted by 10 (/1024) to scale back down to mV
	return (GPIO_ADC_REF_MV * vref_multiplier) >> 10;
    15fc:	00251793          	slli	a5,a0,0x2
    1600:	953e                	add	a0,a0,a5
    1602:	00451793          	slli	a5,a0,0x4
	GPIO_ADC1->CTLR2 |= ADC_SWSTART;
    1606:	004006b7          	lui	a3,0x400
	return (GPIO_ADC_REF_MV * vref_multiplier) >> 10;
    160a:	8f89                	sub	a5,a5,a0
	GPIO_ADC1->CTLR2 |= ADC_SWSTART;
    160c:	8f55                	or	a4,a4,a3
	return (GPIO_ADC_REF_MV * vref_multiplier) >> 10;
    160e:	0792                	slli	a5,a5,0x4
	GPIO_ADC1->CTLR2 |= ADC_SWSTART;
    1610:	c418                	sw	a4,8(s0)
	while(!(GPIO_ADC1->STATR & ADC_EOC));
    1612:	40012437          	lui	s0,0x40012
	return (GPIO_ADC_REF_MV * vref_multiplier) >> 10;
    1616:	83a9                	srli	a5,a5,0xa
	while(!(GPIO_ADC1->STATR & ADC_EOC));
    1618:	40040413          	addi	s0,s0,1024 # 40012400 <_eusrstack+0x20011c00>
    161c:	4018                	lw	a4,0(s0)
    161e:	8b09                	andi	a4,a4,2
    1620:	df75                	beqz	a4,161c <main+0x5c8>
	return GPIO_ADC1->RDATAR;
    1622:	07c2                	slli	a5,a5,0x10
    1624:	83c1                	srli	a5,a5,0x10
	// The Voltage Divider is 33K || 8K2, to get the inverse of the divider ratio:
	//  R2      /     (R1    +    R2)
	// 8K2      /     (33K   +   8K2)
	// (Invert)
	// 41K2     /      8K2         = 5.024
	uint32_t scaled_mv = ((uint32_t)system_mv * 5024) / 1000;
    1626:	6585                	lui	a1,0x1
    1628:	853e                	mv	a0,a5
    162a:	3a058593          	addi	a1,a1,928 # 13a0 <main+0x34c>
    162e:	4464                	lw	s1,76(s0)
    1630:	ca3e                	sw	a5,20(sp)
    1632:	ef3fe0ef          	jal	524 <__mulsi3>
    1636:	3e800593          	li	a1,1000
    163a:	f0bfe0ef          	jal	544 <__hidden___udivsi3>
	return ((uint32_t)battery_adc * scaled_mv) / ADC_MAXIMUM;
    163e:	01049593          	slli	a1,s1,0x10
    1642:	81c1                	srli	a1,a1,0x10
    1644:	ee1fe0ef          	jal	524 <__mulsi3>
    1648:	3ff00593          	li	a1,1023
    164c:	ef9fe0ef          	jal	544 <__hidden___udivsi3>
    1650:	c4a19323          	sh	a0,-954(gp) # 20000042 <g_battery_voltage_mv>
	rolling_sum -= _average_current_buffer[average_index];
    1654:	c381c483          	lbu	s1,-968(gp) # 20000034 <average_index.0>
    1658:	c5818713          	addi	a4,gp,-936 # 20000054 <_average_current_buffer>
    165c:	00149613          	slli	a2,s1,0x1
    1660:	9732                	add	a4,a4,a2
    1662:	00075703          	lhu	a4,0(a4) # 400000 <oled.c.45f942c9+0x3fa63a>
    1666:	c3c1a603          	lw	a2,-964(gp) # 20000038 <rolling_sum.1>
    166a:	40e607b3          	sub	a5,a2,a4
    166e:	ce3e                	sw	a5,28(sp)
	GPIO_ADC1->RSQR3 = (uint32_t)chan;
    1670:	471d                	li	a4,7
    1672:	d858                	sw	a4,52(s0)
	GPIO_ADC1->CTLR2 |= ADC_SWSTART;
    1674:	4418                	lw	a4,8(s0)
    1676:	00400637          	lui	a2,0x400
    167a:	8f51                	or	a4,a4,a2
    167c:	c418                	sw	a4,8(s0)
	while(!(GPIO_ADC1->STATR & ADC_EOC));
    167e:	40012737          	lui	a4,0x40012
    1682:	c5818413          	addi	s0,gp,-936 # 20000054 <_average_current_buffer>
    1686:	40070713          	addi	a4,a4,1024 # 40012400 <_eusrstack+0x20011c00>
    168a:	4314                	lw	a3,0(a4)
    168c:	8a89                	andi	a3,a3,2
    168e:	def5                	beqz	a3,168a <main+0x636>
	return GPIO_ADC1->RDATAR;
    1690:	4778                	lw	a4,76(a4)
		((gpio_analog_read(OPAMP_ADC_CH) - _opamp_calibration_offset) 
    1692:	c3619503          	lh	a0,-970(gp) # 20000032 <_opamp_calibration_offset>
		* _opamp_calibration_gain) >> 10;
    1696:	c3419583          	lh	a1,-972(gp) # 20000030 <_opamp_calibration_gain>
		((gpio_analog_read(OPAMP_ADC_CH) - _opamp_calibration_offset) 
    169a:	0742                	slli	a4,a4,0x10
    169c:	8341                	srli	a4,a4,0x10
		* _opamp_calibration_gain) >> 10;
    169e:	40a70533          	sub	a0,a4,a0
    16a2:	e83fe0ef          	jal	524 <__mulsi3>
    16a6:	40a55713          	srai	a4,a0,0xa
	int16_t opamp_calibrated_adc = 
    16aa:	853a                	mv	a0,a4
	if(opamp_calibrated_adc > 1023)  opamp_calibrated_adc = 1023;
    16ac:	0742                	slli	a4,a4,0x10
    16ae:	8741                	srai	a4,a4,0x10
    16b0:	3ff00693          	li	a3,1023
    16b4:	1ae6d963          	bge	a3,a4,1866 <main+0x812>
    16b8:	8536                	mv	a0,a3
	uint16_t opamp_mv_raw = ((uint32_t)opamp_calibrated_adc * system_mv) / ADC_MAXIMUM;
    16ba:	45d2                	lw	a1,20(sp)
    16bc:	0542                	slli	a0,a0,0x10
    16be:	8541                	srai	a0,a0,0x10
    16c0:	e65fe0ef          	jal	524 <__mulsi3>
    16c4:	3ff00593          	li	a1,1023
    16c8:	e7dfe0ef          	jal	544 <__hidden___udivsi3>
	uint16_t opamp_ma = ((opamp_mv_raw * 1000) / OPAMP_SENSE_MILLOHM) >> OPAMP_GAIN_SHIFT;
    16cc:	00551713          	slli	a4,a0,0x5
    16d0:	8f09                	sub	a4,a4,a0
    16d2:	070a                	slli	a4,a4,0x2
    16d4:	953a                	add	a0,a0,a4
    16d6:	02500593          	li	a1,37
    16da:	050e                	slli	a0,a0,0x3
    16dc:	e61fe0ef          	jal	53c <__divsi3>
	_average_current_buffer[average_index] = opamp_read_rsense_ma(system_mv);
    16e0:	00149713          	slli	a4,s1,0x1
	rolling_sum += _average_current_buffer[average_index];
    16e4:	47f2                	lw	a5,28(sp)
	uint16_t opamp_ma = ((opamp_mv_raw * 1000) / OPAMP_SENSE_MILLOHM) >> OPAMP_GAIN_SHIFT;
    16e6:	8511                	srai	a0,a0,0x4
	_average_current_buffer[average_index] = opamp_read_rsense_ma(system_mv);
    16e8:	943a                	add	s0,s0,a4
	uint16_t opamp_ma = ((opamp_mv_raw * 1000) / OPAMP_SENSE_MILLOHM) >> OPAMP_GAIN_SHIFT;
    16ea:	00a41023          	sh	a0,0(s0)
	rolling_sum += _average_current_buffer[average_index];
    16ee:	0542                	slli	a0,a0,0x10
    16f0:	8141                	srli	a0,a0,0x10
    16f2:	953e                	add	a0,a0,a5
	average_index = (average_index + 1) & (AVG_SAMPLES - 1);
    16f4:	00148793          	addi	a5,s1,1 # 40021001 <_eusrstack+0x20020801>
	rolling_sum += _average_current_buffer[average_index];
    16f8:	c2a1ae23          	sw	a0,-964(gp) # 20000038 <rolling_sum.1>
	average_index = (average_index + 1) & (AVG_SAMPLES - 1);
    16fc:	8b9d                	andi	a5,a5,7
    16fe:	c2f18c23          	sb	a5,-968(gp) # 20000034 <average_index.0>
	return (uint16_t)(rolling_sum >> AVG_DIV_SHIFT);
    1702:	810d                	srli	a0,a0,0x3
    1704:	c4a19223          	sh	a0,-956(gp) # 20000040 <g_battery_current_ma>
			millis_prev_battery_check = g_systick_millis;
    1708:	c501a783          	lw	a5,-944(gp) # 2000004c <g_systick_millis>
    170c:	ca3e                	sw	a5,20(sp)
		if(g_systick_millis - millis_prev_display_update > MILLIS_DISPLAY_UPDATE)
    170e:	4712                	lw	a4,4(sp)
    1710:	c501a783          	lw	a5,-944(gp) # 2000004c <g_systick_millis>
    1714:	8f99                	sub	a5,a5,a4
    1716:	0fa00713          	li	a4,250
    171a:	12f77163          	bgeu	a4,a5,183c <main+0x7e8>


/*** Drawing API Functions ***************************************************/
void oled_clear_battery_info(void)
{
	memset(&_oled_buffer[0][0], 0x00, OLED_WIDTH);
    171e:	08000613          	li	a2,128
    1722:	4581                	li	a1,0
    1724:	c6818513          	addi	a0,gp,-920 # 20000064 <_oled_buffer>
    1728:	feeff0ef          	jal	f16 <memset>


void oled_draw_battery_current(const uint16_t batt_ma)
{
	static char current_str[7] = "00.00A";
	append_formatted_2dp_string(batt_ma, &current_str[0]);
    172c:	c441d503          	lhu	a0,-956(gp) # 20000040 <g_battery_current_ma>
    1730:	c0c18593          	addi	a1,gp,-1012 # 20000008 <current_str.3>
    1734:	94aff0ef          	jal	87e <append_formatted_2dp_string>
	if(str == NULL || ptr == NULL) return;
    1738:	c6818593          	addi	a1,gp,-920 # 20000064 <_oled_buffer>
    173c:	c0c18513          	addi	a0,gp,-1012 # 20000008 <current_str.3>
    1740:	87bff0ef          	jal	fba <font8x8_to_framebuffer.part.0>


void oled_draw_battery_voltage(const uint16_t batt_mv)
{
	static char voltage_str[7] = "00.00V";
	append_formatted_2dp_string(batt_mv, &voltage_str[0]);
    1744:	c461d503          	lhu	a0,-954(gp) # 20000042 <g_battery_voltage_mv>
    1748:	c1418593          	addi	a1,gp,-1004 # 20000010 <voltage_str.2>
    174c:	932ff0ef          	jal	87e <append_formatted_2dp_string>
	if(str == NULL || ptr == NULL) return;
    1750:	c1418513          	addi	a0,gp,-1004 # 20000010 <voltage_str.2>
    1754:	cba18593          	addi	a1,gp,-838 # 200000b6 <_oled_buffer+0x52>
    1758:	863ff0ef          	jal	fba <font8x8_to_framebuffer.part.0>
			oled_draw_temperature(g_target_temperature, g_measured_temperature);
    175c:	c2a1d403          	lhu	s0,-982(gp) # 20000026 <g_target_temperature>
    1760:	c4c1d783          	lhu	a5,-948(gp) # 20000048 <g_measured_temperature>
	str[0] = '0' + ((val / 100) % 10);
    1764:	06400593          	li	a1,100
    1768:	8522                	mv	a0,s0
    176a:	c23e                	sw	a5,4(sp)
    176c:	dd9fe0ef          	jal	544 <__hidden___udivsi3>
    1770:	0542                	slli	a0,a0,0x10
    1772:	45a9                	li	a1,10
    1774:	8141                	srli	a0,a0,0x10
    1776:	dfbfe0ef          	jal	570 <__umodsi3>
    177a:	03050513          	addi	a0,a0,48
    177e:	c2a18223          	sb	a0,-988(gp) # 20000020 <target_str.1>
	str[1] = '0' + ((val / 10)  % 10);
    1782:	45a9                	li	a1,10
    1784:	8522                	mv	a0,s0
    1786:	c2418493          	addi	s1,gp,-988 # 20000020 <target_str.1>
    178a:	dbbfe0ef          	jal	544 <__hidden___udivsi3>
    178e:	0542                	slli	a0,a0,0x10
    1790:	45a9                	li	a1,10
    1792:	8141                	srli	a0,a0,0x10
    1794:	dddfe0ef          	jal	570 <__umodsi3>
    1798:	03050513          	addi	a0,a0,48
    179c:	00a480a3          	sb	a0,1(s1)
	str[2] = '0' +  (val % 10);	
    17a0:	45a9                	li	a1,10
    17a2:	8522                	mv	a0,s0
    17a4:	dcdfe0ef          	jal	570 <__umodsi3>
    17a8:	03050513          	addi	a0,a0,48
    17ac:	00a48123          	sb	a0,2(s1)
	str[0] = '0' + ((val / 100) % 10);
    17b0:	4512                	lw	a0,4(sp)
    17b2:	06400593          	li	a1,100
    17b6:	d8ffe0ef          	jal	544 <__hidden___udivsi3>
    17ba:	0542                	slli	a0,a0,0x10
    17bc:	45a9                	li	a1,10
    17be:	8141                	srli	a0,a0,0x10
    17c0:	db1fe0ef          	jal	570 <__umodsi3>
    17c4:	03050513          	addi	a0,a0,48
    17c8:	c0a18e23          	sb	a0,-996(gp) # 20000018 <actual_str.0>
	str[1] = '0' + ((val / 10)  % 10);
    17cc:	4512                	lw	a0,4(sp)
    17ce:	45a9                	li	a1,10
    17d0:	c1c18413          	addi	s0,gp,-996 # 20000018 <actual_str.0>
    17d4:	d71fe0ef          	jal	544 <__hidden___udivsi3>
    17d8:	0542                	slli	a0,a0,0x10
    17da:	45a9                	li	a1,10
    17dc:	8141                	srli	a0,a0,0x10
    17de:	d93fe0ef          	jal	570 <__umodsi3>
    17e2:	03050513          	addi	a0,a0,48
    17e6:	00a400a3          	sb	a0,1(s0)
	str[2] = '0' +  (val % 10);	
    17ea:	4512                	lw	a0,4(sp)
    17ec:	45a9                	li	a1,10
    17ee:	d83fe0ef          	jal	570 <__umodsi3>
    17f2:	03050513          	addi	a0,a0,48
    17f6:	00a40123          	sb	a0,2(s0)
	if(str == NULL || ptr == NULL) return;
    17fa:	6509                	lui	a0,0x2
    17fc:	ce818593          	addi	a1,gp,-792 # 200000e4 <_oled_buffer+0x80>
    1800:	c4450513          	addi	a0,a0,-956 # 1c44 <__clz_tab+0x118>
    1804:	fb6ff0ef          	jal	fba <font8x8_to_framebuffer.part.0>
	if(str == NULL || ptr == NULL) return;
    1808:	c2418513          	addi	a0,gp,-988 # 20000020 <target_str.1>
    180c:	d8018593          	addi	a1,gp,-640 # 2000017c <_oled_buffer+0x118>
    1810:	f2eff0ef          	jal	f3e <font16x16_to_framebuffer.part.0>
	if(str == NULL || ptr == NULL) return;
    1814:	6509                	lui	a0,0x2
    1816:	ee818593          	addi	a1,gp,-280 # 200002e4 <_oled_buffer+0x280>
    181a:	c5850513          	addi	a0,a0,-936 # 1c58 <__clz_tab+0x12c>
    181e:	f9cff0ef          	jal	fba <font8x8_to_framebuffer.part.0>
	if(str == NULL || ptr == NULL) return;
    1822:	c1c18513          	addi	a0,gp,-996 # 20000018 <actual_str.0>
    1826:	f8018593          	addi	a1,gp,-128 # 2000037c <_oled_buffer+0x318>
    182a:	f14ff0ef          	jal	f3e <font16x16_to_framebuffer.part.0>
	if(_oled_dev == NULL) return OLED_UNSET_DEVICE;
    182e:	c401a483          	lw	s1,-960(gp) # 2000003c <_oled_dev>
	for(int page = 0; page < OLED_PAGES; page++)
    1832:	4401                	li	s0,0
	if(_oled_dev == NULL) return OLED_UNSET_DEVICE;
    1834:	ec9d                	bnez	s1,1872 <main+0x81e>
			millis_prev_display_update = g_systick_millis;
    1836:	c501a783          	lw	a5,-944(gp) # 2000004c <g_systick_millis>
    183a:	c23e                	sw	a5,4(sp)
{ IWDG->CTLR = 0xAAAA; }
    183c:	67ad                	lui	a5,0xb
    183e:	40003737          	lui	a4,0x40003
    1842:	aaa78793          	addi	a5,a5,-1366 # aaaa <oled.c.45f942c9+0x50e4>
    1846:	c31c                	sw	a5,0(a4)
    1848:	b651                	j	13cc <main+0x378>
		if(led_val <= LED_MIN_VAL) { led_val = LED_MIN_VAL; led_inc = -led_inc; }
    184a:	c0a19323          	sh	a0,-1018(gp) # 20000002 <led_val.2>
    184e:	be4d                	j	1400 <main+0x3ac>
	} else { led_val = LED_MAX_VAL; }
    1850:	0ff00793          	li	a5,255
    1854:	c0f19323          	sh	a5,-1018(gp) # 20000002 <led_val.2>
    1858:	be7d                	j	1416 <main+0x3c2>
	for(uint16_t ti = 0; ti < therm_max_index; ti++)
    185a:	0785                	addi	a5,a5,1
    185c:	0611                	addi	a2,a2,4 # 400004 <oled.c.45f942c9+0x3fa63e>
    185e:	c6a795e3          	bne	a5,a0,14c8 <main+0x474>
		return thermistor_pair[0].temp_c;
    1862:	4501                	li	a0,0
    1864:	b155                	j	1508 <main+0x4b4>
	if(opamp_calibrated_adc < 0)     opamp_calibrated_adc = 0;
    1866:	01051713          	slli	a4,a0,0x10
    186a:	e40758e3          	bgez	a4,16ba <main+0x666>
    186e:	4501                	li	a0,0
    1870:	b5a9                	j	16ba <main+0x666>
	uint8_t pos_arr[3] = { (0xB0 | y), 
    1872:	fb046793          	ori	a5,s0,-80
    1876:	02f10823          	sb	a5,48(sp)
	OLED_WRITE(OLED_REG_COMMAND, &pos_arr[0], 1);
    187a:	4685                	li	a3,1
	uint8_t pos_arr[3] = { (0xB0 | y), 
    187c:	47c1                	li	a5,16
	OLED_WRITE(OLED_REG_COMMAND, &pos_arr[0], 1);
    187e:	1810                	addi	a2,sp,48
    1880:	4581                	li	a1,0
    1882:	8526                	mv	a0,s1
	uint8_t pos_arr[3] = { (0xB0 | y), 
    1884:	020108a3          	sb	zero,49(sp)
    1888:	02f10923          	sb	a5,50(sp)
	OLED_WRITE(OLED_REG_COMMAND, &pos_arr[0], 1);
    188c:	9acff0ef          	jal	a38 <i2c_write_reg>
    1890:	e105                	bnez	a0,18b0 <main+0x85c>
	OLED_WRITE(OLED_REG_COMMAND, &pos_arr[1], 1);
    1892:	4685                	li	a3,1
    1894:	03110613          	addi	a2,sp,49
    1898:	4581                	li	a1,0
    189a:	8526                	mv	a0,s1
    189c:	99cff0ef          	jal	a38 <i2c_write_reg>
    18a0:	e901                	bnez	a0,18b0 <main+0x85c>
	OLED_WRITE(OLED_REG_COMMAND, &pos_arr[2], 1);
    18a2:	4685                	li	a3,1
    18a4:	03210613          	addi	a2,sp,50
    18a8:	4581                	li	a1,0
    18aa:	8526                	mv	a0,s1
    18ac:	98cff0ef          	jal	a38 <i2c_write_reg>
		OLED_WRITE(OLED_REG_DISPLAY_START, _oled_buffer[page], OLED_WIDTH);
    18b0:	00741613          	slli	a2,s0,0x7
    18b4:	c6818793          	addi	a5,gp,-920 # 20000064 <_oled_buffer>
    18b8:	08000693          	li	a3,128
    18bc:	963e                	add	a2,a2,a5
    18be:	04000593          	li	a1,64
    18c2:	8526                	mv	a0,s1
    18c4:	974ff0ef          	jal	a38 <i2c_write_reg>
    18c8:	f53d                	bnez	a0,1836 <main+0x7e2>
	for(int page = 0; page < OLED_PAGES; page++)
    18ca:	0405                	addi	s0,s0,1
    18cc:	47a1                	li	a5,8
    18ce:	faf412e3          	bne	s0,a5,1872 <main+0x81e>
    18d2:	b795                	j	1836 <main+0x7e2>

000018d4 <SysTick_Handler>:
{
    18d4:	1151                	addi	sp,sp,-12
    18d6:	c03e                	sw	a5,0(sp)
	SysTick->CMP += SYSTICK_ONE_MILLISECOND;
    18d8:	e000f7b7          	lui	a5,0xe000f
{
    18dc:	c23a                	sw	a4,4(sp)
	SysTick->CMP += SYSTICK_ONE_MILLISECOND;
    18de:	4b98                	lw	a4,16(a5)
{
    18e0:	c436                	sw	a3,8(sp)
	SysTick->CMP += SYSTICK_ONE_MILLISECOND;
    18e2:	66b1                	lui	a3,0xc
    18e4:	b8068693          	addi	a3,a3,-1152 # bb80 <oled.c.45f942c9+0x61ba>
    18e8:	9736                	add	a4,a4,a3
    18ea:	cb98                	sw	a4,16(a5)
	SysTick->SR = 0x00000000;
    18ec:	0007a223          	sw	zero,4(a5) # e000f004 <_eusrstack+0xc000e804>
	g_systick_millis++;
    18f0:	c501a783          	lw	a5,-944(gp) # 2000004c <g_systick_millis>
}
    18f4:	46a2                	lw	a3,8(sp)
	g_systick_millis++;
    18f6:	0785                	addi	a5,a5,1
    18f8:	c4f1a823          	sw	a5,-944(gp) # 2000004c <g_systick_millis>
}
    18fc:	4712                	lw	a4,4(sp)
    18fe:	4782                	lw	a5,0(sp)
    1900:	0131                	addi	sp,sp,12
    1902:	30200073          	mret

00001906 <EXTI7_0_IRQHandler>:
{
    1906:	1121                	addi	sp,sp,-24
    1908:	c03e                	sw	a5,0(sp)
	if((EXTI->INTFR & 0x00000010) || (EXTI->INTFR & 0x00000020))
    190a:	400107b7          	lui	a5,0x40010
    190e:	40078793          	addi	a5,a5,1024 # 40010400 <_eusrstack+0x2000fc00>
{
    1912:	c23a                	sw	a4,4(sp)
	if((EXTI->INTFR & 0x00000010) || (EXTI->INTFR & 0x00000020))
    1914:	4bd8                	lw	a4,20(a5)
{
    1916:	ca2a                	sw	a0,20(sp)
    1918:	c82e                	sw	a1,16(sp)
    191a:	c632                	sw	a2,12(sp)
    191c:	c436                	sw	a3,8(sp)
	if((EXTI->INTFR & 0x00000010) || (EXTI->INTFR & 0x00000020))
    191e:	8b41                	andi	a4,a4,16
    1920:	e709                	bnez	a4,192a <EXTI7_0_IRQHandler+0x24>
    1922:	4bdc                	lw	a5,20(a5)
    1924:	0207f793          	andi	a5,a5,32
    1928:	cfb5                	beqz	a5,19a4 <EXTI7_0_IRQHandler+0x9e>
		if(EXTI->INTFR & 0x10) EXTI->INTFR = 0x10;
    192a:	40010737          	lui	a4,0x40010
		uint32_t portc_read = GPIOC->INDR;
    192e:	400117b7          	lui	a5,0x40011
		if(EXTI->INTFR & 0x10) EXTI->INTFR = 0x10;
    1932:	40070713          	addi	a4,a4,1024 # 40010400 <_eusrstack+0x2000fc00>
		uint32_t portc_read = GPIOC->INDR;
    1936:	479c                	lw	a5,8(a5)
		if(EXTI->INTFR & 0x10) EXTI->INTFR = 0x10;
    1938:	4b54                	lw	a3,20(a4)
    193a:	8ac1                	andi	a3,a3,16
    193c:	c299                	beqz	a3,1942 <EXTI7_0_IRQHandler+0x3c>
    193e:	46c1                	li	a3,16
    1940:	cb54                	sw	a3,20(a4)
		if(EXTI->INTFR & 0x20) EXTI->INTFR = 0x20;
    1942:	4b54                	lw	a3,20(a4)
    1944:	0206f693          	andi	a3,a3,32
    1948:	c681                	beqz	a3,1950 <EXTI7_0_IRQHandler+0x4a>
    194a:	02000693          	li	a3,32
    194e:	cb54                	sw	a3,20(a4)
		int8_t step = rotenc_table[ (rotenc_prev_bitmask << 2) | rotenc_curr_bitmask ];
    1950:	c0418683          	lb	a3,-1020(gp) # 20000000 <rotenc_prev_bitmask.1>
		       int8_t rotenc_curr_bitmask = (((portc_read >> 4) & 1) << 1) | ((portc_read >> 5) & 1);
    1954:	0037d713          	srli	a4,a5,0x3
    1958:	8395                	srli	a5,a5,0x5
    195a:	8b09                	andi	a4,a4,2
    195c:	8b85                	andi	a5,a5,1
    195e:	00f76633          	or	a2,a4,a5
		int8_t step = rotenc_table[ (rotenc_prev_bitmask << 2) | rotenc_curr_bitmask ];
    1962:	068a                	slli	a3,a3,0x2
    1964:	6789                	lui	a5,0x2
    1966:	8ed1                	or	a3,a3,a2
    1968:	05878793          	addi	a5,a5,88 # 2058 <rotenc_table>
    196c:	97b6                	add	a5,a5,a3
		       int8_t rotenc_curr_bitmask = (((portc_read >> 4) & 1) << 1) | ((portc_read >> 5) & 1);
    196e:	8732                	mv	a4,a2
		accumulator += step;
    1970:	c2c1c683          	lbu	a3,-980(gp) # 20000028 <accumulator.0>
    1974:	0007c783          	lbu	a5,0(a5)
		     if(accumulator >=  4) { g_rotary_encoder_clicks++; accumulator -= 4; }
    1978:	450d                	li	a0,3
		accumulator += step;
    197a:	97b6                	add	a5,a5,a3
    197c:	0ff7f693          	zext.b	a3,a5
    1980:	07e2                	slli	a5,a5,0x18
    1982:	87e1                	srai	a5,a5,0x18
    1984:	c2f18623          	sb	a5,-980(gp) # 20000028 <accumulator.0>
		     if(accumulator >=  4) { g_rotary_encoder_clicks++; accumulator -= 4; }
    1988:	02f55763          	bge	a0,a5,19b6 <EXTI7_0_IRQHandler+0xb0>
    198c:	c4e1d783          	lhu	a5,-946(gp) # 2000004a <g_rotary_encoder_clicks>
    1990:	16f1                	addi	a3,a3,-4
    1992:	0785                	addi	a5,a5,1
    1994:	07c2                	slli	a5,a5,0x10
    1996:	87c1                	srai	a5,a5,0x10
    1998:	c4f19723          	sh	a5,-946(gp) # 2000004a <g_rotary_encoder_clicks>
		else if(accumulator <= -4) { g_rotary_encoder_clicks--; accumulator += 4; }
    199c:	c2d18623          	sb	a3,-980(gp) # 20000028 <accumulator.0>
		rotenc_prev_bitmask = rotenc_curr_bitmask;
    19a0:	c0e18223          	sb	a4,-1020(gp) # 20000000 <rotenc_prev_bitmask.1>
}
    19a4:	4552                	lw	a0,20(sp)
    19a6:	45c2                	lw	a1,16(sp)
    19a8:	4632                	lw	a2,12(sp)
    19aa:	46a2                	lw	a3,8(sp)
    19ac:	4712                	lw	a4,4(sp)
    19ae:	4782                	lw	a5,0(sp)
    19b0:	0161                	addi	sp,sp,24
    19b2:	30200073          	mret
		else if(accumulator <= -4) { g_rotary_encoder_clicks--; accumulator += 4; }
    19b6:	5575                	li	a0,-3
    19b8:	fea7d4e3          	bge	a5,a0,19a0 <EXTI7_0_IRQHandler+0x9a>
    19bc:	c4e1d783          	lhu	a5,-946(gp) # 2000004a <g_rotary_encoder_clicks>
    19c0:	0691                	addi	a3,a3,4
    19c2:	17fd                	addi	a5,a5,-1
    19c4:	07c2                	slli	a5,a5,0x10
    19c6:	87c1                	srai	a5,a5,0x10
    19c8:	c4f19723          	sh	a5,-946(gp) # 2000004a <g_rotary_encoder_clicks>
    19cc:	bfc1                	j	199c <EXTI7_0_IRQHandler+0x96>
	...

000019d0 <thermistor_pair>:
    19d0:	0000 03f1 0004 03ee 0008 03ea 000c 03e5     ................
    19e0:	0010 03e0 0014 03da 0018 03d3 001c 03cb     ................
    19f0:	0020 03c2 0024 03b7 0028 03ac 002c 039f      ...$...(...,...
    1a00:	0030 0390 0034 0380 0038 036f 003c 035c     0...4...8.o.<.\.
    1a10:	0040 0348 0044 0333 0048 031c 004c 0304     @.H.D.3.H...L...
    1a20:	0050 02eb 0054 02d1 0058 02b6 005c 029b     P...T...X...\...
    1a30:	0060 027f 0064 0263 0068 0247 006c 022c     `...d.c.h.G.l.,.
    1a40:	0070 0210 0074 01f5 0078 01db 007c 01c1     p...t...x...|...
    1a50:	0080 01a8 0084 0190 0088 0179 008c 0163     ..........y...c.
    1a60:	0090 014f 0094 013b 0098 0128 009c 0116     ..O...;...(.....
    1a70:	00a0 0105 00a4 00f5 00a8 00e6 00ac 00d8     ................
    1a80:	00b0 00cb 00b4 00bf 00b8 00b3 00bc 00a8     ................
    1a90:	00c0 009e 00c4 0095 00c8 008c 00cc 0084     ................
    1aa0:	00d0 007c 00d4 0075 00d8 006e 00dc 0068     ..|...u...n...h.
    1ab0:	00e0 0062 00e4 005c 00e8 0057 00ec 0053     ..b...\...W...S.
    1ac0:	00f0 004e 00f4 004a 00f8 0046 00fc 0042     ..N...J...F...B.
    1ad0:	0100 003f 0104 003c 0108 0039 010c 0036     ..?...<...9...6.
    1ae0:	0110 0033 0114 0031 0118 002e 011c 002c     ..3...1.......,.
    1af0:	0120 002a 0124 0028 0128 0026 012c 0025      .*.$.(.(.&.,.%.
    1b00:	4240 000f 0000 0000 003c 0001 07d0 0000     @B......<.......
    1b10:	d5ae a8f0 d33f 4000 148d 0020 c8a1 12da     ....?..@.. .....
    1b20:	7f81 22d9 40db a6a4 00af 0000               ...".@......

00001b2c <__clz_tab>:
    1b2c:	0100 0202 0303 0303 0404 0404 0404 0404     ................
    1b3c:	0505 0505 0505 0505 0505 0505 0505 0505     ................
    1b4c:	0606 0606 0606 0606 0606 0606 0606 0606     ................
    1b5c:	0606 0606 0606 0606 0606 0606 0606 0606     ................
    1b6c:	0707 0707 0707 0707 0707 0707 0707 0707     ................
    1b7c:	0707 0707 0707 0707 0707 0707 0707 0707     ................
    1b8c:	0707 0707 0707 0707 0707 0707 0707 0707     ................
    1b9c:	0707 0707 0707 0707 0707 0707 0707 0707     ................
    1bac:	0808 0808 0808 0808 0808 0808 0808 0808     ................
    1bbc:	0808 0808 0808 0808 0808 0808 0808 0808     ................
    1bcc:	0808 0808 0808 0808 0808 0808 0808 0808     ................
    1bdc:	0808 0808 0808 0808 0808 0808 0808 0808     ................
    1bec:	0808 0808 0808 0808 0808 0808 0808 0808     ................
    1bfc:	0808 0808 0808 0808 0808 0808 0808 0808     ................
    1c0c:	0808 0808 0808 0808 0808 0808 0808 0808     ................
    1c1c:	0808 0808 0808 0808 0808 0808 0808 0808     ................
    1c2c:	666f 7366 7465 203a 6425 6709 6961 3a6e     offset: %d.gain:
    1c3c:	2520 0a64 0000 0000 7e7e 7e7e 5420 5241      %d.....~~~~ TAR
    1c4c:	4547 2054 7e7e 7e7e 0000 0000 7e7e 7e7e     GET ~~~~....~~~~
    1c5c:	4120 5443 4155 204c 7e7e 7e7e 0000 0000      ACTUAL ~~~~....

00001c6c <font8x8_data>:
	...
    1c74:	6646 1830 660c 0062 0000 6060 0000 0000     Ff0..fb...``....
    1c84:	7f3e 5971 7f4d 003e 4240 7f7f 4040 0000     >.qYM.>.@B..@@..
    1c94:	7362 4959 666f 0000 6322 4949 367f 0000     bsYIof.."cII.6..
    1ca4:	1c18 5316 7f7f 0050 6727 4545 397d 0000     ...S..P.'gEE}9..
    1cb4:	7e3c 494b 3079 0000 0303 7971 070f 0000     <~KIy0....qy....
    1cc4:	7f36 4949 367f 0000 4f06 6949 1e3f 0000     6.II.6...OIi?...
    1cd4:	0000 6666 0000 0000 8000 66e6 0000 0000     ..ff.......f....
    1ce4:	1c08 6336 0041 0000 2424 2424 2424 0000     ..6cA...$$$$$$..
    1cf4:	4100 3663 081c 0000 0302 5951 060f 0000     .Ac6......QY....
    1d04:	7f3e 5d41 1f5d 001e 7e7c 1313 7c7e 0000     >.A]]...|~..~|..
    1d14:	7f41 497f 7f49 0036 3e1c 4163 6341 0022     A..II.6..>cAAc".
    1d24:	7f41 417f 3e63 001c 7f41 497f 415d 0063     A..Ac>..A..I]Ac.
    1d34:	7f41 497f 011d 0003 3e1c 4163 7351 0072     A..I.....>cAQsr.
    1d44:	7f7f 0808 7f7f 0000 4100 7f7f 0041 0000     .........A..A...
    1d54:	7030 4140 3f7f 0001 7f41 087f 771c 0063     0p@A.?..A....wc.
    1d64:	7f41 417f 6040 0070 7f7f 1c0e 7f0e 007f     A..A@`p.........
    1d74:	7f7f 0c06 7f18 007f 3e1c 4163 3e63 001c     .........>cAc>..
    1d84:	7f41 497f 0f09 0006 3f1e 7121 5e7f 0000     A..I.....?!q.^..
    1d94:	7f41 097f 7f19 0066 6f26 594d 3273 0000     A.....f.&oMYs2..
    1da4:	4103 7f7f 0341 0000 7f7f 4040 7f7f 0000     .A..A.....@@....
    1db4:	3f1f 6060 1f3f 0000 7f7f 1830 7f30 007f     .?``?.....0.0...
    1dc4:	6743 183c 673c 0043 4f07 7878 074f 0000     Cg<.<gC..OxxO...
    1dd4:	6347 5971 674d 0073 1818 1818 1818 1818     GcqYMgs.........

00001de4 <font8x8_lut>:
    1de4:	2520 302e 3231 3433 3635 3837 3a39 3c3b      %.0123456789:;<
    1df4:	3e3d 403f 4241 4443 4645 4847 4a49 4c4b     =>?@ABCDEFGHIJKL
    1e04:	4e4d 504f 5251 5453 5655 5857 5a59 007e     MNOPQRSTUVWXYZ~.

00001e14 <font16x16_data>:
	...
    1e40:	0000 1800 1800 0000 0000 0000 0000 0000     ................
	...
    1e5c:	1ff0 3ff8 3018 2008 2008 2008 3018 3ff8     ...?.0. . . .0.?
    1e6c:	1ff0 0000 0000 0000 0000 0000 0000 0000     ................
    1e7c:	0000 0000 0000 3ff8 3ff8 0000 0000 0000     .......?.?......
	...
    1e9c:	3e08 3f08 2108 2108 2108 2108 2108 21f8     .>.?.!.!.!.!.!.!
    1eac:	20f0 0000 0000 0000 0000 0000 0000 0000     . ..............
    1ebc:	2008 2108 2108 2108 2108 2108 2108 3ff8     . .!.!.!.!.!.!.?
    1ecc:	1ff0 0000 0000 0000 0000 0000 0000 0000     ................
    1edc:	01f8 03f8 0200 0200 0200 3f80 3f80 0200     ...........?.?..
    1eec:	0200 0000 0000 0000 0000 0000 0000 0000     ................
    1efc:	21f8 21f8 2108 2108 2108 2108 2108 3f08     .!.!.!.!.!.!.!.?
    1f0c:	1e08 0000 0000 0000 0000 0000 0000 0000     ................
    1f1c:	1ff0 3ff8 3188 2088 2088 2088 2088 3188     ...?.1. . . . .1
    1f2c:	1f88 1f00 0000 0000 0000 0000 0000 0000     ................
    1f3c:	0008 0008 3008 3c08 0f08 03c8 00f8 0038     .....0.<......8.
    1f4c:	0008 0000 0000 0000 0000 0000 0000 0000     ................
    1f5c:	1ef0 3ff8 2108 2108 2108 2108 2108 3ff8     ...?.!.!.!.!.!.?
    1f6c:	1ff0 0000 0000 0000 0000 0000 0000 0000     ................
    1f7c:	01f0 21f8 2318 2208 2208 2208 2208 2318     ...!.#.".".".".#
    1f8c:	3ff8 1ff0 0000 0000 0000 0000 0000 0000     .?..............
    1f9c:	1ff0 3ff8 2008 2008 2008 2008 2008 2008     ...?. . . . . . 
    1fac:	2008 0000 0000 0000 0000 0000 0000 0000     . ..............
    1fbc:	3ff0 3ff8 0108 0108 0108 0108 0108 0108     .?.?............
    1fcc:	0108 0000 0000 0000 0000 0000 0000 0000     ................
    1fdc:	0000 0038 007c 0044 0044 0044 007c 0038     ..8.|.D.D.D.|.8.
	...
    2000:	7ffe 7ffe 6002 6002 6002 0000 0000 0000     .....`.`.`......
	...
    2020:	6002 6002 7ffe 7ffe 0000 0000 0000 0000     .`.`............
    2030:	0000 0000                                   ....

00002034 <font16_16_lut>:
    2034:	2e20 3130 3332 3534 3736 3938 4643 5b60      .0123456789CF`[
    2044:	005d 0000                                   ]...

00002048 <GPIO_PORT_MAP>:
    2048:	0800 4001 0000 0000 1000 4001 1400 4001     ...@.......@...@

00002058 <rotenc_table>:
    2058:	ff00 0001 0001 ff00 00ff 0100 0100 00ff     ................
