
build/tcrhmag.elf:     file format elf32-littleriscv


Disassembly of section .init:

00000000 <InterruptVector>:
	void InterruptVector()         __attribute__((naked)) __attribute((section(".init"))) __attribute((weak,alias("InterruptVectorDefault"))) __attribute((naked));
	void InterruptVectorDefault()  __attribute__((naked)) __attribute((section(".init"))) __attribute((naked));
	void InterruptVectorDefault( void )
	{
		#if !defined(FUNCONF_TINYVECTOR) || !FUNCONF_TINYVECTOR
			asm volatile( DEFAULT_INTERRUPT_VECTOR_CONTENTS );
   0:	3d90006f          	j	bd8 <handle_reset>
   4:	00000000          	.word	0x00000000
   8:	00000c96          	.word	0x00000c96
   c:	00000c4a          	.word	0x00000c4a
	...
  30:	00001678          	.word	0x00001678
  34:	00000000          	.word	0x00000000
  38:	00000c4a          	.word	0x00000c4a
  3c:	00000000          	.word	0x00000000
  40:	00000c4a          	.word	0x00000c4a
  44:	00000c4a          	.word	0x00000c4a
  48:	00000c4a          	.word	0x00000c4a
  4c:	00000c4a          	.word	0x00000c4a
  50:	000016aa          	.word	0x000016aa
  54:	00000c4a          	.word	0x00000c4a
  58:	00000c4a          	.word	0x00000c4a
  5c:	00000c4a          	.word	0x00000c4a
  60:	00000c4a          	.word	0x00000c4a
  64:	00000c4a          	.word	0x00000c4a
  68:	00000c4a          	.word	0x00000c4a
  6c:	00000c4a          	.word	0x00000c4a
  70:	00000c4a          	.word	0x00000c4a
  74:	00000c4a          	.word	0x00000c4a
  78:	00000c4a          	.word	0x00000c4a
  7c:	00000c4a          	.word	0x00000c4a
  80:	00000c4a          	.word	0x00000c4a
  84:	00000c4a          	.word	0x00000c4a
  88:	00000c4a          	.word	0x00000c4a
  8c:	00000c4a          	.word	0x00000c4a
  90:	00000c4a          	.word	0x00000c4a
  94:	00000c4a          	.word	0x00000c4a
  98:	00000c4a          	.word	0x00000c4a
  9c:	0000                	unimp
	...

Disassembly of section .text:

000000a0 <__divdi3>:
      a0:	fcc10113          	addi	sp,sp,-52
      a4:	d806                	sw	ra,48(sp)
      a6:	d622                	sw	s0,44(sp)
      a8:	d426                	sw	s1,40(sp)
      aa:	c002                	sw	zero,0(sp)
      ac:	832a                	mv	t1,a0
      ae:	0005db63          	bgez	a1,c4 <__divdi3+0x24>
      b2:	00a037b3          	snez	a5,a0
      b6:	40b005b3          	neg	a1,a1
      ba:	8d9d                	sub	a1,a1,a5
      bc:	57fd                	li	a5,-1
      be:	40a00333          	neg	t1,a0
      c2:	c03e                	sw	a5,0(sp)
      c4:	0006dd63          	bgez	a3,de <__divdi3+0x3e>
      c8:	4782                	lw	a5,0(sp)
      ca:	40d006b3          	neg	a3,a3
      ce:	fff7c793          	not	a5,a5
      d2:	c03e                	sw	a5,0(sp)
      d4:	00c037b3          	snez	a5,a2
      d8:	8e9d                	sub	a3,a3,a5
      da:	40c00633          	neg	a2,a2
      de:	82b2                	mv	t0,a2
      e0:	841a                	mv	s0,t1
      e2:	84ae                	mv	s1,a1
      e4:	2a069563          	bnez	a3,38e <__divdi3+0x2ee>
      e8:	6689                	lui	a3,0x2
      ea:	8d068693          	addi	a3,a3,-1840 # 18d0 <__clz_tab>
      ee:	0ec5f563          	bgeu	a1,a2,1d8 <__divdi3+0x138>
      f2:	67c1                	lui	a5,0x10
      f4:	0cf67b63          	bgeu	a2,a5,1ca <__divdi3+0x12a>
      f8:	10063793          	sltiu	a5,a2,256
      fc:	0017c793          	xori	a5,a5,1
     100:	078e                	slli	a5,a5,0x3
     102:	00f65533          	srl	a0,a2,a5
     106:	96aa                	add	a3,a3,a0
     108:	0006c683          	lbu	a3,0(a3)
     10c:	02000513          	li	a0,32
     110:	97b6                	add	a5,a5,a3
     112:	40f506b3          	sub	a3,a0,a5
     116:	00f50c63          	beq	a0,a5,12e <__divdi3+0x8e>
     11a:	00d59733          	sll	a4,a1,a3
     11e:	00f357b3          	srl	a5,t1,a5
     122:	00d612b3          	sll	t0,a2,a3
     126:	00e7e4b3          	or	s1,a5,a4
     12a:	00d31433          	sll	s0,t1,a3
     12e:	0102d793          	srli	a5,t0,0x10
     132:	c23e                	sw	a5,4(sp)
     134:	4592                	lw	a1,4(sp)
     136:	01029793          	slli	a5,t0,0x10
     13a:	83c1                	srli	a5,a5,0x10
     13c:	8526                	mv	a0,s1
     13e:	ca16                	sw	t0,20(sp)
     140:	c43e                	sw	a5,8(sp)
     142:	2109                	jal	544 <__hidden___udivsi3>
     144:	85aa                	mv	a1,a0
     146:	c82a                	sw	a0,16(sp)
     148:	4522                	lw	a0,8(sp)
     14a:	2ee9                	jal	524 <__mulsi3>
     14c:	4592                	lw	a1,4(sp)
     14e:	c62a                	sw	a0,12(sp)
     150:	8526                	mv	a0,s1
     152:	2939                	jal	570 <__umodsi3>
     154:	4642                	lw	a2,16(sp)
     156:	46b2                	lw	a3,12(sp)
     158:	0542                	slli	a0,a0,0x10
     15a:	01045713          	srli	a4,s0,0x10
     15e:	8f49                	or	a4,a4,a0
     160:	42d2                	lw	t0,20(sp)
     162:	84b2                	mv	s1,a2
     164:	00d77c63          	bgeu	a4,a3,17c <__divdi3+0xdc>
     168:	9716                	add	a4,a4,t0
     16a:	fff60493          	addi	s1,a2,-1
     16e:	00576763          	bltu	a4,t0,17c <__divdi3+0xdc>
     172:	00d77563          	bgeu	a4,a3,17c <__divdi3+0xdc>
     176:	ffe60493          	addi	s1,a2,-2
     17a:	9716                	add	a4,a4,t0
     17c:	4592                	lw	a1,4(sp)
     17e:	40d707b3          	sub	a5,a4,a3
     182:	853e                	mv	a0,a5
     184:	ca16                	sw	t0,20(sp)
     186:	c63e                	sw	a5,12(sp)
     188:	2e75                	jal	544 <__hidden___udivsi3>
     18a:	85aa                	mv	a1,a0
     18c:	c82a                	sw	a0,16(sp)
     18e:	4522                	lw	a0,8(sp)
     190:	0442                	slli	s0,s0,0x10
     192:	8041                	srli	s0,s0,0x10
     194:	2e41                	jal	524 <__mulsi3>
     196:	c42a                	sw	a0,8(sp)
     198:	4592                	lw	a1,4(sp)
     19a:	4532                	lw	a0,12(sp)
     19c:	2ed1                	jal	570 <__umodsi3>
     19e:	4742                	lw	a4,16(sp)
     1a0:	46a2                	lw	a3,8(sp)
     1a2:	0542                	slli	a0,a0,0x10
     1a4:	8c49                	or	s0,s0,a0
     1a6:	863a                	mv	a2,a4
     1a8:	00d47c63          	bgeu	s0,a3,1c0 <__divdi3+0x120>
     1ac:	42d2                	lw	t0,20(sp)
     1ae:	fff70613          	addi	a2,a4,-1
     1b2:	9416                	add	s0,s0,t0
     1b4:	00546663          	bltu	s0,t0,1c0 <__divdi3+0x120>
     1b8:	00d47463          	bgeu	s0,a3,1c0 <__divdi3+0x120>
     1bc:	ffe70613          	addi	a2,a4,-2
     1c0:	01049793          	slli	a5,s1,0x10
     1c4:	8fd1                	or	a5,a5,a2
     1c6:	4481                	li	s1,0
     1c8:	a0c5                	j	2a8 <__divdi3+0x208>
     1ca:	01000537          	lui	a0,0x1000
     1ce:	47c1                	li	a5,16
     1d0:	f2a669e3          	bltu	a2,a0,102 <__divdi3+0x62>
     1d4:	47e1                	li	a5,24
     1d6:	b735                	j	102 <__divdi3+0x62>
     1d8:	4781                	li	a5,0
     1da:	ca09                	beqz	a2,1ec <__divdi3+0x14c>
     1dc:	67c1                	lui	a5,0x10
     1de:	0ef67663          	bgeu	a2,a5,2ca <__divdi3+0x22a>
     1e2:	10063793          	sltiu	a5,a2,256
     1e6:	0017c793          	xori	a5,a5,1
     1ea:	078e                	slli	a5,a5,0x3
     1ec:	00f65733          	srl	a4,a2,a5
     1f0:	9736                	add	a4,a4,a3
     1f2:	00074703          	lbu	a4,0(a4)
     1f6:	02000693          	li	a3,32
     1fa:	97ba                	add	a5,a5,a4
     1fc:	40f68733          	sub	a4,a3,a5
     200:	0cf69c63          	bne	a3,a5,2d8 <__divdi3+0x238>
     204:	40c58633          	sub	a2,a1,a2
     208:	4485                	li	s1,1
     20a:	0102d793          	srli	a5,t0,0x10
     20e:	c23e                	sw	a5,4(sp)
     210:	4592                	lw	a1,4(sp)
     212:	01029793          	slli	a5,t0,0x10
     216:	83c1                	srli	a5,a5,0x10
     218:	8532                	mv	a0,a2
     21a:	cc16                	sw	t0,24(sp)
     21c:	c43e                	sw	a5,8(sp)
     21e:	ca32                	sw	a2,20(sp)
     220:	2615                	jal	544 <__hidden___udivsi3>
     222:	85aa                	mv	a1,a0
     224:	c82a                	sw	a0,16(sp)
     226:	4522                	lw	a0,8(sp)
     228:	2cf5                	jal	524 <__mulsi3>
     22a:	4652                	lw	a2,20(sp)
     22c:	4592                	lw	a1,4(sp)
     22e:	c62a                	sw	a0,12(sp)
     230:	8532                	mv	a0,a2
     232:	2e3d                	jal	570 <__umodsi3>
     234:	43c2                	lw	t2,16(sp)
     236:	4332                	lw	t1,12(sp)
     238:	0542                	slli	a0,a0,0x10
     23a:	01045693          	srli	a3,s0,0x10
     23e:	8ec9                	or	a3,a3,a0
     240:	42e2                	lw	t0,24(sp)
     242:	879e                	mv	a5,t2
     244:	0066fc63          	bgeu	a3,t1,25c <__divdi3+0x1bc>
     248:	9696                	add	a3,a3,t0
     24a:	fff38793          	addi	a5,t2,-1
     24e:	0056e763          	bltu	a3,t0,25c <__divdi3+0x1bc>
     252:	0066f563          	bgeu	a3,t1,25c <__divdi3+0x1bc>
     256:	ffe38793          	addi	a5,t2,-2
     25a:	9696                	add	a3,a3,t0
     25c:	4592                	lw	a1,4(sp)
     25e:	cc3e                	sw	a5,24(sp)
     260:	406687b3          	sub	a5,a3,t1
     264:	853e                	mv	a0,a5
     266:	c63e                	sw	a5,12(sp)
     268:	ca16                	sw	t0,20(sp)
     26a:	2ce9                	jal	544 <__hidden___udivsi3>
     26c:	85aa                	mv	a1,a0
     26e:	c82a                	sw	a0,16(sp)
     270:	4522                	lw	a0,8(sp)
     272:	0442                	slli	s0,s0,0x10
     274:	8041                	srli	s0,s0,0x10
     276:	247d                	jal	524 <__mulsi3>
     278:	4592                	lw	a1,4(sp)
     27a:	c42a                	sw	a0,8(sp)
     27c:	4532                	lw	a0,12(sp)
     27e:	2ccd                	jal	570 <__umodsi3>
     280:	46c2                	lw	a3,16(sp)
     282:	4622                	lw	a2,8(sp)
     284:	0542                	slli	a0,a0,0x10
     286:	8c49                	or	s0,s0,a0
     288:	47e2                	lw	a5,24(sp)
     28a:	85b6                	mv	a1,a3
     28c:	00c47c63          	bgeu	s0,a2,2a4 <__divdi3+0x204>
     290:	42d2                	lw	t0,20(sp)
     292:	fff68593          	addi	a1,a3,-1
     296:	9416                	add	s0,s0,t0
     298:	00546663          	bltu	s0,t0,2a4 <__divdi3+0x204>
     29c:	00c47463          	bgeu	s0,a2,2a4 <__divdi3+0x204>
     2a0:	ffe68593          	addi	a1,a3,-2
     2a4:	07c2                	slli	a5,a5,0x10
     2a6:	8fcd                	or	a5,a5,a1
     2a8:	853e                	mv	a0,a5
     2aa:	4782                	lw	a5,0(sp)
     2ac:	85a6                	mv	a1,s1
     2ae:	cb81                	beqz	a5,2be <__divdi3+0x21e>
     2b0:	00a037b3          	snez	a5,a0
     2b4:	409005b3          	neg	a1,s1
     2b8:	8d9d                	sub	a1,a1,a5
     2ba:	40a00533          	neg	a0,a0
     2be:	50c2                	lw	ra,48(sp)
     2c0:	5432                	lw	s0,44(sp)
     2c2:	54a2                	lw	s1,40(sp)
     2c4:	03410113          	addi	sp,sp,52
     2c8:	8082                	ret
     2ca:	01000737          	lui	a4,0x1000
     2ce:	47c1                	li	a5,16
     2d0:	f0e66ee3          	bltu	a2,a4,1ec <__divdi3+0x14c>
     2d4:	47e1                	li	a5,24
     2d6:	bf19                	j	1ec <__divdi3+0x14c>
     2d8:	00f5d4b3          	srl	s1,a1,a5
     2dc:	00e595b3          	sll	a1,a1,a4
     2e0:	00f357b3          	srl	a5,t1,a5
     2e4:	00e612b3          	sll	t0,a2,a4
     2e8:	8fcd                	or	a5,a5,a1
     2ea:	c43e                	sw	a5,8(sp)
     2ec:	0102d793          	srli	a5,t0,0x10
     2f0:	c23e                	sw	a5,4(sp)
     2f2:	4592                	lw	a1,4(sp)
     2f4:	01029793          	slli	a5,t0,0x10
     2f8:	83c1                	srli	a5,a5,0x10
     2fa:	8526                	mv	a0,s1
     2fc:	cc16                	sw	t0,24(sp)
     2fe:	c63e                	sw	a5,12(sp)
     300:	00e31433          	sll	s0,t1,a4
     304:	2481                	jal	544 <__hidden___udivsi3>
     306:	85aa                	mv	a1,a0
     308:	ca2a                	sw	a0,20(sp)
     30a:	4532                	lw	a0,12(sp)
     30c:	2c21                	jal	524 <__mulsi3>
     30e:	4592                	lw	a1,4(sp)
     310:	c82a                	sw	a0,16(sp)
     312:	8526                	mv	a0,s1
     314:	2cb1                	jal	570 <__umodsi3>
     316:	47a2                	lw	a5,8(sp)
     318:	4652                	lw	a2,20(sp)
     31a:	46c2                	lw	a3,16(sp)
     31c:	0542                	slli	a0,a0,0x10
     31e:	83c1                	srli	a5,a5,0x10
     320:	8fc9                	or	a5,a5,a0
     322:	42e2                	lw	t0,24(sp)
     324:	84b2                	mv	s1,a2
     326:	00d7fc63          	bgeu	a5,a3,33e <__divdi3+0x29e>
     32a:	9796                	add	a5,a5,t0
     32c:	fff60493          	addi	s1,a2,-1
     330:	0057e763          	bltu	a5,t0,33e <__divdi3+0x29e>
     334:	00d7f563          	bgeu	a5,a3,33e <__divdi3+0x29e>
     338:	ffe60493          	addi	s1,a2,-2
     33c:	9796                	add	a5,a5,t0
     33e:	4592                	lw	a1,4(sp)
     340:	8f95                	sub	a5,a5,a3
     342:	853e                	mv	a0,a5
     344:	cc16                	sw	t0,24(sp)
     346:	c83e                	sw	a5,16(sp)
     348:	2af5                	jal	544 <__hidden___udivsi3>
     34a:	85aa                	mv	a1,a0
     34c:	ca2a                	sw	a0,20(sp)
     34e:	4532                	lw	a0,12(sp)
     350:	2ad1                	jal	524 <__mulsi3>
     352:	4592                	lw	a1,4(sp)
     354:	c62a                	sw	a0,12(sp)
     356:	4542                	lw	a0,16(sp)
     358:	2c21                	jal	570 <__umodsi3>
     35a:	00815603          	lhu	a2,8(sp)
     35e:	46d2                	lw	a3,20(sp)
     360:	47b2                	lw	a5,12(sp)
     362:	0542                	slli	a0,a0,0x10
     364:	8e49                	or	a2,a2,a0
     366:	42e2                	lw	t0,24(sp)
     368:	85b6                	mv	a1,a3
     36a:	00f67c63          	bgeu	a2,a5,382 <__divdi3+0x2e2>
     36e:	9616                	add	a2,a2,t0
     370:	fff68593          	addi	a1,a3,-1
     374:	00566763          	bltu	a2,t0,382 <__divdi3+0x2e2>
     378:	00f67563          	bgeu	a2,a5,382 <__divdi3+0x2e2>
     37c:	ffe68593          	addi	a1,a3,-2
     380:	9616                	add	a2,a2,t0
     382:	01049713          	slli	a4,s1,0x10
     386:	8e1d                	sub	a2,a2,a5
     388:	00b764b3          	or	s1,a4,a1
     38c:	bdbd                	j	20a <__divdi3+0x16a>
     38e:	18d5e763          	bltu	a1,a3,51c <__divdi3+0x47c>
     392:	67c1                	lui	a5,0x10
     394:	02f6fe63          	bgeu	a3,a5,3d0 <__divdi3+0x330>
     398:	1006b793          	sltiu	a5,a3,256
     39c:	0017c793          	xori	a5,a5,1
     3a0:	078e                	slli	a5,a5,0x3
     3a2:	6709                	lui	a4,0x2
     3a4:	00f6d533          	srl	a0,a3,a5
     3a8:	8d070713          	addi	a4,a4,-1840 # 18d0 <__clz_tab>
     3ac:	972a                	add	a4,a4,a0
     3ae:	00074503          	lbu	a0,0(a4)
     3b2:	953e                	add	a0,a0,a5
     3b4:	02000793          	li	a5,32
     3b8:	40a784b3          	sub	s1,a5,a0
     3bc:	02a79163          	bne	a5,a0,3de <__divdi3+0x33e>
     3c0:	4785                	li	a5,1
     3c2:	eeb6e3e3          	bltu	a3,a1,2a8 <__divdi3+0x208>
     3c6:	00c33633          	sltu	a2,t1,a2
     3ca:	00164793          	xori	a5,a2,1
     3ce:	bde9                	j	2a8 <__divdi3+0x208>
     3d0:	01000737          	lui	a4,0x1000
     3d4:	47c1                	li	a5,16
     3d6:	fce6e6e3          	bltu	a3,a4,3a2 <__divdi3+0x302>
     3da:	47e1                	li	a5,24
     3dc:	b7d9                	j	3a2 <__divdi3+0x302>
     3de:	009697b3          	sll	a5,a3,s1
     3e2:	00a656b3          	srl	a3,a2,a0
     3e6:	8edd                	or	a3,a3,a5
     3e8:	00a5d433          	srl	s0,a1,a0
     3ec:	009617b3          	sll	a5,a2,s1
     3f0:	00a35533          	srl	a0,t1,a0
     3f4:	009595b3          	sll	a1,a1,s1
     3f8:	c43e                	sw	a5,8(sp)
     3fa:	00b567b3          	or	a5,a0,a1
     3fe:	c63e                	sw	a5,12(sp)
     400:	0106d793          	srli	a5,a3,0x10
     404:	c23e                	sw	a5,4(sp)
     406:	4592                	lw	a1,4(sp)
     408:	01069793          	slli	a5,a3,0x10
     40c:	83c1                	srli	a5,a5,0x10
     40e:	8522                	mv	a0,s0
     410:	d01a                	sw	t1,32(sp)
     412:	ce36                	sw	a3,28(sp)
     414:	c83e                	sw	a5,16(sp)
     416:	223d                	jal	544 <__hidden___udivsi3>
     418:	85aa                	mv	a1,a0
     41a:	cc2a                	sw	a0,24(sp)
     41c:	4542                	lw	a0,16(sp)
     41e:	2219                	jal	524 <__mulsi3>
     420:	4592                	lw	a1,4(sp)
     422:	ca2a                	sw	a0,20(sp)
     424:	8522                	mv	a0,s0
     426:	22a9                	jal	570 <__umodsi3>
     428:	47b2                	lw	a5,12(sp)
     42a:	42e2                	lw	t0,24(sp)
     42c:	4652                	lw	a2,20(sp)
     42e:	0107d413          	srli	s0,a5,0x10
     432:	0542                	slli	a0,a0,0x10
     434:	8c49                	or	s0,s0,a0
     436:	46f2                	lw	a3,28(sp)
     438:	5302                	lw	t1,32(sp)
     43a:	8796                	mv	a5,t0
     43c:	00c47c63          	bgeu	s0,a2,454 <__divdi3+0x3b4>
     440:	9436                	add	s0,s0,a3
     442:	fff28793          	addi	a5,t0,-1
     446:	00d46763          	bltu	s0,a3,454 <__divdi3+0x3b4>
     44a:	00c47563          	bgeu	s0,a2,454 <__divdi3+0x3b4>
     44e:	ffe28793          	addi	a5,t0,-2
     452:	9436                	add	s0,s0,a3
     454:	4592                	lw	a1,4(sp)
     456:	d03e                	sw	a5,32(sp)
     458:	40c407b3          	sub	a5,s0,a2
     45c:	853e                	mv	a0,a5
     45e:	d21a                	sw	t1,36(sp)
     460:	ca3e                	sw	a5,20(sp)
     462:	ce36                	sw	a3,28(sp)
     464:	20c5                	jal	544 <__hidden___udivsi3>
     466:	85aa                	mv	a1,a0
     468:	cc2a                	sw	a0,24(sp)
     46a:	4542                	lw	a0,16(sp)
     46c:	2865                	jal	524 <__mulsi3>
     46e:	4592                	lw	a1,4(sp)
     470:	842a                	mv	s0,a0
     472:	4552                	lw	a0,20(sp)
     474:	28f5                	jal	570 <__umodsi3>
     476:	00c15603          	lhu	a2,12(sp)
     47a:	43e2                	lw	t2,24(sp)
     47c:	0542                	slli	a0,a0,0x10
     47e:	8e49                	or	a2,a2,a0
     480:	5782                	lw	a5,32(sp)
     482:	5312                	lw	t1,36(sp)
     484:	859e                	mv	a1,t2
     486:	00867d63          	bgeu	a2,s0,4a0 <__divdi3+0x400>
     48a:	46f2                	lw	a3,28(sp)
     48c:	fff38593          	addi	a1,t2,-1
     490:	9636                	add	a2,a2,a3
     492:	00d66763          	bltu	a2,a3,4a0 <__divdi3+0x400>
     496:	00867563          	bgeu	a2,s0,4a0 <__divdi3+0x400>
     49a:	ffe38593          	addi	a1,t2,-2
     49e:	9636                	add	a2,a2,a3
     4a0:	40860733          	sub	a4,a2,s0
     4a4:	4622                	lw	a2,8(sp)
     4a6:	66c1                	lui	a3,0x10
     4a8:	07c2                	slli	a5,a5,0x10
     4aa:	8fcd                	or	a5,a5,a1
     4ac:	fff68293          	addi	t0,a3,-1 # ffff <oled.c.435159ad+0xaba9>
     4b0:	0057f433          	and	s0,a5,t0
     4b4:	005672b3          	and	t0,a2,t0
     4b8:	8241                	srli	a2,a2,0x10
     4ba:	c232                	sw	a2,4(sp)
     4bc:	8522                	mv	a0,s0
     4be:	8596                	mv	a1,t0
     4c0:	2095                	jal	524 <__mulsi3>
     4c2:	83aa                	mv	t2,a0
     4c4:	4592                	lw	a1,4(sp)
     4c6:	8522                	mv	a0,s0
     4c8:	28b1                	jal	524 <__mulsi3>
     4ca:	842a                	mv	s0,a0
     4cc:	8596                	mv	a1,t0
     4ce:	0107d513          	srli	a0,a5,0x10
     4d2:	2889                	jal	524 <__mulsi3>
     4d4:	82aa                	mv	t0,a0
     4d6:	4592                	lw	a1,4(sp)
     4d8:	0107d513          	srli	a0,a5,0x10
     4dc:	20a1                	jal	524 <__mulsi3>
     4de:	0103d613          	srli	a2,t2,0x10
     4e2:	005406b3          	add	a3,s0,t0
     4e6:	00d60433          	add	s0,a2,a3
     4ea:	00547463          	bgeu	s0,t0,4f2 <__divdi3+0x452>
     4ee:	66c1                	lui	a3,0x10
     4f0:	9536                	add	a0,a0,a3
     4f2:	01045693          	srli	a3,s0,0x10
     4f6:	9536                	add	a0,a0,a3
     4f8:	02a76063          	bltu	a4,a0,518 <__divdi3+0x478>
     4fc:	cca715e3          	bne	a4,a0,1c6 <__divdi3+0x126>
     500:	6741                	lui	a4,0x10
     502:	177d                	addi	a4,a4,-1 # ffff <oled.c.435159ad+0xaba9>
     504:	8c79                	and	s0,s0,a4
     506:	0442                	slli	s0,s0,0x10
     508:	00e3f733          	and	a4,t2,a4
     50c:	00931333          	sll	t1,t1,s1
     510:	943a                	add	s0,s0,a4
     512:	4481                	li	s1,0
     514:	d8837ae3          	bgeu	t1,s0,2a8 <__divdi3+0x208>
     518:	17fd                	addi	a5,a5,-1 # ffff <oled.c.435159ad+0xaba9>
     51a:	b175                	j	1c6 <__divdi3+0x126>
     51c:	4481                	li	s1,0
     51e:	4781                	li	a5,0
     520:	b361                	j	2a8 <__divdi3+0x208>
	...

00000524 <__mulsi3>:
     524:	862a                	mv	a2,a0
     526:	4501                	li	a0,0
     528:	0015f693          	andi	a3,a1,1
     52c:	c291                	beqz	a3,530 <__mulsi3+0xc>
     52e:	9532                	add	a0,a0,a2
     530:	8185                	srli	a1,a1,0x1
     532:	0606                	slli	a2,a2,0x1
     534:	f9f5                	bnez	a1,528 <__mulsi3+0x4>
     536:	8082                	ret
     538:	0000                	unimp
	...

0000053c <__divsi3>:
     53c:	02054e63          	bltz	a0,578 <__umodsi3+0x8>
     540:	0405c363          	bltz	a1,586 <__umodsi3+0x16>

00000544 <__hidden___udivsi3>:
     544:	862e                	mv	a2,a1
     546:	85aa                	mv	a1,a0
     548:	557d                	li	a0,-1
     54a:	c215                	beqz	a2,56e <__hidden___udivsi3+0x2a>
     54c:	4685                	li	a3,1
     54e:	00b67863          	bgeu	a2,a1,55e <__hidden___udivsi3+0x1a>
     552:	00c05663          	blez	a2,55e <__hidden___udivsi3+0x1a>
     556:	0606                	slli	a2,a2,0x1
     558:	0686                	slli	a3,a3,0x1
     55a:	feb66ce3          	bltu	a2,a1,552 <__hidden___udivsi3+0xe>
     55e:	4501                	li	a0,0
     560:	00c5e463          	bltu	a1,a2,568 <__hidden___udivsi3+0x24>
     564:	8d91                	sub	a1,a1,a2
     566:	8d55                	or	a0,a0,a3
     568:	8285                	srli	a3,a3,0x1
     56a:	8205                	srli	a2,a2,0x1
     56c:	faf5                	bnez	a3,560 <__hidden___udivsi3+0x1c>
     56e:	8082                	ret

00000570 <__umodsi3>:
     570:	8286                	mv	t0,ra
     572:	3fc9                	jal	544 <__hidden___udivsi3>
     574:	852e                	mv	a0,a1
     576:	8282                	jr	t0
     578:	40a00533          	neg	a0,a0
     57c:	00b04763          	bgtz	a1,58a <__umodsi3+0x1a>
     580:	40b005b3          	neg	a1,a1
     584:	b7c1                	j	544 <__hidden___udivsi3>
     586:	40b005b3          	neg	a1,a1
     58a:	8286                	mv	t0,ra
     58c:	3f65                	jal	544 <__hidden___udivsi3>
     58e:	40a00533          	neg	a0,a0
     592:	8282                	jr	t0

00000594 <__modsi3>:
     594:	8286                	mv	t0,ra
     596:	0005c763          	bltz	a1,5a4 <__modsi3+0x10>
     59a:	00054963          	bltz	a0,5ac <__modsi3+0x18>
     59e:	375d                	jal	544 <__hidden___udivsi3>
     5a0:	852e                	mv	a0,a1
     5a2:	8282                	jr	t0
     5a4:	40b005b3          	neg	a1,a1
     5a8:	fe055be3          	bgez	a0,59e <__modsi3+0xa>
     5ac:	40a00533          	neg	a0,a0
     5b0:	3f51                	jal	544 <__hidden___udivsi3>
     5b2:	40b00533          	neg	a0,a1
     5b6:	8282                	jr	t0
	...

000005ba <mini_pad>:
	if(pad_to == 0) pad_to = len;
     5ba:	c699                	beqz	a3,5c8 <mini_pad+0xe>
	int overflow = 0;
     5bc:	4301                	li	t1,0
	if(len > pad_to) {
     5be:	00b6d763          	bge	a3,a1,5cc <mini_pad+0x12>
		len = pad_to;
     5c2:	85b6                	mv	a1,a3
		overflow = 1;
     5c4:	4305                	li	t1,1
     5c6:	a019                	j	5cc <mini_pad+0x12>
	int overflow = 0;
     5c8:	4301                	li	t1,0
	if(pad_to == 0) pad_to = len;
     5ca:	86ae                	mv	a3,a1
	for(i = pad_to - len; i > 0; i --) {
     5cc:	8e8d                	sub	a3,a3,a1
	char * pbuffer = buffer;
     5ce:	87ba                	mv	a5,a4
     5d0:	00e683b3          	add	t2,a3,a4
	for(i = pad_to - len; i > 0; i --) {
     5d4:	40f382b3          	sub	t0,t2,a5
     5d8:	04504a63          	bgtz	t0,62c <mini_pad+0x72>
     5dc:	fff6c793          	not	a5,a3
     5e0:	87fd                	srai	a5,a5,0x1f
     5e2:	8efd                	and	a3,a3,a5
     5e4:	96ba                	add	a3,a3,a4
     5e6:	4781                	li	a5,0
	for(i = len; i > 0; i --) {
     5e8:	40f58633          	sub	a2,a1,a5
     5ec:	00f682b3          	add	t0,a3,a5
     5f0:	04c04263          	bgtz	a2,634 <mini_pad+0x7a>
     5f4:	fff5c793          	not	a5,a1
     5f8:	87fd                	srai	a5,a5,0x1f
     5fa:	8dfd                	and	a1,a1,a5
     5fc:	95b6                	add	a1,a1,a3
	len = pbuffer - buffer;
     5fe:	40e58533          	sub	a0,a1,a4
	if(overflow) {
     602:	02030463          	beqz	t1,62a <mini_pad+0x70>
		for (i = 0; i < 3 && pbuffer > buffer; i ++) {
     606:	02b77263          	bgeu	a4,a1,62a <mini_pad+0x70>
			*(pbuffer-- - 1) = '*';
     60a:	02a00793          	li	a5,42
     60e:	fef58fa3          	sb	a5,-1(a1)
     612:	fff58693          	addi	a3,a1,-1
		for (i = 0; i < 3 && pbuffer > buffer; i ++) {
     616:	00d77a63          	bgeu	a4,a3,62a <mini_pad+0x70>
			*(pbuffer-- - 1) = '*';
     61a:	fef58f23          	sb	a5,-2(a1)
     61e:	ffe58693          	addi	a3,a1,-2
		for (i = 0; i < 3 && pbuffer > buffer; i ++) {
     622:	00d77463          	bgeu	a4,a3,62a <mini_pad+0x70>
			*(pbuffer-- - 1) = '*';
     626:	fef58ea3          	sb	a5,-3(a1)
}
     62a:	8082                	ret
		*(pbuffer++) = pad_char;
     62c:	0785                	addi	a5,a5,1
     62e:	fec78fa3          	sb	a2,-1(a5)
	for(i = pad_to - len; i > 0; i --) {
     632:	b74d                	j	5d4 <mini_pad+0x1a>
		*(pbuffer++) = *(ptr++);
     634:	00f50633          	add	a2,a0,a5
     638:	00064603          	lbu	a2,0(a2)
     63c:	0785                	addi	a5,a5,1
     63e:	00c28023          	sb	a2,0(t0)
	for(i = len; i > 0; i --) {
     642:	b75d                	j	5e8 <mini_pad+0x2e>

00000644 <_puts>:
{
     644:	832a                	mv	t1,a0
     646:	852e                	mv	a0,a1
	if(!buf) return len;
     648:	ce01                	beqz	a2,660 <_puts+0x1c>
	char * p0 = b->buffer;
     64a:	00062283          	lw	t0,0(a2)
	for (i = 0; i < len; i++) {
     64e:	4701                	li	a4,0
		if(b->pbuffer == b->buffer + b->buffer_len - 1) {
     650:	425c                	lw	a5,4(a2)
	for (i = 0; i < len; i++) {
     652:	00a74863          	blt	a4,a0,662 <_puts+0x1e>
	*(b->pbuffer) = 0;
     656:	00078023          	sb	zero,0(a5)
	return b->pbuffer - p0;
     65a:	4248                	lw	a0,4(a2)
     65c:	40550533          	sub	a0,a0,t0
}
     660:	8082                	ret
		if(b->pbuffer == b->buffer + b->buffer_len - 1) {
     662:	460c                	lw	a1,8(a2)
     664:	4214                	lw	a3,0(a2)
     666:	15fd                	addi	a1,a1,-1
     668:	96ae                	add	a3,a3,a1
     66a:	fed786e3          	beq	a5,a3,656 <_puts+0x12>
		*(b->pbuffer ++) = s[i];
     66e:	00178693          	addi	a3,a5,1
     672:	c254                	sw	a3,4(a2)
     674:	00e306b3          	add	a3,t1,a4
     678:	0006c683          	lbu	a3,0(a3) # 10000 <oled.c.435159ad+0xabaa>
	for (i = 0; i < len; i++) {
     67c:	0705                	addi	a4,a4,1
		*(b->pbuffer ++) = s[i];
     67e:	00d78023          	sb	a3,0(a5)
	for (i = 0; i < len; i++) {
     682:	b7f9                	j	650 <_puts+0xc>

00000684 <PrintHex>:
	while( (*DMDATA0) & 0x80 );
     684:	e00007b7          	lui	a5,0xe0000
     688:	0f478793          	addi	a5,a5,244 # e00000f4 <_eusrstack+0xbffff8f4>
     68c:	4398                	lw	a4,0(a5)
     68e:	08077713          	andi	a4,a4,128
     692:	ff6d                	bnez	a4,68c <PrintHex+0x8>
	*DMDATA0 = 0x78302088; //" 0x"
     694:	78302737          	lui	a4,0x78302
     698:	08870713          	addi	a4,a4,136 # 78302088 <_eusrstack+0x58301888>
		while( (*DMDATA0) & 0x80 );
     69c:	e00006b7          	lui	a3,0xe0000
	*DMDATA0 = 0x78302088; //" 0x"
     6a0:	c398                	sw	a4,0(a5)
		while( (*DMDATA0) & 0x80 );
     6a2:	0f468693          	addi	a3,a3,244 # e00000f4 <_eusrstack+0xbffff8f4>
	for( shift = 28; shift >= 0; shift -= 4 )
     6a6:	4771                	li	a4,28
		s += ( s < 10 ) ? '0' : ('a' - 10);
     6a8:	45a5                	li	a1,9
	for( shift = 28; shift >= 0; shift -= 4 )
     6aa:	5671                	li	a2,-4
		while( (*DMDATA0) & 0x80 );
     6ac:	429c                	lw	a5,0(a3)
     6ae:	0807f793          	andi	a5,a5,128
     6b2:	ffed                	bnez	a5,6ac <PrintHex+0x28>
		int s = (n>>shift) & 0xf;
     6b4:	00e55333          	srl	t1,a0,a4
     6b8:	00f37313          	andi	t1,t1,15
		s += ( s < 10 ) ? '0' : ('a' - 10);
     6bc:	0065b7b3          	sltu	a5,a1,t1
     6c0:	40f007b3          	neg	a5,a5
     6c4:	0277f793          	andi	a5,a5,39
     6c8:	03078793          	addi	a5,a5,48
     6cc:	979a                	add	a5,a5,t1
		*DMDATA0 = 0x85 | (s<<8); //" 0x"
     6ce:	07a2                	slli	a5,a5,0x8
     6d0:	0857e793          	ori	a5,a5,133
     6d4:	c29c                	sw	a5,0(a3)
	for( shift = 28; shift >= 0; shift -= 4 )
     6d6:	1771                	addi	a4,a4,-4
     6d8:	fcc71ae3          	bne	a4,a2,6ac <PrintHex+0x28>
}
     6dc:	8082                	ret

000006de <mini_itoa.part.0>:
int mini_itoa(long value, unsigned int radix, int uppercase, int unsig, char *buffer)
     6de:	1101                	addi	sp,sp,-32
     6e0:	ce06                	sw	ra,28(sp)
     6e2:	cc22                	sw	s0,24(sp)
     6e4:	ca26                	sw	s1,20(sp)
	int	negative = 0;
     6e6:	c002                	sw	zero,0(sp)
int mini_itoa(long value, unsigned int radix, int uppercase, int unsig, char *buffer)
     6e8:	832a                	mv	t1,a0
	if (value < 0 && !unsig) {
     6ea:	00055763          	bgez	a0,6f8 <mini_itoa.part.0+0x1a>
     6ee:	e689                	bnez	a3,6f8 <mini_itoa.part.0+0x1a>
		negative = 1;
     6f0:	4785                	li	a5,1
		value = -value;
     6f2:	40a00333          	neg	t1,a0
		negative = 1;
     6f6:	c03e                	sw	a5,0(sp)
     6f8:	8a05                	andi	a2,a2,1
     6fa:	06100413          	li	s0,97
     6fe:	c219                	beqz	a2,704 <mini_itoa.part.0+0x26>
     700:	04100413          	li	s0,65
	int	negative = 0;
     704:	84ba                	mv	s1,a4
		*(pbuffer++) = (digit < 10 ? '0' + digit : (uppercase ? 'A' : 'a') + digit - 10);
     706:	1459                	addi	s0,s0,-10
		int digit = value % radix;
     708:	851a                	mv	a0,t1
     70a:	c83a                	sw	a4,16(sp)
     70c:	c21a                	sw	t1,4(sp)
     70e:	c62e                	sw	a1,12(sp)
     710:	c41a                	sw	t1,8(sp)
     712:	3db9                	jal	570 <__umodsi3>
		*(pbuffer++) = (digit < 10 ? '0' + digit : (uppercase ? 'A' : 'a') + digit - 10);
     714:	47a5                	li	a5,9
     716:	4322                	lw	t1,8(sp)
     718:	45b2                	lw	a1,12(sp)
     71a:	4742                	lw	a4,16(sp)
     71c:	0ff57693          	zext.b	a3,a0
     720:	06a7e163          	bltu	a5,a0,782 <mini_itoa.part.0+0xa4>
     724:	03068693          	addi	a3,a3,48
     728:	0ff6f693          	zext.b	a3,a3
     72c:	00148793          	addi	a5,s1,1
     730:	00d48023          	sb	a3,0(s1)
		value /= radix;
     734:	851a                	mv	a0,t1
     736:	c83a                	sw	a4,16(sp)
		*(pbuffer++) = (digit < 10 ? '0' + digit : (uppercase ? 'A' : 'a') + digit - 10);
     738:	c63e                	sw	a5,12(sp)
		value /= radix;
     73a:	c42e                	sw	a1,8(sp)
     73c:	3521                	jal	544 <__hidden___udivsi3>
	} while (value > 0);
     73e:	4692                	lw	a3,4(sp)
     740:	45a2                	lw	a1,8(sp)
     742:	47b2                	lw	a5,12(sp)
     744:	4742                	lw	a4,16(sp)
		value /= radix;
     746:	832a                	mv	t1,a0
	} while (value > 0);
     748:	02b6fb63          	bgeu	a3,a1,77e <mini_itoa.part.0+0xa0>
	if (negative)
     74c:	4682                	lw	a3,0(sp)
     74e:	c699                	beqz	a3,75c <mini_itoa.part.0+0x7e>
		*(pbuffer++) = '-';
     750:	02d00693          	li	a3,45
     754:	00d78023          	sb	a3,0(a5)
     758:	00248793          	addi	a5,s1,2
	len = (pbuffer - buffer);
     75c:	40e78533          	sub	a0,a5,a4
	for (i = 0; i < len / 2; i++) {
     760:	01f55693          	srli	a3,a0,0x1f
     764:	96aa                	add	a3,a3,a0
	*(pbuffer) = '\0';
     766:	00078023          	sb	zero,0(a5)
	for (i = 0; i < len / 2; i++) {
     76a:	8685                	srai	a3,a3,0x1
     76c:	4601                	li	a2,0
     76e:	17fd                	addi	a5,a5,-1
     770:	00d64b63          	blt	a2,a3,786 <mini_itoa.part.0+0xa8>
}
     774:	40f2                	lw	ra,28(sp)
     776:	4462                	lw	s0,24(sp)
     778:	44d2                	lw	s1,20(sp)
     77a:	6105                	addi	sp,sp,32
     77c:	8082                	ret
		*(pbuffer++) = (digit < 10 ? '0' + digit : (uppercase ? 'A' : 'a') + digit - 10);
     77e:	84be                	mv	s1,a5
     780:	b761                	j	708 <mini_itoa.part.0+0x2a>
     782:	96a2                	add	a3,a3,s0
     784:	b755                	j	728 <mini_itoa.part.0+0x4a>
		char j = buffer[i];
     786:	00c705b3          	add	a1,a4,a2
		buffer[i] = buffer[len-i-1];
     78a:	0007c283          	lbu	t0,0(a5)
		char j = buffer[i];
     78e:	0005c303          	lbu	t1,0(a1)
	for (i = 0; i < len / 2; i++) {
     792:	0605                	addi	a2,a2,1
		buffer[i] = buffer[len-i-1];
     794:	00558023          	sb	t0,0(a1)
		buffer[len-i-1] = j;
     798:	00678023          	sb	t1,0(a5)
	for (i = 0; i < len / 2; i++) {
     79c:	bfc9                	j	76e <mini_itoa.part.0+0x90>

0000079e <gpio_set_mode>:
	
	// Make array of uint8_t from [pin] enum. See definition for details
	uint8_t *byte = (uint8_t *)&pin;
	
	// Set the RCC Register to enable clock on the specified port
	GPIO_RCC->APB2PCENR |= (RCC_APB2PCENR_AFIO | (RCC_APB2PCENR_IOPxEN << byte[0]));
     79e:	400216b7          	lui	a3,0x40021
     7a2:	4e90                	lw	a2,24(a3)
     7a4:	4791                	li	a5,4
     7a6:	00a797b3          	sll	a5,a5,a0
     7aa:	8fd1                	or	a5,a5,a2
     7ac:	0017e793          	ori	a5,a5,1
     7b0:	ce9c                	sw	a5,24(a3)
     7b2:	0ff57713          	zext.b	a4,a0

	// Clear then set the GPIO Config Register
	GPIO_PORT_MAP[ byte[0] ]->CFGLR &=        ~(0x0F  << (4 * byte[1]));
     7b6:	6789                	lui	a5,0x2
     7b8:	070a                	slli	a4,a4,0x2
     7ba:	9e878793          	addi	a5,a5,-1560 # 19e8 <GPIO_PORT_MAP>
     7be:	97ba                	add	a5,a5,a4
     7c0:	4398                	lw	a4,0(a5)
     7c2:	8121                	srli	a0,a0,0x8
     7c4:	0ff57513          	zext.b	a0,a0
     7c8:	4310                	lw	a2,0(a4)
     7ca:	00251693          	slli	a3,a0,0x2
     7ce:	47bd                	li	a5,15
     7d0:	00d797b3          	sll	a5,a5,a3
     7d4:	fff7c793          	not	a5,a5
     7d8:	8ff1                	and	a5,a5,a2
     7da:	c31c                	sw	a5,0(a4)
	GPIO_PORT_MAP[ byte[0] ]->CFGLR |=  (mode & 0x0F) << (4 * byte[1]);
     7dc:	4310                	lw	a2,0(a4)
     7de:	00f5f793          	andi	a5,a1,15
     7e2:	00d797b3          	sll	a5,a5,a3
     7e6:	8fd1                	or	a5,a5,a2
     7e8:	c31c                	sw	a5,0(a4)

	// If [mode] is INPUT_PULLUP or INPUT_PULLDOWN, set the [OUTDR] Register
	if(mode == INPUT_PULLUP || mode == INPUT_PULLDOWN)
     7ea:	47e1                	li	a5,24
     7ec:	00f59663          	bne	a1,a5,7f8 <gpio_set_mode+0x5a>
inline void gpio_digital_write(const GPIO_PIN pin, const GPIO_STATE state)
{
	// Make array of uint8_t from [pin] enum. See definition for details
	uint8_t *byte = (uint8_t *)&pin;

	uint32_t mask = 0x01 << byte[1];          // Shift by pin number
     7f0:	4785                	li	a5,1
     7f2:	00a797b3          	sll	a5,a5,a0
	if(state == GPIO_LOW) mask = mask << 16;  // Shift by 16 if LOW, to Reset

	GPIO_PORT_MAP[ byte[0] ]->BSHR = mask;
     7f6:	cb1c                	sw	a5,16(a4)
}
     7f8:	8082                	ret

000007fa <i2c_error>:
/// the bit flags
/// @param none
/// @return i2c_err_t error value
static inline i2c_err_t i2c_error(void)
{
	if(I2C1->STAR1 & I2C_STAR1_BERR)  {I2C1->STAR1 &= ~I2C_STAR1_BERR;  return I2C_ERR_BERR;}
     7fa:	400057b7          	lui	a5,0x40005
     7fe:	4147d703          	lhu	a4,1044(a5) # 40005414 <_eusrstack+0x20004c14>
     802:	40078793          	addi	a5,a5,1024
     806:	10077713          	andi	a4,a4,256
     80a:	cb19                	beqz	a4,820 <i2c_error+0x26>
     80c:	0147d703          	lhu	a4,20(a5)
     810:	66c1                	lui	a3,0x10
     812:	eff68693          	addi	a3,a3,-257 # feff <oled.c.435159ad+0xaaa9>
     816:	8f75                	and	a4,a4,a3
     818:	00e79a23          	sh	a4,20(a5)
     81c:	4505                	li	a0,1
     81e:	8082                	ret
	if(I2C1->STAR1 & I2C_STAR1_AF)    {I2C1->STAR1 &= ~I2C_STAR1_AF;    return I2C_ERR_NACK;}
     820:	0147d703          	lhu	a4,20(a5)
     824:	40077713          	andi	a4,a4,1024
     828:	cb19                	beqz	a4,83e <i2c_error+0x44>
     82a:	0147d703          	lhu	a4,20(a5)
     82e:	66c1                	lui	a3,0x10
     830:	bff68693          	addi	a3,a3,-1025 # fbff <oled.c.435159ad+0xa7a9>
     834:	8f75                	and	a4,a4,a3
     836:	00e79a23          	sh	a4,20(a5)
     83a:	4509                	li	a0,2
     83c:	8082                	ret
	if(I2C1->STAR1 & I2C_STAR1_ARLO)  {I2C1->STAR1 &= ~I2C_STAR1_ARLO;  return I2C_ERR_ARLO;}
     83e:	0147d703          	lhu	a4,20(a5)
     842:	20077713          	andi	a4,a4,512
     846:	cb19                	beqz	a4,85c <i2c_error+0x62>
     848:	0147d703          	lhu	a4,20(a5)
     84c:	66c1                	lui	a3,0x10
     84e:	dff68693          	addi	a3,a3,-513 # fdff <oled.c.435159ad+0xa9a9>
     852:	8f75                	and	a4,a4,a3
     854:	00e79a23          	sh	a4,20(a5)
     858:	450d                	li	a0,3
     85a:	8082                	ret
	if(I2C1->STAR1 & I2C_STAR1_OVR)   {I2C1->STAR1 &= ~I2C_STAR1_OVR;   return I2C_ERR_OVR;}
     85c:	0147d703          	lhu	a4,20(a5)

	return I2C_OK;
     860:	4501                	li	a0,0
	if(I2C1->STAR1 & I2C_STAR1_OVR)   {I2C1->STAR1 &= ~I2C_STAR1_OVR;   return I2C_ERR_OVR;}
     862:	01471693          	slli	a3,a4,0x14
     866:	0006db63          	bgez	a3,87c <i2c_error+0x82>
     86a:	0147d703          	lhu	a4,20(a5)
     86e:	76fd                	lui	a3,0xfffff
     870:	7ff68693          	addi	a3,a3,2047 # fffff7ff <_eusrstack+0xdfffefff>
     874:	8f75                	and	a4,a4,a3
     876:	00e79a23          	sh	a4,20(a5)
     87a:	4511                	li	a0,4
}
     87c:	8082                	ret

0000087e <gpio_set_opamp_inputs.constprop.0>:
		(GPIO_EXTEN->EXTEN_CTR & ~GPIO_EXTEN_OPA_PSEL) |
     87e:	400247b7          	lui	a5,0x40024
     882:	80078793          	addi	a5,a5,-2048 # 40023800 <_eusrstack+0x20023000>
     886:	4398                	lw	a4,0(a5)
     888:	fffc06b7          	lui	a3,0xfffc0
     88c:	16fd                	addi	a3,a3,-1 # fffbffff <_eusrstack+0xdffbf7ff>
     88e:	8f75                	and	a4,a4,a3
		((pos == GPIO_OPAMP_CH2_POS) ? GPIO_EXTEN_OPA_PSEL : 0);
     890:	054a                	slli	a0,a0,0x12
		(GPIO_EXTEN->EXTEN_CTR & ~GPIO_EXTEN_OPA_PSEL) |
     892:	8f49                	or	a4,a4,a0
	GPIO_EXTEN->EXTEN_CTR =
     894:	c398                	sw	a4,0(a5)
		(GPIO_EXTEN->EXTEN_CTR & ~GPIO_EXTEN_OPA_NSEL) |
     896:	4398                	lw	a4,0(a5)
     898:	7681                	lui	a3,0xfffe0
     89a:	16fd                	addi	a3,a3,-1 # fffdffff <_eusrstack+0xdffdf7ff>
     89c:	8f75                	and	a4,a4,a3
	GPIO_EXTEN->EXTEN_CTR =
     89e:	c398                	sw	a4,0(a5)
}
     8a0:	8082                	ret

000008a2 <DelaySysTick.constprop.0>:
#endif

void DelaySysTick( uint32_t n )
{
#if defined(CH32V003) || defined(CH32V00x)
	uint32_t targend = SysTick->CNT + n;
     8a2:	e000f6b7          	lui	a3,0xe000f
     8a6:	4698                	lw	a4,8(a3)
     8a8:	016e37b7          	lui	a5,0x16e3
     8ac:	60078793          	addi	a5,a5,1536 # 16e3600 <oled.c.435159ad+0x16de1aa>
     8b0:	973e                	add	a4,a4,a5
	while( ((int32_t)( SysTick->CNT - targend )) < 0 );
     8b2:	469c                	lw	a5,8(a3)
     8b4:	8f99                	sub	a5,a5,a4
     8b6:	fe07cee3          	bltz	a5,8b2 <DelaySysTick.constprop.0+0x10>
	uint64_t targend = SysTick->CNT - n;
	while( ((int64_t)( SysTick->CNT - targend )) > 0 );
#else
	#error DelaySysTick not defined.
#endif
}
     8ba:	8082                	ret

000008bc <internal_handle_input.constprop.0>:
	uint32_t dmd0 = *dmdata0;
     8bc:	e00007b7          	lui	a5,0xe0000
     8c0:	0f47a783          	lw	a5,244(a5) # e00000f4 <_eusrstack+0xbffff8f4>
}
     8c4:	8082                	ret

000008c6 <_write.constprop.0>:
	if( ( *DMDATA0 & 0xc0 ) == 0xc0 ) return 0;
     8c6:	e00007b7          	lui	a5,0xe0000
     8ca:	0f478793          	addi	a5,a5,244 # e00000f4 <_eusrstack+0xbffff8f4>
     8ce:	4398                	lw	a4,0(a5)
WEAK int _write(int fd, const char *buf, int size)
     8d0:	1121                	addi	sp,sp,-24
     8d2:	ca06                	sw	ra,20(sp)
     8d4:	c822                	sw	s0,16(sp)
     8d6:	c626                	sw	s1,12(sp)
	if( ( *DMDATA0 & 0xc0 ) == 0xc0 ) return 0;
     8d8:	0c077713          	andi	a4,a4,192
     8dc:	0c000693          	li	a3,192
     8e0:	00d70b63          	beq	a4,a3,8f6 <_write.constprop.0+0x30>
	char buffer[4] = { 0 };
     8e4:	c402                	sw	zero,8(sp)
     8e6:	842e                	mv	s0,a1
	if( size == 0 )
     8e8:	eddd                	bnez	a1,9a6 <_write.constprop.0+0xe0>
		lastdmd = (*DMDATA0);
     8ea:	439c                	lw	a5,0(a5)
		if( lastdmd && !(lastdmd&0x80) ) internal_handle_input( (uint32_t*)DMDATA0 );
     8ec:	c789                	beqz	a5,8f6 <_write.constprop.0+0x30>
     8ee:	0807f793          	andi	a5,a5,128
     8f2:	e391                	bnez	a5,8f6 <_write.constprop.0+0x30>
     8f4:	37e1                	jal	8bc <internal_handle_input.constprop.0>
	if( ( *DMDATA0 & 0xc0 ) == 0xc0 ) return 0;
     8f6:	4401                	li	s0,0
}
     8f8:	40d2                	lw	ra,20(sp)
     8fa:	8522                	mv	a0,s0
     8fc:	4442                	lw	s0,16(sp)
     8fe:	44b2                	lw	s1,12(sp)
     900:	0161                	addi	sp,sp,24
     902:	8082                	ret
		int tosend = size - place;
     904:	409407b3          	sub	a5,s0,s1
		if( tosend > 7 ) tosend = 7;
     908:	471d                	li	a4,7
     90a:	00f75363          	bge	a4,a5,910 <_write.constprop.0+0x4a>
     90e:	87ba                	mv	a5,a4
     910:	001006b7          	lui	a3,0x100
		while( ( lastdmd = (*DMDATA0) ) & 0x80 )
     914:	e0000737          	lui	a4,0xe0000
		if( tosend > 7 ) tosend = 7;
     918:	0685                	addi	a3,a3,1 # 100001 <oled.c.435159ad+0xfabab>
		while( ( lastdmd = (*DMDATA0) ) & 0x80 )
     91a:	0f470713          	addi	a4,a4,244 # e00000f4 <_eusrstack+0xbffff8f4>
     91e:	4310                	lw	a2,0(a4)
     920:	08067593          	andi	a1,a2,128
     924:	e1a5                	bnez	a1,984 <_write.constprop.0+0xbe>
		if( lastdmd ) internal_handle_input( (uint32_t*)DMDATA0 );
     926:	c611                	beqz	a2,932 <_write.constprop.0+0x6c>
     928:	c22a                	sw	a0,4(sp)
     92a:	c03e                	sw	a5,0(sp)
     92c:	3f41                	jal	8bc <internal_handle_input.constprop.0>
     92e:	4512                	lw	a0,4(sp)
     930:	4782                	lw	a5,0(sp)
     932:	0034                	addi	a3,sp,8
		if( tosend > 7 ) tosend = 7;
     934:	470d                	li	a4,3
     936:	85b6                	mv	a1,a3
		while( t < tosend )
     938:	04f74d63          	blt	a4,a5,992 <_write.constprop.0+0xcc>
		*DMDATA1 = *(uint32_t*)&(buffer[0]);
     93c:	46a2                	lw	a3,8(sp)
     93e:	e0000737          	lui	a4,0xe0000
		while( t < tosend && t < 3 )
     942:	460d                	li	a2,3
		*DMDATA1 = *(uint32_t*)&(buffer[0]);
     944:	0ed72c23          	sw	a3,248(a4) # e00000f8 <_eusrstack+0xbffff8f8>
     948:	009506b3          	add	a3,a0,s1
		t = 0;
     94c:	4701                	li	a4,0
			buffer[t+1] = buf[t+place];
     94e:	0006c283          	lbu	t0,0(a3)
     952:	0705                	addi	a4,a4,1
     954:	00e58333          	add	t1,a1,a4
     958:	00530023          	sb	t0,0(t1)
		while( t < tosend && t < 3 )
     95c:	00e78563          	beq	a5,a4,966 <_write.constprop.0+0xa0>
     960:	0685                	addi	a3,a3,1
     962:	fec716e3          	bne	a4,a2,94e <_write.constprop.0+0x88>
		buffer[0] = 0x80 | (tosend + 4);
     966:	00478713          	addi	a4,a5,4
     96a:	f8076713          	ori	a4,a4,-128
     96e:	00e10423          	sb	a4,8(sp)
		*DMDATA0 = *(uint32_t*)&(buffer[0]);
     972:	46a2                	lw	a3,8(sp)
     974:	e0000737          	lui	a4,0xe0000
		place += tosend;
     978:	94be                	add	s1,s1,a5
		*DMDATA0 = *(uint32_t*)&(buffer[0]);
     97a:	0ed72a23          	sw	a3,244(a4) # e00000f4 <_eusrstack+0xbffff8f4>
	while( place < size )
     97e:	f884c3e3          	blt	s1,s0,904 <_write.constprop.0+0x3e>
     982:	bf9d                	j	8f8 <_write.constprop.0+0x32>
			if( timeout-- == 0 )
     984:	16fd                	addi	a3,a3,-1
     986:	fec1                	bnez	a3,91e <_write.constprop.0+0x58>
				*DMDATA0 |= 0xc0;
     988:	431c                	lw	a5,0(a4)
     98a:	0c07e793          	ori	a5,a5,192
     98e:	c31c                	sw	a5,0(a4)
				return 0;
     990:	b79d                	j	8f6 <_write.constprop.0+0x30>
			buffer[t-3] = buf[t+place];
     992:	00e48633          	add	a2,s1,a4
     996:	962a                	add	a2,a2,a0
     998:	00064603          	lbu	a2,0(a2)
			t++;
     99c:	0705                	addi	a4,a4,1
     99e:	0685                	addi	a3,a3,1
			buffer[t-3] = buf[t+place];
     9a0:	fec68fa3          	sb	a2,-1(a3)
     9a4:	bf51                	j	938 <_write.constprop.0+0x72>
     9a6:	4481                	li	s1,0
     9a8:	bfd9                	j	97e <_write.constprop.0+0xb8>

000009aa <__puts_uart>:
{
     9aa:	1161                	addi	sp,sp,-8
     9ac:	c022                	sw	s0,0(sp)
     9ae:	c206                	sw	ra,4(sp)
     9b0:	842e                	mv	s0,a1
	_write( 0, s, len );
     9b2:	3f11                	jal	8c6 <_write.constprop.0>
}
     9b4:	4092                	lw	ra,4(sp)
     9b6:	8522                	mv	a0,s0
     9b8:	4402                	lw	s0,0(sp)
     9ba:	0121                	addi	sp,sp,8
     9bc:	8082                	ret

000009be <i2c_write_reg>:


i2c_err_t i2c_write_reg(const i2c_device_t *dev,    const uint32_t reg,
                                                    const uint8_t *buf,
                                                    const size_t len)
{
     9be:	1101                	addi	sp,sp,-32
     9c0:	cc22                	sw	s0,24(sp)
	I2C_TIMEOUT_WAIT_FOR((I2C1->STAR2 & I2C_STAR2_BUSY), i2c_ret);
     9c2:	c181a403          	lw	s0,-1000(gp) # 20000014 <_i2c_timeout>
     9c6:	400057b7          	lui	a5,0x40005
{
     9ca:	ca26                	sw	s1,20(sp)
     9cc:	c232                	sw	a2,4(sp)
     9ce:	ce06                	sw	ra,28(sp)
     9d0:	84aa                	mv	s1,a0
     9d2:	c02e                	sw	a1,0(sp)
     9d4:	c436                	sw	a3,8(sp)
	I2C_TIMEOUT_WAIT_FOR((I2C1->STAR2 & I2C_STAR2_BUSY), i2c_ret);
     9d6:	8622                	mv	a2,s0
     9d8:	40078793          	addi	a5,a5,1024 # 40005400 <_eusrstack+0x20004c00>
     9dc:	0187d683          	lhu	a3,24(a5)
     9e0:	8a89                	andi	a3,a3,2
     9e2:	e6c1                	bnez	a3,a6a <i2c_write_reg+0xac>
	I2C1->CTLR1 |= I2C_CTLR1_START;
     9e4:	0007d683          	lhu	a3,0(a5)
	return (status & status_mask) == status_mask; 
     9e8:	00030637          	lui	a2,0x30
     9ec:	0605                	addi	a2,a2,1 # 30001 <oled.c.435159ad+0x2abab>
	I2C1->CTLR1 |= I2C_CTLR1_START;
     9ee:	1006e693          	ori	a3,a3,256
     9f2:	00d79023          	sh	a3,0(a5)
	uint32_t status = (uint32_t)I2C1->STAR1 | (uint32_t)(I2C1->STAR2 << 16);
     9f6:	400056b7          	lui	a3,0x40005
     9fa:	40068693          	addi	a3,a3,1024 # 40005400 <_eusrstack+0x20004c00>
     9fe:	0146d583          	lhu	a1,20(a3)
     a02:	0186d783          	lhu	a5,24(a3)
     a06:	07c2                	slli	a5,a5,0x10
     a08:	8fcd                	or	a5,a5,a1
	return (status & status_mask) == status_mask; 
     a0a:	8ff1                	and	a5,a5,a2
	while(!i2c_status(I2C_EVENT_MASTER_MODE_SELECT));
     a0c:	fec799e3          	bne	a5,a2,9fe <i2c_write_reg+0x40>
	if(dev->type == I2C_ADDR_7BIT)
     a10:	40dc                	lw	a5,4(s1)
     a12:	c7ad                	beqz	a5,a7c <i2c_write_reg+0xbe>
	if(dev->type == I2C_ADDR_10BIT)
     a14:	4605                	li	a2,1
     a16:	0ac78163          	beq	a5,a2,ab8 <i2c_write_reg+0xfa>
	if(i2c_ret == I2C_OK) { i2c_start(); i2c_ret = i2c_send_addr(I2C_WRITE, dev); }

	// Send the register byte/s - MSBFirst
	if(i2c_ret == I2C_OK)
	{
		for(int8_t b = dev->regb - 1; b >= 0; b--)
     a1a:	00a4c783          	lbu	a5,10(s1)
     a1e:	17fd                	addi	a5,a5,-1
     a20:	07e2                	slli	a5,a5,0x18
     a22:	87e1                	srai	a5,a5,0x18
     a24:	00379693          	slli	a3,a5,0x3
     a28:	1407d163          	bgez	a5,b6a <i2c_write_reg+0x1ac>
			if(i2c_ret != I2C_OK || (i2c_ret = i2c_error()) != I2C_OK) break;
		}
	}

	// Write the data
	if(i2c_ret == I2C_OK)
     a2c:	4792                	lw	a5,4(sp)
     a2e:	4722                	lw	a4,8(sp)
     a30:	00e784b3          	add	s1,a5,a4
	{
		uint8_t cbyte = 0;
		while(cbyte < len)
		{
			// Write the byte and wait for it to finish transmitting
			I2C_TIMEOUT_WAIT_FOR(!(I2C1->STAR1 & I2C_STAR1_TXE), i2c_ret);
     a34:	400056b7          	lui	a3,0x40005
     a38:	8622                	mv	a2,s0
     a3a:	40068693          	addi	a3,a3,1024 # 40005400 <_eusrstack+0x20004c00>
     a3e:	0146d703          	lhu	a4,20(a3)
     a42:	08077713          	andi	a4,a4,128
     a46:	16070463          	beqz	a4,bae <i2c_write_reg+0x1f0>
     a4a:	4501                	li	a0,0
			//while(!(I2C1->STAR1 & I2C_STAR1_TXE));
			I2C1->DATAR = buf[cbyte];
     a4c:	0007c683          	lbu	a3,0(a5)
     a50:	c03e                	sw	a5,0(sp)
     a52:	40005737          	lui	a4,0x40005
     a56:	40d71823          	sh	a3,1040(a4) # 40005410 <_eusrstack+0x20004c10>
			++cbyte;

			// Make sure no errors occured for this byte
			if(i2c_ret != I2C_OK || (i2c_ret = i2c_error()) != I2C_OK) break;
     a5a:	ed5d                	bnez	a0,b18 <i2c_write_reg+0x15a>
     a5c:	3b79                	jal	7fa <i2c_error>
     a5e:	ed4d                	bnez	a0,b18 <i2c_write_reg+0x15a>
		while(cbyte < len)
     a60:	4782                	lw	a5,0(sp)
     a62:	0785                	addi	a5,a5,1
     a64:	fcf498e3          	bne	s1,a5,a34 <i2c_write_reg+0x76>
     a68:	a845                	j	b18 <i2c_write_reg+0x15a>
	I2C_TIMEOUT_WAIT_FOR((I2C1->STAR2 & I2C_STAR2_BUSY), i2c_ret);
     a6a:	fff60693          	addi	a3,a2,-1
     a6e:	e609                	bnez	a2,a78 <i2c_write_reg+0xba>
	i2c_err_t i2c_err = i2c_error();
     a70:	3369                	jal	7fa <i2c_error>
	if(i2c_err == I2C_OK) i2c_err = I2C_ERR_BUSY;
     a72:	e15d                	bnez	a0,b18 <i2c_write_reg+0x15a>
     a74:	4515                	li	a0,5
     a76:	a04d                	j	b18 <i2c_write_reg+0x15a>
	I2C_TIMEOUT_WAIT_FOR((I2C1->STAR2 & I2C_STAR2_BUSY), i2c_ret);
     a78:	8636                	mv	a2,a3
     a7a:	b78d                	j	9dc <i2c_write_reg+0x1e>
		uint8_t addr_7b = (dev->addr << 1);
     a7c:	0084d783          	lhu	a5,8(s1)
	uint32_t status = (uint32_t)I2C1->STAR1 | (uint32_t)(I2C1->STAR2 << 16);
     a80:	40005637          	lui	a2,0x40005
			I2C_TIMEOUT_WAIT_FOR(!i2c_status(I2C_EVENT_MASTER_TRANSMITTER_MODE_SELECTED), i2c_ret);
     a84:	85a2                	mv	a1,s0
		uint8_t addr_7b = (dev->addr << 1);
     a86:	0786                	slli	a5,a5,0x1
			I2C1->DATAR = addr_7b & 0xFE;
     a88:	0ff7f793          	zext.b	a5,a5
     a8c:	00f69823          	sh	a5,16(a3)
	return (status & status_mask) == status_mask; 
     a90:	000706b7          	lui	a3,0x70
	uint32_t status = (uint32_t)I2C1->STAR1 | (uint32_t)(I2C1->STAR2 << 16);
     a94:	40060613          	addi	a2,a2,1024 # 40005400 <_eusrstack+0x20004c00>
	return (status & status_mask) == status_mask; 
     a98:	08268693          	addi	a3,a3,130 # 70082 <oled.c.435159ad+0x6ac2c>
	uint32_t status = (uint32_t)I2C1->STAR1 | (uint32_t)(I2C1->STAR2 << 16);
     a9c:	01465503          	lhu	a0,20(a2)
     aa0:	01865783          	lhu	a5,24(a2)
     aa4:	07c2                	slli	a5,a5,0x10
     aa6:	8fc9                	or	a5,a5,a0
	return (status & status_mask) == status_mask; 
     aa8:	8ff5                	and	a5,a5,a3
			I2C_TIMEOUT_WAIT_FOR(!i2c_status(I2C_EVENT_MASTER_TRANSMITTER_MODE_SELECTED), i2c_ret);
     aaa:	f6d788e3          	beq	a5,a3,a1a <i2c_write_reg+0x5c>
     aae:	fff58793          	addi	a5,a1,-1
     ab2:	dddd                	beqz	a1,a70 <i2c_write_reg+0xb2>
     ab4:	85be                	mv	a1,a5
     ab6:	b7dd                	j	a9c <i2c_write_reg+0xde>
		uint8_t addr_10b_u = 0xF0 | ((dev->addr >> 7) & 0x06);
     ab8:	0084d603          	lhu	a2,8(s1)
			I2C_TIMEOUT_WAIT_FOR(!(I2C1->STAR1 & I2C_STAR1_ADD10), i2c_ret);
     abc:	85a2                	mv	a1,s0
		uint8_t addr_10b_u = 0xF0 | ((dev->addr >> 7) & 0x06);
     abe:	00765793          	srli	a5,a2,0x7
     ac2:	8b99                	andi	a5,a5,6
			I2C1->DATAR = addr_10b_u;
     ac4:	0f07e793          	ori	a5,a5,240
     ac8:	00f69823          	sh	a5,16(a3)
			I2C_TIMEOUT_WAIT_FOR(!(I2C1->STAR1 & I2C_STAR1_ADD10), i2c_ret);
     acc:	400057b7          	lui	a5,0x40005
     ad0:	40078793          	addi	a5,a5,1024 # 40005400 <_eusrstack+0x20004c00>
     ad4:	0147d683          	lhu	a3,20(a5)
     ad8:	8aa1                	andi	a3,a3,8
     ada:	cead                	beqz	a3,b54 <i2c_write_reg+0x196>
     adc:	c632                	sw	a2,12(sp)
			if(i2c_ret != I2C_OK || (i2c_ret = i2c_error()) != I2C_OK) return i2c_ret;
     ade:	3b31                	jal	7fa <i2c_error>
     ae0:	ed05                	bnez	a0,b18 <i2c_write_reg+0x15a>
     ae2:	4632                	lw	a2,12(sp)
			I2C1->DATAR = addr_10b_l;
     ae4:	400057b7          	lui	a5,0x40005
     ae8:	40078793          	addi	a5,a5,1024 # 40005400 <_eusrstack+0x20004c00>
     aec:	0ff67613          	zext.b	a2,a2
	return (status & status_mask) == status_mask; 
     af0:	000706b7          	lui	a3,0x70
			I2C1->DATAR = addr_10b_l;
     af4:	00c79823          	sh	a2,16(a5)
			I2C_TIMEOUT_WAIT_FOR(!i2c_status(I2C_EVENT_MASTER_TRANSMITTER_MODE_SELECTED), i2c_ret);
     af8:	85a2                	mv	a1,s0
	uint32_t status = (uint32_t)I2C1->STAR1 | (uint32_t)(I2C1->STAR2 << 16);
     afa:	863e                	mv	a2,a5
	return (status & status_mask) == status_mask; 
     afc:	08268693          	addi	a3,a3,130 # 70082 <oled.c.435159ad+0x6ac2c>
	uint32_t status = (uint32_t)I2C1->STAR1 | (uint32_t)(I2C1->STAR2 << 16);
     b00:	01465503          	lhu	a0,20(a2)
     b04:	01865783          	lhu	a5,24(a2)
     b08:	07c2                	slli	a5,a5,0x10
     b0a:	8fc9                	or	a5,a5,a0
	return (status & status_mask) == status_mask; 
     b0c:	8ff5                	and	a5,a5,a3
			I2C_TIMEOUT_WAIT_FOR(!i2c_status(I2C_EVENT_MASTER_TRANSMITTER_MODE_SELECTED), i2c_ret);
     b0e:	04d79863          	bne	a5,a3,b5e <i2c_write_reg+0x1a0>
			if(i2c_ret != I2C_OK || (i2c_ret = i2c_error()) != I2C_OK) return i2c_ret;
     b12:	31e5                	jal	7fa <i2c_error>
     b14:	f00503e3          	beqz	a0,a1a <i2c_write_reg+0x5c>
	uint32_t status = (uint32_t)I2C1->STAR1 | (uint32_t)(I2C1->STAR2 << 16);
     b18:	400056b7          	lui	a3,0x40005
	return (status & status_mask) == status_mask; 
     b1c:	00070737          	lui	a4,0x70
	uint32_t status = (uint32_t)I2C1->STAR1 | (uint32_t)(I2C1->STAR2 << 16);
     b20:	40068693          	addi	a3,a3,1024 # 40005400 <_eusrstack+0x20004c00>
	return (status & status_mask) == status_mask; 
     b24:	08470713          	addi	a4,a4,132 # 70084 <oled.c.435159ad+0x6ac2e>
	uint32_t status = (uint32_t)I2C1->STAR1 | (uint32_t)(I2C1->STAR2 << 16);
     b28:	0146d603          	lhu	a2,20(a3)
     b2c:	0186d783          	lhu	a5,24(a3)
     b30:	07c2                	slli	a5,a5,0x10
     b32:	8fd1                	or	a5,a5,a2
	return (status & status_mask) == status_mask; 
     b34:	8ff9                	and	a5,a5,a4
		}
	}

	// Wait for the bus to finish transmitting
	I2C_TIMEOUT_WAIT_FOR(!i2c_status(I2C_EVENT_MASTER_BYTE_TRANSMITTED), i2c_ret);
     b36:	08e79863          	bne	a5,a4,bc6 <i2c_write_reg+0x208>
	I2C1->CTLR1 |= I2C_CTLR1_STOP;
     b3a:	400057b7          	lui	a5,0x40005
     b3e:	4007d703          	lhu	a4,1024(a5) # 40005400 <_eusrstack+0x20004c00>
	// Signal a STOP
	i2c_stop();

	return i2c_ret;
}
     b42:	40f2                	lw	ra,28(sp)
     b44:	4462                	lw	s0,24(sp)
	I2C1->CTLR1 |= I2C_CTLR1_STOP;
     b46:	20076713          	ori	a4,a4,512
     b4a:	40e79023          	sh	a4,1024(a5)
}
     b4e:	44d2                	lw	s1,20(sp)
     b50:	6105                	addi	sp,sp,32
     b52:	8082                	ret
			I2C_TIMEOUT_WAIT_FOR(!(I2C1->STAR1 & I2C_STAR1_ADD10), i2c_ret);
     b54:	fff58693          	addi	a3,a1,-1
     b58:	dd81                	beqz	a1,a70 <i2c_write_reg+0xb2>
     b5a:	85b6                	mv	a1,a3
     b5c:	bfa5                	j	ad4 <i2c_write_reg+0x116>
			I2C_TIMEOUT_WAIT_FOR(!i2c_status(I2C_EVENT_MASTER_TRANSMITTER_MODE_SELECTED), i2c_ret);
     b5e:	fff58793          	addi	a5,a1,-1
     b62:	f00587e3          	beqz	a1,a70 <i2c_write_reg+0xb2>
     b66:	85be                	mv	a1,a5
     b68:	bf61                	j	b00 <i2c_write_reg+0x142>
			uint8_t reg_byte = (reg >> (8 * b)) & 0xFF;
     b6a:	4702                	lw	a4,0(sp)
			I2C_TIMEOUT_WAIT_FOR(!(I2C1->STAR1 & I2C_STAR1_TXE), i2c_ret);
     b6c:	85a2                	mv	a1,s0
			uint8_t reg_byte = (reg >> (8 * b)) & 0xFF;
     b6e:	00d75633          	srl	a2,a4,a3
			I2C1->DATAR = reg_byte;
     b72:	0642                	slli	a2,a2,0x10
     b74:	40005737          	lui	a4,0x40005
     b78:	8241                	srli	a2,a2,0x10
     b7a:	40070713          	addi	a4,a4,1024 # 40005400 <_eusrstack+0x20004c00>
     b7e:	00c71823          	sh	a2,16(a4)
			I2C_TIMEOUT_WAIT_FOR(!(I2C1->STAR1 & I2C_STAR1_TXE), i2c_ret);
     b82:	01475603          	lhu	a2,20(a4)
     b86:	08067613          	andi	a2,a2,128
     b8a:	ce01                	beqz	a2,ba2 <i2c_write_reg+0x1e4>
     b8c:	c836                	sw	a3,16(sp)
     b8e:	c63e                	sw	a5,12(sp)
			if(i2c_ret != I2C_OK || (i2c_ret = i2c_error()) != I2C_OK) break;
     b90:	31ad                	jal	7fa <i2c_error>
     b92:	46c2                	lw	a3,16(sp)
     b94:	16e1                	addi	a3,a3,-8
     b96:	f149                	bnez	a0,b18 <i2c_write_reg+0x15a>
		for(int8_t b = dev->regb - 1; b >= 0; b--)
     b98:	47b2                	lw	a5,12(sp)
     b9a:	17fd                	addi	a5,a5,-1
     b9c:	07e2                	slli	a5,a5,0x18
     b9e:	87e1                	srai	a5,a5,0x18
     ba0:	b561                	j	a28 <i2c_write_reg+0x6a>
			I2C_TIMEOUT_WAIT_FOR(!(I2C1->STAR1 & I2C_STAR1_TXE), i2c_ret);
     ba2:	fff58613          	addi	a2,a1,-1
     ba6:	ec0585e3          	beqz	a1,a70 <i2c_write_reg+0xb2>
     baa:	85b2                	mv	a1,a2
     bac:	bfd9                	j	b82 <i2c_write_reg+0x1c4>
			I2C_TIMEOUT_WAIT_FOR(!(I2C1->STAR1 & I2C_STAR1_TXE), i2c_ret);
     bae:	fff60713          	addi	a4,a2,-1
     bb2:	ea01                	bnez	a2,bc2 <i2c_write_reg+0x204>
     bb4:	c03e                	sw	a5,0(sp)
	i2c_err_t i2c_err = i2c_error();
     bb6:	3191                	jal	7fa <i2c_error>
	if(i2c_err == I2C_OK) i2c_err = I2C_ERR_BUSY;
     bb8:	4782                	lw	a5,0(sp)
     bba:	e80519e3          	bnez	a0,a4c <i2c_write_reg+0x8e>
     bbe:	4515                	li	a0,5
     bc0:	b571                	j	a4c <i2c_write_reg+0x8e>
			I2C_TIMEOUT_WAIT_FOR(!(I2C1->STAR1 & I2C_STAR1_TXE), i2c_ret);
     bc2:	863a                	mv	a2,a4
     bc4:	bdad                	j	a3e <i2c_write_reg+0x80>
	I2C_TIMEOUT_WAIT_FOR(!i2c_status(I2C_EVENT_MASTER_BYTE_TRANSMITTED), i2c_ret);
     bc6:	fff40793          	addi	a5,s0,-1
     bca:	e409                	bnez	s0,bd4 <i2c_write_reg+0x216>
	i2c_err_t i2c_err = i2c_error();
     bcc:	313d                	jal	7fa <i2c_error>
	if(i2c_err == I2C_OK) i2c_err = I2C_ERR_BUSY;
     bce:	f535                	bnez	a0,b3a <i2c_write_reg+0x17c>
     bd0:	4515                	li	a0,5
     bd2:	b7a5                	j	b3a <i2c_write_reg+0x17c>
	I2C_TIMEOUT_WAIT_FOR(!i2c_status(I2C_EVENT_MASTER_BYTE_TRANSMITTED), i2c_ret);
     bd4:	843e                	mv	s0,a5
     bd6:	bf89                	j	b28 <i2c_write_reg+0x16a>

00000bd8 <handle_reset>:
	asm volatile( "\n\
     bd8:	20000197          	auipc	gp,0x20000
     bdc:	82418193          	addi	gp,gp,-2012 # 200003fc <__global_pointer$>
     be0:	40418113          	addi	sp,gp,1028 # 20000800 <_eusrstack>
     be4:	6509                	lui	a0,0x2
     be6:	88050513          	addi	a0,a0,-1920 # 1880 <thermistor_pair+0x10c>
     bea:	30051073          	csrw	mstatus,a0
     bee:	468d                	li	a3,3
     bf0:	fffff517          	auipc	a0,0xfffff
     bf4:	41050513          	addi	a0,a0,1040 # 0 <InterruptVector>
     bf8:	8d55                	or	a0,a0,a3
     bfa:	30551073          	csrw	mtvec,a0
asm volatile(
     bfe:	c1418513          	addi	a0,gp,-1004 # 20000010 <accumulator.0>
     c02:	04c18593          	addi	a1,gp,76 # 20000448 <_ebss>
     c06:	4601                	li	a2,0
     c08:	00b55663          	bge	a0,a1,c14 <handle_reset+0x3c>
     c0c:	c110                	sw	a2,0(a0)
     c0e:	0511                	addi	a0,a0,4
     c10:	feb54ee3          	blt	a0,a1,c0c <handle_reset+0x34>
     c14:	00001517          	auipc	a0,0x1
     c18:	df450513          	addi	a0,a0,-524 # 1a08 <_data_lma>
     c1c:	c0418593          	addi	a1,gp,-1020 # 20000000 <rotenc_prev_bitmask.1>
     c20:	c1418613          	addi	a2,gp,-1004 # 20000010 <accumulator.0>
     c24:	00c58863          	beq	a1,a2,c34 <handle_reset+0x5c>
     c28:	4114                	lw	a3,0(a0)
     c2a:	c194                	sw	a3,0(a1)
     c2c:	0511                	addi	a0,a0,4
     c2e:	0591                	addi	a1,a1,4
     c30:	fec59ae3          	bne	a1,a2,c24 <handle_reset+0x4c>
	SysTick->CTLR = 5;
     c34:	e000f7b7          	lui	a5,0xe000f
     c38:	4715                	li	a4,5
     c3a:	c398                	sw	a4,0(a5)
asm volatile(
     c3c:	6785                	lui	a5,0x1
     c3e:	f1e78793          	addi	a5,a5,-226 # f1e <main>
     c42:	34179073          	csrw	mepc,a5
     c46:	30200073          	mret

00000c4a <ADC1_2_IRQHandler>:

// Return the Machine Exception Program Register (MEPC)
static inline uint32_t __get_MEPC(void)
{
	uint32_t result;
	__ASM volatile( ADD_ARCH_ZICSR "csrr %0," "mepc" : "=r"(result));
     c4a:	34102573          	csrr	a0,mepc
	PrintHex( __get_MEPC() ); // "addr2line -e debugprintfdemo.elf 0x000007e6" ---> debugprintfdemo.c:45
     c4e:	3c1d                	jal	684 <PrintHex>
	__ASM volatile( ADD_ARCH_ZICSR "csrr %0, mstatus": "=r"(result) );
     c50:	30002573          	csrr	a0,mstatus
	PrintHex( __get_MSTATUS() );
     c54:	3c05                	jal	684 <PrintHex>

// Return the Machine Trap Value Register (MTVAL)
static inline uint32_t __get_MTVAL(void)
{
	uint32_t result;
	__ASM volatile( ADD_ARCH_ZICSR "csrr %0," "mtval" : "=r" (result) );
     c56:	34302573          	csrr	a0,mtval
	PrintHex( __get_MTVAL() );
     c5a:	342d                	jal	684 <PrintHex>
	__ASM volatile( ADD_ARCH_ZICSR "csrr %0," "mcause": "=r"(result));
     c5c:	34202573          	csrr	a0,mcause
	PrintHex( __get_MCAUSE() );
     c60:	3415                	jal	684 <PrintHex>
	while( (*DMDATA0) & 0x80 );
     c62:	e00007b7          	lui	a5,0xe0000
     c66:	0f478793          	addi	a5,a5,244 # e00000f4 <_eusrstack+0xbffff8f4>
     c6a:	4398                	lw	a4,0(a5)
     c6c:	08077713          	andi	a4,a4,128
     c70:	ff6d                	bnez	a4,c6a <ADC1_2_IRQHandler+0x20>
	*DMDATA0 = 0x0a85;
     c72:	6705                	lui	a4,0x1
     c74:	a8570713          	addi	a4,a4,-1403 # a85 <i2c_write_reg+0xc7>
     c78:	c398                	sw	a4,0(a5)
	while( (*DMDATA0) & 0x80 );
     c7a:	e00007b7          	lui	a5,0xe0000
     c7e:	0f478793          	addi	a5,a5,244 # e00000f4 <_eusrstack+0xbffff8f4>
     c82:	4398                	lw	a4,0(a5)
     c84:	08077713          	andi	a4,a4,128
     c88:	ff6d                	bnez	a4,c82 <ADC1_2_IRQHandler+0x38>
	*DMDATA0 = 0xaaaaaa83;
     c8a:	aaaab737          	lui	a4,0xaaaab
     c8e:	a8370713          	addi	a4,a4,-1405 # aaaaaa83 <_eusrstack+0x8aaaa283>
     c92:	c398                	sw	a4,0(a5)
	asm volatile( "1: j 1b" );
     c94:	a001                	j	c94 <ADC1_2_IRQHandler+0x4a>

00000c96 <NMI_Handler>:
	RCC->INTR |= RCC_CSSC;	// clear the clock security int flag
     c96:	40021737          	lui	a4,0x40021
     c9a:	471c                	lw	a5,8(a4)
     c9c:	008006b7          	lui	a3,0x800
     ca0:	8fd5                	or	a5,a5,a3
     ca2:	c71c                	sw	a5,8(a4)

00000ca4 <strlen>:
	for (; *s; s++);
     ca4:	87aa                	mv	a5,a0
     ca6:	0007c703          	lbu	a4,0(a5)
     caa:	e701                	bnez	a4,cb2 <strlen+0xe>
}
     cac:	40a78533          	sub	a0,a5,a0
     cb0:	8082                	ret
	for (; *s; s++);
     cb2:	0785                	addi	a5,a5,1
     cb4:	bfcd                	j	ca6 <strlen+0x2>

00000cb6 <mini_vpprintf>:
{
     cb6:	fa410113          	addi	sp,sp,-92
     cba:	caa2                	sw	s0,84(sp)
     cbc:	c8a6                	sw	s1,80(sp)
     cbe:	cc86                	sw	ra,88(sp)
     cc0:	c02a                	sw	a0,0(sp)
     cc2:	c22e                	sw	a1,4(sp)
     cc4:	8432                	mv	s0,a2
     cc6:	84b6                	mv	s1,a3
	if(puts == (void*)0) {
     cc8:	e509                	bnez	a0,cd2 <mini_vpprintf+0x1c>
		puts = _puts; buf = (void*)0;
     cca:	64400793          	li	a5,1604
     cce:	c202                	sw	zero,4(sp)
     cd0:	c03e                	sw	a5,0(sp)
	int n = 0;
     cd2:	ca02                	sw	zero,20(sp)
	while ((ch=*(fmt++))) {
     cd4:	00044783          	lbu	a5,0(s0)
     cd8:	00140713          	addi	a4,s0,1
     cdc:	00f10fa3          	sb	a5,31(sp)
     ce0:	eb81                	bnez	a5,cf0 <mini_vpprintf+0x3a>
}
     ce2:	40e6                	lw	ra,88(sp)
     ce4:	4456                	lw	s0,84(sp)
     ce6:	4552                	lw	a0,20(sp)
     ce8:	44c6                	lw	s1,80(sp)
     cea:	05c10113          	addi	sp,sp,92
     cee:	8082                	ret
     cf0:	c63a                	sw	a4,12(sp)
		if (ch!='%') {
     cf2:	02500693          	li	a3,37
     cf6:	02d78063          	beq	a5,a3,d16 <mini_vpprintf+0x60>
			len = puts(&ch, len, buf);
     cfa:	4612                	lw	a2,4(sp)
     cfc:	4782                	lw	a5,0(sp)
     cfe:	4585                	li	a1,1
     d00:	01f10513          	addi	a0,sp,31
     d04:	9782                	jalr	a5
	while ((ch=*(fmt++))) {
     d06:	4732                	lw	a4,12(sp)
     d08:	c426                	sw	s1,8(sp)
     d0a:	843a                	mv	s0,a4
		n = n + len;
     d0c:	47d2                	lw	a5,20(sp)
     d0e:	44a2                	lw	s1,8(sp)
     d10:	97aa                	add	a5,a5,a0
     d12:	ca3e                	sw	a5,20(sp)
     d14:	b7c1                	j	cd4 <mini_vpprintf+0x1e>
			ch=*(fmt++);
     d16:	00144783          	lbu	a5,1(s0)
			if (ch == '0') pad_char = '0';
     d1a:	03000693          	li	a3,48
			ch=*(fmt++);
     d1e:	00240713          	addi	a4,s0,2
     d22:	00f10fa3          	sb	a5,31(sp)
			if (ch == '0') pad_char = '0';
     d26:	c63e                	sw	a5,12(sp)
     d28:	08d79363          	bne	a5,a3,dae <mini_vpprintf+0xf8>
				ch=*(fmt++);
     d2c:	843a                	mv	s0,a4
     d2e:	4681                	li	a3,0
     d30:	4701                	li	a4,0
			while (ch >= '0' && ch <= '9') {
     d32:	45a5                	li	a1,9
     d34:	a819                	j	d4a <mini_vpprintf+0x94>
				pad_to = pad_to * 10 + (ch - '0');
     d36:	00271793          	slli	a5,a4,0x2
     d3a:	97ba                	add	a5,a5,a4
     d3c:	0786                	slli	a5,a5,0x1
				ch=*(fmt++);
     d3e:	0405                	addi	s0,s0,1
				pad_to = pad_to * 10 + (ch - '0');
     d40:	00f60733          	add	a4,a2,a5
				ch=*(fmt++);
     d44:	fff44783          	lbu	a5,-1(s0)
     d48:	4685                	li	a3,1
			while (ch >= '0' && ch <= '9') {
     d4a:	fd078613          	addi	a2,a5,-48
     d4e:	0ff67513          	zext.b	a0,a2
     d52:	fea5f2e3          	bgeu	a1,a0,d36 <mini_vpprintf+0x80>
     d56:	c299                	beqz	a3,d5c <mini_vpprintf+0xa6>
     d58:	00f10fa3          	sb	a5,31(sp)
			if(pad_to > (signed int) sizeof(bf)) {
     d5c:	c83a                	sw	a4,16(sp)
     d5e:	46e1                	li	a3,24
     d60:	00e6d363          	bge	a3,a4,d66 <mini_vpprintf+0xb0>
     d64:	c836                	sw	a3,16(sp)
			if (ch == 'l') {
     d66:	06c00613          	li	a2,108
			char l = 0;
     d6a:	4681                	li	a3,0
			if (ch == 'l') {
     d6c:	00c79863          	bne	a5,a2,d7c <mini_vpprintf+0xc6>
				ch=*(fmt++);
     d70:	00044783          	lbu	a5,0(s0)
				l = 1;
     d74:	4685                	li	a3,1
				ch=*(fmt++);
     d76:	0405                	addi	s0,s0,1
     d78:	00f10fa3          	sb	a5,31(sp)
			switch (ch) {
     d7c:	01f14603          	lbu	a2,31(sp)
     d80:	06400793          	li	a5,100
     d84:	06f60563          	beq	a2,a5,dee <mini_vpprintf+0x138>
     d88:	02c7e763          	bltu	a5,a2,db6 <mini_vpprintf+0x100>
     d8c:	05800793          	li	a5,88
     d90:	0af60263          	beq	a2,a5,e34 <mini_vpprintf+0x17e>
     d94:	06300793          	li	a5,99
     d98:	0cf60063          	beq	a2,a5,e58 <mini_vpprintf+0x1a2>
     d9c:	d239                	beqz	a2,ce2 <mini_vpprintf+0x2c>
					len = puts(&ch, len, buf);
     d9e:	4612                	lw	a2,4(sp)
     da0:	4782                	lw	a5,0(sp)
     da2:	4585                	li	a1,1
     da4:	01f10513          	addi	a0,sp,31
     da8:	9782                	jalr	a5
					break;
     daa:	c426                	sw	s1,8(sp)
     dac:	b785                	j	d0c <mini_vpprintf+0x56>
			char pad_char = ' ';
     dae:	02000693          	li	a3,32
     db2:	c636                	sw	a3,12(sp)
     db4:	bfa5                	j	d2c <mini_vpprintf+0x76>
			switch (ch) {
     db6:	07500793          	li	a5,117
     dba:	02f60a63          	beq	a2,a5,dee <mini_vpprintf+0x138>
     dbe:	07800793          	li	a5,120
     dc2:	06f60963          	beq	a2,a5,e34 <mini_vpprintf+0x17e>
     dc6:	07300793          	li	a5,115
     dca:	fcf61ae3          	bne	a2,a5,d9e <mini_vpprintf+0xe8>
					ptr = va_arg(va, char*);
     dce:	00448793          	addi	a5,s1,4
     dd2:	4084                	lw	s1,0(s1)
     dd4:	cc3a                	sw	a4,24(sp)
     dd6:	c43e                	sw	a5,8(sp)
					len = mini_strlen(ptr);
     dd8:	8526                	mv	a0,s1
     dda:	35e9                	jal	ca4 <strlen>
					if (pad_to > 0) {
     ddc:	4762                	lw	a4,24(sp)
					len = mini_strlen(ptr);
     dde:	85aa                	mv	a1,a0
					if (pad_to > 0) {
     de0:	08e05963          	blez	a4,e72 <mini_vpprintf+0x1bc>
						len = mini_pad(ptr, len, pad_char, pad_to, bf);
     de4:	46c2                	lw	a3,16(sp)
     de6:	4632                	lw	a2,12(sp)
     de8:	1838                	addi	a4,sp,56
     dea:	8526                	mv	a0,s1
     dec:	a025                	j	e14 <mini_vpprintf+0x15e>
						len = mini_itoa(va_arg(va, unsigned long), 10, 0, (ch=='u'), bf2);
     dee:	00448793          	addi	a5,s1,4
     df2:	c43e                	sw	a5,8(sp)
					if(l) {
     df4:	ca85                	beqz	a3,e24 <mini_vpprintf+0x16e>
						len = mini_itoa(va_arg(va, unsigned long), 10, 0, (ch=='u'), bf2);
     df6:	f8b60613          	addi	a2,a2,-117
     dfa:	1018                	addi	a4,sp,32
     dfc:	00163693          	seqz	a3,a2
     e00:	4088                	lw	a0,0(s1)
     e02:	4601                	li	a2,0
     e04:	45a9                	li	a1,10
     e06:	8d9ff0ef          	jal	6de <mini_itoa.part.0>
					len = mini_pad(bf2, len, pad_char, pad_to, bf);
     e0a:	46c2                	lw	a3,16(sp)
     e0c:	4632                	lw	a2,12(sp)
     e0e:	1838                	addi	a4,sp,56
     e10:	85aa                	mv	a1,a0
					len = mini_pad(bf2, len, pad_char, pad_to, bf);
     e12:	1008                	addi	a0,sp,32
     e14:	fa6ff0ef          	jal	5ba <mini_pad>
					len = puts(bf, len, buf);
     e18:	4612                	lw	a2,4(sp)
					len = mini_pad(bf2, len, pad_char, pad_to, bf);
     e1a:	85aa                	mv	a1,a0
					len = puts(bf, len, buf);
     e1c:	1828                	addi	a0,sp,56
     e1e:	4782                	lw	a5,0(sp)
     e20:	9782                	jalr	a5
					break;
     e22:	b5ed                	j	d0c <mini_vpprintf+0x56>
						if(ch == 'u') {
     e24:	07500793          	li	a5,117
     e28:	1018                	addi	a4,sp,32
     e2a:	4685                	li	a3,1
     e2c:	fcf60ae3          	beq	a2,a5,e00 <mini_vpprintf+0x14a>
	if (radix > 16)
     e30:	4681                	li	a3,0
     e32:	b7f9                	j	e00 <mini_vpprintf+0x14a>
					if(l) {
     e34:	4088                	lw	a0,0(s1)
						len = mini_itoa(va_arg(va, unsigned long), 16, (ch=='X'), 1, bf2);
     e36:	fa860613          	addi	a2,a2,-88
						len = mini_itoa(va_arg(va, unsigned long), 10, 0, (ch=='u'), bf2);
     e3a:	00448793          	addi	a5,s1,4
     e3e:	1018                	addi	a4,sp,32
     e40:	4685                	li	a3,1
     e42:	00163613          	seqz	a2,a2
     e46:	45c1                	li	a1,16
     e48:	c43e                	sw	a5,8(sp)
	if (radix > 16)
     e4a:	895ff0ef          	jal	6de <mini_itoa.part.0>
					len = mini_pad(bf2, len, pad_char, pad_to, bf);
     e4e:	46c2                	lw	a3,16(sp)
     e50:	4632                	lw	a2,12(sp)
     e52:	85aa                	mv	a1,a0
     e54:	1838                	addi	a4,sp,56
     e56:	bf75                	j	e12 <mini_vpprintf+0x15c>
					ch = (char)(va_arg(va, int));
     e58:	00448793          	addi	a5,s1,4
     e5c:	c43e                	sw	a5,8(sp)
     e5e:	409c                	lw	a5,0(s1)
					len = mini_pad(&ch, 1, pad_char, pad_to, bf);
     e60:	46c2                	lw	a3,16(sp)
     e62:	4632                	lw	a2,12(sp)
					ch = (char)(va_arg(va, int));
     e64:	00f10fa3          	sb	a5,31(sp)
					len = mini_pad(&ch, 1, pad_char, pad_to, bf);
     e68:	1838                	addi	a4,sp,56
     e6a:	4585                	li	a1,1
     e6c:	01f10513          	addi	a0,sp,31
     e70:	b755                	j	e14 <mini_vpprintf+0x15e>
						len = puts(ptr, len, buf);
     e72:	4612                	lw	a2,4(sp)
     e74:	8526                	mv	a0,s1
     e76:	b765                	j	e1e <mini_vpprintf+0x168>

00000e78 <printf>:
{
     e78:	1111                	addi	sp,sp,-28
     e7a:	c632                	sw	a2,12(sp)
	int ret_status = mini_vpprintf(__puts_uart, 0, format, args);
     e7c:	862a                	mv	a2,a0
     e7e:	6505                	lui	a0,0x1
{
     e80:	c42e                	sw	a1,8(sp)
     e82:	c836                	sw	a3,16(sp)
	int ret_status = mini_vpprintf(__puts_uart, 0, format, args);
     e84:	4581                	li	a1,0
	va_start( args, format );
     e86:	0034                	addi	a3,sp,8
	int ret_status = mini_vpprintf(__puts_uart, 0, format, args);
     e88:	9aa50513          	addi	a0,a0,-1622 # 9aa <__puts_uart>
{
     e8c:	c206                	sw	ra,4(sp)
     e8e:	ca3a                	sw	a4,20(sp)
     e90:	cc3e                	sw	a5,24(sp)
	va_start( args, format );
     e92:	c036                	sw	a3,0(sp)
	int ret_status = mini_vpprintf(__puts_uart, 0, format, args);
     e94:	350d                	jal	cb6 <mini_vpprintf>
}
     e96:	4092                	lw	ra,4(sp)
     e98:	0171                	addi	sp,sp,28
     e9a:	8082                	ret

00000e9c <memset>:
WEAK void *memset(void *dest, int c, size_t n) { unsigned char *s = dest; for (; n; n--, s++) *s = c; return dest; }
     e9c:	962a                	add	a2,a2,a0
     e9e:	87aa                	mv	a5,a0
     ea0:	00c79363          	bne	a5,a2,ea6 <memset+0xa>
     ea4:	8082                	ret
     ea6:	00b78023          	sb	a1,0(a5)
     eaa:	0785                	addi	a5,a5,1
     eac:	bfd5                	j	ea0 <memset+0x4>

00000eae <memcpy>:
	for (; n; n--) *d++ = *s++;
     eae:	4781                	li	a5,0
     eb0:	00f61363          	bne	a2,a5,eb6 <memcpy+0x8>
}
     eb4:	8082                	ret
	for (; n; n--) *d++ = *s++;
     eb6:	00f58733          	add	a4,a1,a5
     eba:	00074683          	lbu	a3,0(a4) # 40021000 <_eusrstack+0x20020800>
     ebe:	00f50733          	add	a4,a0,a5
     ec2:	0785                	addi	a5,a5,1
     ec4:	00d70023          	sb	a3,0(a4)
     ec8:	b7e5                	j	eb0 <memcpy+0x2>

00000eca <SystemInit>:
	#endif
#elif defined(CH32X03x)
	FLASH->ACTLR = FLASH_ACTLR_LATENCY_2;                   // +2 Cycle Latency (Recommended per TRM)
#elif defined(CH32V003)
	#if FUNCONF_SYSTEM_CORE_CLOCK > 25000000
		FLASH->ACTLR = FLASH_ACTLR_LATENCY_1;               // +1 Cycle Latency
     eca:	400227b7          	lui	a5,0x40022
     ece:	4705                	li	a4,1
     ed0:	c398                	sw	a4,0(a5)
#elif defined(FUNCONF_USE_HSI) && FUNCONF_USE_HSI
	#if defined(CH32V30x) || defined(CH32V20x) || defined(CH32V10x)
		EXTEN->EXTEN_CTR |= EXTEN_PLL_HSI_PRE;
	#endif
	#if defined(FUNCONF_USE_PLL) && FUNCONF_USE_PLL
		RCC->CFGR0 = BASE_CFGR0;
     ed2:	400217b7          	lui	a5,0x40021
		RCC->CTLR  = BASE_CTLR | RCC_HSION | RCC_PLLON; 			// Use HSI, enable PLL.
     ed6:	01080737          	lui	a4,0x1080
		RCC->CFGR0 = BASE_CFGR0;
     eda:	0007a223          	sw	zero,4(a5) # 40021004 <_eusrstack+0x20020804>
		RCC->CTLR  = BASE_CTLR | RCC_HSION | RCC_PLLON; 			// Use HSI, enable PLL.
     ede:	08170713          	addi	a4,a4,129 # 1080081 <oled.c.435159ad+0x107ac2b>
     ee2:	c398                	sw	a4,0(a5)
		FLASH->ACTLR = FLASH_ACTLR_LATENCY_1;       		// +1 Cycle Latency
	#endif
#endif

#if !defined(CH57x) && !defined(CH58x) && !defined(CH59x)
	RCC->INTR  = 0x009F0000;                               // Clear PLL, CSSC, HSE, HSI and LSI ready flags.
     ee4:	009f0737          	lui	a4,0x9f0
     ee8:	c798                	sw	a4,8(a5)
#endif

#if defined(FUNCONF_USE_PLL) && FUNCONF_USE_PLL && !defined(CH57x) && !defined(CH58x) && !defined(CH59x)
	while((RCC->CTLR & RCC_PLLRDY) == 0);                       	// Wait till PLL is ready
     eea:	4398                	lw	a4,0(a5)
     eec:	00671693          	slli	a3,a4,0x6
     ef0:	fe06dde3          	bgez	a3,eea <SystemInit+0x20>
	uint32_t tmp32 = RCC->CFGR0 & ~(0x03);							// clr the SW
     ef4:	43d8                	lw	a4,4(a5)
	RCC->CFGR0 = tmp32 | RCC_SW_PLL;                       			// Select PLL as system clock source
	while ((RCC->CFGR0 & (uint32_t)RCC_SWS) != (uint32_t)0x08); 	// Wait till PLL is used as system clock source
     ef6:	400216b7          	lui	a3,0x40021
	uint32_t tmp32 = RCC->CFGR0 & ~(0x03);							// clr the SW
     efa:	9b71                	andi	a4,a4,-4
	RCC->CFGR0 = tmp32 | RCC_SW_PLL;                       			// Select PLL as system clock source
     efc:	00276713          	ori	a4,a4,2
     f00:	c3d8                	sw	a4,4(a5)
	while ((RCC->CFGR0 & (uint32_t)RCC_SWS) != (uint32_t)0x08); 	// Wait till PLL is used as system clock source
     f02:	4721                	li	a4,8
     f04:	42dc                	lw	a5,4(a3)
     f06:	8bb1                	andi	a5,a5,12
     f08:	fee79ee3          	bne	a5,a4,f04 <SystemInit+0x3a>
	*DMDATA1 = 0x00;
     f0c:	e00007b7          	lui	a5,0xe0000
     f10:	0e07ac23          	sw	zero,248(a5) # e00000f8 <_eusrstack+0xbffff8f8>
	*DMDATA0 = 0x80;
     f14:	08000713          	li	a4,128
     f18:	0ee7aa23          	sw	a4,244(a5)
	SetupUART( UART_BRR );
#endif
#if defined( FUNCONF_USE_DEBUGPRINTF ) && FUNCONF_USE_DEBUGPRINTF
	SetupDebugPrintf();
#endif
}
     f1c:	8082                	ret

00000f1e <main>:



/*** Main ********************************************************************/
int main(void)
{
     f1e:	fa410113          	addi	sp,sp,-92
     f22:	cc86                	sw	ra,88(sp)
     f24:	caa2                	sw	s0,84(sp)
     f26:	c8a6                	sw	s1,80(sp)
	SystemInit();
     f28:	374d                	jal	eca <SystemInit>

	/*** IO Initialisation *******************************/
	// I2C Setup for the OLED
	i2c_device_t i2c_oled = {
     f2a:	1044                	addi	s1,sp,36
     f2c:	6589                	lui	a1,0x2
     f2e:	8a458593          	addi	a1,a1,-1884 # 18a4 <thermistor_pair+0x130>
     f32:	4641                	li	a2,16
     f34:	8526                	mv	a0,s1
     f36:	3fa5                	jal	eae <memcpy>
	_i2c_timeout = dev->tout;
     f38:	7d000713          	li	a4,2000
     f3c:	c0e1ac23          	sw	a4,-1000(gp) # 20000014 <_i2c_timeout>
	RCC->APB1PRSTR |=  RCC_APB1Periph_I2C1;
     f40:	40021437          	lui	s0,0x40021
     f44:	481c                	lw	a5,16(s0)
     f46:	00200637          	lui	a2,0x200
	RCC->APB1PRSTR &= ~RCC_APB1Periph_I2C1;
     f4a:	ffe00737          	lui	a4,0xffe00
	RCC->APB1PRSTR |=  RCC_APB1Periph_I2C1;
     f4e:	8fd1                	or	a5,a5,a2
     f50:	c81c                	sw	a5,16(s0)
	RCC->APB1PRSTR &= ~RCC_APB1Periph_I2C1;
     f52:	481c                	lw	a5,16(s0)
     f54:	177d                	addi	a4,a4,-1 # ffdfffff <_eusrstack+0xdfdff7ff>
     f56:	8ff9                	and	a5,a5,a4
     f58:	c81c                	sw	a5,16(s0)
	RCC->APB1PCENR |= RCC_APB1Periph_I2C1;
     f5a:	4c5c                	lw	a5,28(s0)
     f5c:	8fd1                	or	a5,a5,a2
     f5e:	cc5c                	sw	a5,28(s0)
	RCC->APB2PCENR |= I2C_PORT_RCC | RCC_APB2Periph_AFIO;
     f60:	4c1c                	lw	a5,24(s0)
	AFIO->PCFR1 &= ~(0x04400002);
     f62:	fbc00637          	lui	a2,0xfbc00
     f66:	1675                	addi	a2,a2,-3 # fbbffffd <_eusrstack+0xdbbff7fd>
	RCC->APB2PCENR |= I2C_PORT_RCC | RCC_APB2Periph_AFIO;
     f68:	0117e793          	ori	a5,a5,17
     f6c:	cc1c                	sw	a5,24(s0)
	AFIO->PCFR1 &= ~(0x04400002);
     f6e:	400107b7          	lui	a5,0x40010
     f72:	43d8                	lw	a4,4(a5)
     f74:	8f71                	and	a4,a4,a2
     f76:	c3d8                	sw	a4,4(a5)
	AFIO->PCFR1 |= I2C_AFIO_REG;
     f78:	43d8                	lw	a4,4(a5)
	I2C_PORT->CFGLR &= ~(0x0F << (4 * I2C_PIN_SCL));
     f7a:	767d                	lui	a2,0xfffff
     f7c:	0ff60613          	addi	a2,a2,255 # fffff0ff <_eusrstack+0xdfffe8ff>
	AFIO->PCFR1 |= I2C_AFIO_REG;
     f80:	c3d8                	sw	a4,4(a5)
	I2C_PORT->CFGLR &= ~(0x0F << (4 * I2C_PIN_SDA));
     f82:	400117b7          	lui	a5,0x40011
     f86:	4398                	lw	a4,0(a5)
     f88:	f0f77713          	andi	a4,a4,-241
     f8c:	c398                	sw	a4,0(a5)
	I2C_PORT->CFGLR |= (GPIO_Speed_10MHz | GPIO_CNF_OUT_OD_AF) << (4 * I2C_PIN_SDA);	
     f8e:	4398                	lw	a4,0(a5)
     f90:	0d076713          	ori	a4,a4,208
     f94:	c398                	sw	a4,0(a5)
	I2C_PORT->CFGLR &= ~(0x0F << (4 * I2C_PIN_SCL));
     f96:	4398                	lw	a4,0(a5)
     f98:	8f71                	and	a4,a4,a2
     f9a:	c398                	sw	a4,0(a5)
	I2C_PORT->CFGLR |= (GPIO_Speed_10MHz | GPIO_CNF_OUT_OD_AF) << (4 * I2C_PIN_SCL);
     f9c:	4398                	lw	a4,0(a5)
     f9e:	6605                	lui	a2,0x1
     fa0:	d0060613          	addi	a2,a2,-768 # d00 <mini_vpprintf+0x4a>
     fa4:	8f51                	or	a4,a4,a2
     fa6:	c398                	sw	a4,0(a5)
	uint16_t i2c_conf = I2C1->CTLR2 & ~I2C_CTLR2_FREQ;
     fa8:	400057b7          	lui	a5,0x40005
     fac:	4047d703          	lhu	a4,1028(a5) # 40005404 <_eusrstack+0x20004c04>
     fb0:	6641                	lui	a2,0x10
     fb2:	fc060613          	addi	a2,a2,-64 # ffc0 <oled.c.435159ad+0xab6a>
     fb6:	8f71                	and	a4,a4,a2
	i2c_conf |= (FUNCONF_SYSTEM_CORE_CLOCK / I2C_PRERATE) & I2C_CTLR2_FREQ;
     fb8:	03076713          	ori	a4,a4,48
	I2C1->CTLR2 = i2c_conf;
     fbc:	40e79223          	sh	a4,1028(a5)
	I2C1->CKCFGR = i2c_conf;
     fc0:	7761                	lui	a4,0xffff8
     fc2:	0741                	addi	a4,a4,16 # ffff8010 <_eusrstack+0xdfff7810>
     fc4:	40e79e23          	sh	a4,1052(a5)
	I2C1->CTLR1 |= I2C_CTLR1_PE;
     fc8:	4007d703          	lhu	a4,1024(a5)
     fcc:	00176713          	ori	a4,a4,1
     fd0:	40e79023          	sh	a4,1024(a5)
	return i2c_error();
     fd4:	827ff0ef          	jal	7fa <i2c_error>
oled_err_t oled_init(const i2c_device_t *dev)
{
	if(dev == NULL) return OLED_INVALID_INPUT;

	// Set the static i2c device value to the given device
	_oled_dev = dev;
     fd8:	c291a423          	sw	s1,-984(gp) # 20000024 <_oled_dev>

	const uint8_t init_arr[] = {
     fdc:	6789                	lui	a5,0x2
     fde:	8a478693          	addi	a3,a5,-1884 # 18a4 <thermistor_pair+0x130>
     fe2:	01068593          	addi	a1,a3,16 # 40021010 <_eusrstack+0x20020810>
     fe6:	4665                	li	a2,25
     fe8:	1848                	addi	a0,sp,52
     fea:	35d1                	jal	eae <memcpy>
		0xA6,             // Normal display
		0xAF              // Display ON
	};
	
	// Write the Initialisation Array to the Display
	OLED_WRITE(OLED_REG_COMMAND, init_arr,  sizeof(init_arr));
     fec:	1850                	addi	a2,sp,52
     fee:	46e5                	li	a3,25
     ff0:	4581                	li	a1,0
     ff2:	8526                	mv	a0,s1
     ff4:	32e9                	jal	9be <i2c_write_reg>
static void pwm_init(void)
{
	// NOTE: Uses TIM2 Channel 2 (PD3) and TIM2 Channel 3 (PC0)

	// Enable TIM2 Clock
	RCC->APB1PCENR |= RCC_APB1Periph_TIM2;
     ff6:	4c5c                	lw	a5,28(s0)

	// Set GPIO OUTPUT 10MHz, Aleternate Function (Multiplex)
	gpio_set_mode(GPIO_PC0, OUTPUT_10MHZ_PP | OUTPUT_PP_AF);
     ff8:	45a5                	li	a1,9
     ffa:	4509                	li	a0,2
	RCC->APB1PCENR |= RCC_APB1Periph_TIM2;
     ffc:	0017e793          	ori	a5,a5,1
    1000:	cc5c                	sw	a5,28(s0)
	gpio_set_mode(GPIO_PC0, OUTPUT_10MHZ_PP | OUTPUT_PP_AF);
    1002:	f9cff0ef          	jal	79e <gpio_set_mode>
	gpio_set_mode(GPIO_PD3, OUTPUT_10MHZ_PP | OUTPUT_PP_AF);
    1006:	45a5                	li	a1,9
    1008:	30300513          	li	a0,771
    100c:	f92ff0ef          	jal	79e <gpio_set_mode>

	// Reset TIM2, Inits all registers
	RCC->APB1PRSTR |=  RCC_APB1Periph_TIM2;
    1010:	481c                	lw	a5,16(s0)
	RCC->APB1PRSTR &= ~RCC_APB1Periph_TIM2;

	// Set Prescaler to ~17KHz. More efficient switching
	TIM2->PSC = 0x000A;
    1012:	4729                	li	a4,10
	// Set PWM Max Value (Autoreload Value)
	TIM2->ATRLR = 254;

	// Set the Compare Capture Register for Channel 3
	// TIM2_OC3M = 0b111 - PWM Mode 2 - Enable Preload
	TIM2->CHCTLR1 |= TIM_OC2M_2 | TIM_OC2M_1 | TIM_OC2M_0 | TIM_OC2PE;
    1014:	66a1                	lui	a3,0x8
	RCC->APB1PRSTR |=  RCC_APB1Periph_TIM2;
    1016:	0017e793          	ori	a5,a5,1
    101a:	c81c                	sw	a5,16(s0)
	RCC->APB1PRSTR &= ~RCC_APB1Periph_TIM2;
    101c:	481c                	lw	a5,16(s0)
	TIM2->CHCTLR1 |= TIM_OC2M_2 | TIM_OC2M_1 | TIM_OC2M_0 | TIM_OC2PE;
    101e:	80068693          	addi	a3,a3,-2048 # 7800 <oled.c.435159ad+0x23aa>
	gpio_set_mode(ROTENC_SW_PIN, INPUT_PULLUP);
    1022:	45e1                	li	a1,24
	RCC->APB1PRSTR &= ~RCC_APB1Periph_TIM2;
    1024:	9bf9                	andi	a5,a5,-2
    1026:	c81c                	sw	a5,16(s0)
	TIM2->PSC = 0x000A;
    1028:	400007b7          	lui	a5,0x40000
    102c:	02e79423          	sh	a4,40(a5) # 40000028 <_eusrstack+0x1ffff828>
	TIM2->ATRLR = 254;
    1030:	0fe00713          	li	a4,254
    1034:	02e79623          	sh	a4,44(a5)
	TIM2->CHCTLR1 |= TIM_OC2M_2 | TIM_OC2M_1 | TIM_OC2M_0 | TIM_OC2PE;
    1038:	0187d703          	lhu	a4,24(a5)
	gpio_set_mode(ROTENC_SW_PIN, INPUT_PULLUP);
    103c:	30200513          	li	a0,770
	TIM2->CHCTLR1 |= TIM_OC2M_2 | TIM_OC2M_1 | TIM_OC2M_0 | TIM_OC2PE;
    1040:	8f55                	or	a4,a4,a3
    1042:	00e79c23          	sh	a4,24(a5)
	TIM2->CHCTLR2 |= TIM_OC3M_2 | TIM_OC3M_1 | TIM_OC3M_0 | TIM_OC3PE;
    1046:	01c7d703          	lhu	a4,28(a5)
    104a:	07876713          	ori	a4,a4,120
    104e:	00e79e23          	sh	a4,28(a5)

	// Enable auto-reload
	TIM2->CTLR1 |= TIM_ARPE;
    1052:	0007d703          	lhu	a4,0(a5)
    1056:	08076713          	ori	a4,a4,128
    105a:	00e79023          	sh	a4,0(a5)

	// Enable channel output, polarity is ACTIVE_HIGH
	TIM2->CCER |= TIM_CC2E | TIM_CC2P;
    105e:	0207d703          	lhu	a4,32(a5)
    1062:	03076713          	ori	a4,a4,48
    1066:	02e79023          	sh	a4,32(a5)
	TIM2->CCER |= TIM_CC3E | TIM_CC3P;
    106a:	0207d703          	lhu	a4,32(a5)
    106e:	30076713          	ori	a4,a4,768
    1072:	02e79023          	sh	a4,32(a5)

	// Initialise Counter
	TIM2->SWEVGR |= TIM_UG;
    1076:	0147d703          	lhu	a4,20(a5)
    107a:	00176713          	ori	a4,a4,1
    107e:	00e79a23          	sh	a4,20(a5)

	// Enable TIM2
	TIM2->CTLR1 |= TIM_CEN;
    1082:	0007d703          	lhu	a4,0(a5)
    1086:	00176713          	ori	a4,a4,1
    108a:	00e79023          	sh	a4,0(a5)
static  void pwm_set_duty(const uint8_t ch, const uint32_t duty)
{
	switch(ch)
	{
		case 2:
			TIM2->CH2CVR = duty;
    108e:	0ff00713          	li	a4,255
    1092:	df98                	sw	a4,56(a5)
			break;
		case 3:
			TIM2->CH3CVR = duty;
    1094:	0207ae23          	sw	zero,60(a5)
	gpio_set_mode(ROTENC_SW_PIN, INPUT_PULLUP);
    1098:	f06ff0ef          	jal	79e <gpio_set_mode>
	gpio_set_mode(ROTENC_A_PIN,  INPUT_PULLUP);
    109c:	45e1                	li	a1,24
    109e:	40200513          	li	a0,1026
    10a2:	efcff0ef          	jal	79e <gpio_set_mode>
	gpio_set_mode(ROTENC_B_PIN,  INPUT_PULLUP);
    10a6:	45e1                	li	a1,24
    10a8:	50200513          	li	a0,1282
    10ac:	ef2ff0ef          	jal	79e <gpio_set_mode>


void gpio_init_adc(const ADC_CLOCK_DIV div, const ADC_SAMPLE_CYCLES cycles)
{
	// Enable the ADC clock
	GPIO_RCC->APB2PCENR |= RCC_APB2Periph_ADC1;
    10b0:	4c1c                	lw	a5,24(s0)

	// Set ACD Clock Divider
	GPIO_RCC->CFGR0 &= ~ADC_CLOCK_DIV_128;
    10b2:	7741                	lui	a4,0xffff0
    10b4:	7ff70713          	addi	a4,a4,2047 # ffff07ff <_eusrstack+0xdffeffff>
	GPIO_RCC->APB2PCENR |= RCC_APB2Periph_ADC1;
    10b8:	2007e793          	ori	a5,a5,512
    10bc:	cc1c                	sw	a5,24(s0)
	GPIO_RCC->CFGR0 &= ~ADC_CLOCK_DIV_128;
    10be:	405c                	lw	a5,4(s0)
	// Set the Sample Register(s) for all channels at once
	GPIO_ADC1->SAMPTR1 = cycles;
	GPIO_ADC1->SAMPTR2 = cycles;

	// Enable the ADC, and set the triggering to external
	GPIO_ADC1->CTLR2 |= ADC_ADON | ADC_EXTSEL;
    10c0:	000e06b7          	lui	a3,0xe0
    10c4:	0685                	addi	a3,a3,1 # e0001 <oled.c.435159ad+0xdabab>
	GPIO_RCC->CFGR0 &= ~ADC_CLOCK_DIV_128;
    10c6:	8ff9                	and	a5,a5,a4
    10c8:	c05c                	sw	a5,4(s0)
	GPIO_RCC->CFGR0 |= div;
    10ca:	405c                	lw	a5,4(s0)
	GPIO_ADC1->SAMPTR1 = cycles;
    10cc:	24925737          	lui	a4,0x24925
    10d0:	92470713          	addi	a4,a4,-1756 # 24924924 <_eusrstack+0x4924124>
	GPIO_RCC->CFGR0 |= div;
    10d4:	c05c                	sw	a5,4(s0)
	GPIO_RCC->APB2PRSTR |=  RCC_APB2Periph_ADC1;
    10d6:	445c                	lw	a5,12(s0)
    10d8:	2007e793          	ori	a5,a5,512
    10dc:	c45c                	sw	a5,12(s0)
	GPIO_RCC->APB2PRSTR &= ~RCC_APB2Periph_ADC1;
    10de:	445c                	lw	a5,12(s0)
    10e0:	dff7f793          	andi	a5,a5,-513
    10e4:	c45c                	sw	a5,12(s0)
	GPIO_ADC1->RSQR1 = 0;
    10e6:	400127b7          	lui	a5,0x40012
    10ea:	40078793          	addi	a5,a5,1024 # 40012400 <_eusrstack+0x20011c00>
    10ee:	0207a623          	sw	zero,44(a5)
	GPIO_ADC1->RSQR2 = 0;
    10f2:	0207a823          	sw	zero,48(a5)
	GPIO_ADC1->RSQR3 = 0;
    10f6:	0207aa23          	sw	zero,52(a5)
	GPIO_ADC1->SAMPTR1 = cycles;
    10fa:	c7d8                	sw	a4,12(a5)
	GPIO_ADC1->SAMPTR2 = cycles;
    10fc:	cb98                	sw	a4,16(a5)
	GPIO_ADC1->CTLR2 |= ADC_ADON | ADC_EXTSEL;
    10fe:	4798                	lw	a4,8(a5)
    1100:	8f55                	or	a4,a4,a3
    1102:	c798                	sw	a4,8(a5)
	
	// Reset calibration, wait for it to finish
	GPIO_ADC1->CTLR2 |= ADC_RSTCAL;
    1104:	4798                	lw	a4,8(a5)
    1106:	00876713          	ori	a4,a4,8
    110a:	c798                	sw	a4,8(a5)
	while(GPIO_ADC1->CTLR2 & ADC_RSTCAL);
    110c:	4798                	lw	a4,8(a5)
    110e:	8b21                	andi	a4,a4,8
    1110:	ff75                	bnez	a4,110c <main+0x1ee>

	// Calibrate the ADC, want for it to finish
	GPIO_ADC1->CTLR2 |= ADC_CAL;
    1112:	4798                	lw	a4,8(a5)
	while(GPIO_ADC1->CTLR2 & ADC_CAL);
    1114:	40012437          	lui	s0,0x40012
    1118:	40040413          	addi	s0,s0,1024 # 40012400 <_eusrstack+0x20011c00>
	GPIO_ADC1->CTLR2 |= ADC_CAL;
    111c:	00476713          	ori	a4,a4,4
    1120:	c798                	sw	a4,8(a5)
	while(GPIO_ADC1->CTLR2 & ADC_CAL);
    1122:	441c                	lw	a5,8(s0)
    1124:	8b91                	andi	a5,a5,4
    1126:	fff5                	bnez	a5,1122 <main+0x204>
	gpio_set_mode(OPAMP_CHA1_NEG, INPUT_FLOATING);
    1128:	4591                	li	a1,4
    112a:	10000513          	li	a0,256
    112e:	e70ff0ef          	jal	79e <gpio_set_mode>
	gpio_set_mode(OPAMP_CHA1_POS, INPUT_FLOATING);
    1132:	4591                	li	a1,4
    1134:	20000513          	li	a0,512
    1138:	e66ff0ef          	jal	79e <gpio_set_mode>
	gpio_set_mode(OPAMP_CHA2_POS, INPUT_FLOATING);
    113c:	4591                	li	a1,4
    113e:	70300513          	li	a0,1795
    1142:	e5cff0ef          	jal	79e <gpio_set_mode>
	gpio_set_mode(THERM_ADC_PIN,  INPUT_ANALOG);
    1146:	4581                	li	a1,0
    1148:	50300513          	li	a0,1283
    114c:	e52ff0ef          	jal	79e <gpio_set_mode>
	gpio_set_mode(BSENS_ADC_PIN,  INPUT_ANALOG);
    1150:	4581                	li	a1,0
    1152:	60300513          	li	a0,1539
    1156:	e48ff0ef          	jal	79e <gpio_set_mode>
	gpio_set_mode(OPAMP_ADC_PIN,  INPUT_ANALOG);	
    115a:	4581                	li	a1,0
    115c:	40300513          	li	a0,1027
    1160:	e3eff0ef          	jal	79e <gpio_set_mode>
	GPIO_EXTEN->EXTEN_CTR |= GPIO_EXTEN_OPA_EN;
    1164:	400247b7          	lui	a5,0x40024
    1168:	80078793          	addi	a5,a5,-2048 # 40023800 <_eusrstack+0x20023000>
    116c:	4398                	lw	a4,0(a5)
    116e:	66c1                	lui	a3,0x10
	gpio_set_opamp_inputs(GPIO_OPAMP_CH1_POS, GPIO_OPAMP_CH1_NEG);
    1170:	4501                	li	a0,0
    1172:	8f55                	or	a4,a4,a3
    1174:	c398                	sw	a4,0(a5)
    1176:	f08ff0ef          	jal	87e <gpio_set_opamp_inputs.constprop.0>

/*** Function Definitions ****************************************************/
void opamp_calibrate(void)
{
	// Measure the offset of the OpAmp at 0 Input (While PWM Off)
	Delay_Ms(500);
    117a:	f28ff0ef          	jal	8a2 <DelaySysTick.constprop.0>
inline uint16_t gpio_analog_read(const GPIO_ANALOG_CHANNEL chan)
{
	// Set rule channel conversion for single conversion on passed channel
	// GPIO_ADC1->RSQR1 = 0;
	// GPIO_ADC1->RSQR2 = 0;
	GPIO_ADC1->RSQR3 = (uint32_t)chan;
    117e:	479d                	li	a5,7
    1180:	d85c                	sw	a5,52(s0)

	GPIO_ADC1->CTLR2 |= ADC_SWSTART;
    1182:	441c                	lw	a5,8(s0)
    1184:	00400737          	lui	a4,0x400
    1188:	8fd9                	or	a5,a5,a4
    118a:	c41c                	sw	a5,8(s0)
	while(!(GPIO_ADC1->STATR & ADC_EOC));
    118c:	40012437          	lui	s0,0x40012
    1190:	40040413          	addi	s0,s0,1024 # 40012400 <_eusrstack+0x20011c00>
    1194:	401c                	lw	a5,0(s0)
    1196:	8b89                	andi	a5,a5,2
    1198:	dff5                	beqz	a5,1194 <main+0x276>

	// Get the resulting data from the ADC
	return GPIO_ADC1->RDATAR;
    119a:	4464                	lw	s1,76(s0)
	// VCC/32 - The OpAmp Gain of 16 makes this effectively VCC/2
	// Compare the value output to the expected output (1023/2) to get an
	// offset
	
	// Switch to CH2 Positive Input and wait for it to stabilise
	gpio_set_opamp_inputs(GPIO_OPAMP_CH2_POS, GPIO_OPAMP_CH1_NEG);
    119c:	4505                	li	a0,1
	_opamp_calibration_offset = gpio_analog_read(OPAMP_ADC_CH);
    119e:	04c2                	slli	s1,s1,0x10
    11a0:	84c1                	srai	s1,s1,0x10
    11a2:	c0919f23          	sh	s1,-994(gp) # 2000001a <_opamp_calibration_offset>
	gpio_set_opamp_inputs(GPIO_OPAMP_CH2_POS, GPIO_OPAMP_CH1_NEG);
    11a6:	ed8ff0ef          	jal	87e <gpio_set_opamp_inputs.constprop.0>
	Delay_Ms(500);
    11aa:	ef8ff0ef          	jal	8a2 <DelaySysTick.constprop.0>
	GPIO_ADC1->RSQR3 = (uint32_t)chan;
    11ae:	479d                	li	a5,7
    11b0:	d85c                	sw	a5,52(s0)
	GPIO_ADC1->CTLR2 |= ADC_SWSTART;
    11b2:	441c                	lw	a5,8(s0)
    11b4:	00400737          	lui	a4,0x400
    11b8:	8fd9                	or	a5,a5,a4
    11ba:	c41c                	sw	a5,8(s0)
	while(!(GPIO_ADC1->STATR & ADC_EOC));
    11bc:	400127b7          	lui	a5,0x40012
    11c0:	40078793          	addi	a5,a5,1024 # 40012400 <_eusrstack+0x20011c00>
    11c4:	4398                	lw	a4,0(a5)
    11c6:	8b09                	andi	a4,a4,2
    11c8:	df75                	beqz	a4,11c4 <main+0x2a6>
	return GPIO_ADC1->RDATAR;
    11ca:	47fc                	lw	a5,76(a5)

	// Calculate the delta between the expected value and the read value
	int32_t delta = gpio_analog_read(OPAMP_ADC_CH) - _opamp_calibration_offset;
    11cc:	07c2                	slli	a5,a5,0x10
    11ce:	83c1                	srli	a5,a5,0x10
    11d0:	409785b3          	sub	a1,a5,s1
	if(delta == 0) delta = 1;
    11d4:	00979363          	bne	a5,s1,11da <main+0x2bc>
    11d8:	4585                	li	a1,1
	
	_opamp_calibration_gain = ((int32_t)OPAMP_CAL_EXPECTED << 10) / delta;
    11da:	00080537          	lui	a0,0x80
    11de:	b5eff0ef          	jal	53c <__divsi3>
    11e2:	01051613          	slli	a2,a0,0x10

	printf("offset: %d\tgain: %d\n", _opamp_calibration_offset, _opamp_calibration_gain);
    11e6:	6509                	lui	a0,0x2
	_opamp_calibration_gain = ((int32_t)OPAMP_CAL_EXPECTED << 10) / delta;
    11e8:	8641                	srai	a2,a2,0x10
	printf("offset: %d\tgain: %d\n", _opamp_calibration_offset, _opamp_calibration_gain);
    11ea:	85a6                	mv	a1,s1
    11ec:	9d050513          	addi	a0,a0,-1584 # 19d0 <__clz_tab+0x100>
	_opamp_calibration_gain = ((int32_t)OPAMP_CAL_EXPECTED << 10) / delta;
    11f0:	c0c19e23          	sh	a2,-996(gp) # 20000018 <_opamp_calibration_gain>
	printf("offset: %d\tgain: %d\n", _opamp_calibration_offset, _opamp_calibration_gain);
    11f4:	3151                	jal	e78 <printf>

	// Switch back to CH1 Positive and wait for it to settle
	gpio_set_opamp_inputs(GPIO_OPAMP_CH1_POS, GPIO_OPAMP_CH1_NEG);
    11f6:	4501                	li	a0,0
    11f8:	e86ff0ef          	jal	87e <gpio_set_opamp_inputs.constprop.0>
	Delay_Ms(500);
    11fc:	ea6ff0ef          	jal	8a2 <DelaySysTick.constprop.0>
	RCC->APB2PCENR |= RCC_APB2Periph_AFIO;
    1200:	40021737          	lui	a4,0x40021
    1204:	4f1c                	lw	a5,24(a4)
	NVIC->IENR[((uint32_t)(IRQn) >> 5)] = (1 << ((uint32_t)(IRQn) & 0x1F));
    1206:	e000e6b7          	lui	a3,0xe000e
    120a:	0017e793          	ori	a5,a5,1
    120e:	cf1c                	sw	a5,24(a4)
	AFIO->EXTICR    = AFIO_EXTICR_EXTI4_PC | AFIO_EXTICR_EXTI5_PC;
    1210:	6785                	lui	a5,0x1
    1212:	40010737          	lui	a4,0x40010
    1216:	a0078793          	addi	a5,a5,-1536 # a00 <i2c_write_reg+0x42>
    121a:	c71c                	sw	a5,8(a4)
	EXTI->INTENR    = EXTI_INTENR_MR4 | EXTI_INTENR_MR5;
    121c:	40070793          	addi	a5,a4,1024 # 40010400 <_eusrstack+0x2000fc00>
    1220:	03000713          	li	a4,48
    1224:	c398                	sw	a4,0(a5)
	EXTI->RTENR     = EXTI_RTENR_TR4  | EXTI_RTENR_TR5;
    1226:	c798                	sw	a4,8(a5)
	EXTI->FTENR     = EXTI_FTENR_TR4  | EXTI_FTENR_TR5;
    1228:	c7d8                	sw	a4,12(a5)
	EXTI->INTFR = 0x00000030;
    122a:	cbd8                	sw	a4,20(a5)
    122c:	001007b7          	lui	a5,0x100
    1230:	10f6a023          	sw	a5,256(a3) # e000e100 <_eusrstack+0xc000d900>
	SysTick->CMP = SYSTICK_ONE_MILLISECOND - 1;
    1234:	6731                	lui	a4,0xc
	SysTick->CTLR = 0x0000;
    1236:	e000f7b7          	lui	a5,0xe000f
    123a:	0007a023          	sw	zero,0(a5) # e000f000 <_eusrstack+0xc000e800>
	SysTick->CMP = SYSTICK_ONE_MILLISECOND - 1;
    123e:	b7f70713          	addi	a4,a4,-1153 # bb7f <oled.c.435159ad+0x6729>
    1242:	cb98                	sw	a4,16(a5)
	SysTick->CNT = 0x00000000;
    1244:	0007a423          	sw	zero,8(a5)
	g_systick_millis = 0x00000000;
    1248:	c201ac23          	sw	zero,-968(gp) # 20000034 <g_systick_millis>
	SysTick->CTLR |= SYSTICK_CTLR_STE   |  // Enable Counter
    124c:	4398                	lw	a4,0(a5)
    124e:	00776713          	ori	a4,a4,7
    1252:	c398                	sw	a4,0(a5)
    1254:	6785                	lui	a5,0x1
    1256:	10f6a023          	sw	a5,256(a3)
	uint32_t millis_prev_display_update    = 0;
    125a:	ca02                	sw	zero,20(sp)
	uint32_t millis_prev_battery_check     = 0;
    125c:	c802                	sw	zero,16(sp)
	uint32_t millis_prev_pid_temp_update   = 0;
    125e:	c602                	sw	zero,12(sp)
	uint32_t millis_prev_user_input_update = 0;
    1260:	c402                	sw	zero,8(sp)
	uint32_t millis_prev_led_update        = 0;
    1262:	c202                	sw	zero,4(sp)
	pid_ctrl_t heater_pid =
    1264:	cc02                	sw	zero,24(sp)
    1266:	c002                	sw	zero,0(sp)
		if(g_systick_millis - millis_prev_led_update > MILLIS_LED_UPDATE)
    1268:	4712                	lw	a4,4(sp)
    126a:	c381a783          	lw	a5,-968(gp) # 20000034 <g_systick_millis>
    126e:	8f99                	sub	a5,a5,a4
    1270:	4765                	li	a4,25
    1272:	04f77863          	bgeu	a4,a5,12c2 <main+0x3a4>

	static int16_t led_val = LED_MIN_VAL;
	static int8_t  led_inc = 5;
	
	// If the system is running, Fade the LED in and out steadily
	if(fading)
    1276:	c361c783          	lbu	a5,-970(gp) # 20000032 <g_heater_enabled>
    127a:	38078c63          	beqz	a5,1612 <main+0x6f4>
	{
		led_val += led_inc;
    127e:	c0818783          	lb	a5,-1016(gp) # 20000004 <led_inc.3>
    1282:	c061d703          	lhu	a4,-1018(gp) # 20000002 <led_val.2>

		// Flip to decrimenting if maximum is hit
		if(led_val >= LED_MAX_VAL) { led_val = LED_MAX_VAL; led_inc = -led_inc; }
    1286:	0fe00513          	li	a0,254
		led_val += led_inc;
    128a:	973e                	add	a4,a4,a5
    128c:	0742                	slli	a4,a4,0x10
    128e:	8741                	srai	a4,a4,0x10
		if(led_val >= LED_MAX_VAL) { led_val = LED_MAX_VAL; led_inc = -led_inc; }
    1290:	00e55b63          	bge	a0,a4,12a6 <main+0x388>
    1294:	0ff00713          	li	a4,255
    1298:	c0e19323          	sh	a4,-1018(gp) # 20000002 <led_val.2>

		// Flip to incrimenting if the minimum is hit
		if(led_val <= LED_MIN_VAL) { led_val = LED_MIN_VAL; led_inc = -led_inc; }
    129c:	40f007b3          	neg	a5,a5
    12a0:	c0f18423          	sb	a5,-1016(gp) # 20000004 <led_inc.3>
    12a4:	a039                	j	12b2 <main+0x394>
    12a6:	02800513          	li	a0,40
    12aa:	36e55163          	bge	a0,a4,160c <main+0x6ee>
		led_val += led_inc;
    12ae:	c0e19323          	sh	a4,-1018(gp) # 20000002 <led_val.2>
	// If the system isn't running, set the LED to maximum value
	} else { led_val = LED_MAX_VAL; }


	// Set the LED PWM to the calculated value
	pwm_set_duty(PWM_CHANNEL_LED, (uint8_t)led_val);
    12b2:	c061c703          	lbu	a4,-1018(gp) # 20000002 <led_val.2>
			TIM2->CH2CVR = duty;
    12b6:	400007b7          	lui	a5,0x40000
    12ba:	df98                	sw	a4,56(a5)
			millis_prev_led_update = g_systick_millis;
    12bc:	c381a783          	lw	a5,-968(gp) # 20000034 <g_systick_millis>
    12c0:	c23e                	sw	a5,4(sp)
		if(g_systick_millis - millis_prev_user_input_update > MILLIS_USER_INPUT_UPDATE)
    12c2:	4722                	lw	a4,8(sp)
    12c4:	c381a783          	lw	a5,-968(gp) # 20000034 <g_systick_millis>
    12c8:	8f99                	sub	a5,a5,a4
    12ca:	03200713          	li	a4,50
    12ce:	02f77f63          	bgeu	a4,a5,130c <main+0x3ee>
				int16_t inc = g_rotary_encoder_clicks * SETTING_TEMPERATURE_INCRIMENT;
    12d2:	c341d783          	lhu	a5,-972(gp) # 20000030 <g_rotary_encoder_clicks>
    12d6:	07c2                	slli	a5,a5,0x10
    12d8:	87c1                	srai	a5,a5,0x10
    12da:	00279593          	slli	a1,a5,0x2
    12de:	97ae                	add	a5,a5,a1
				g_target_temperature = CLAMP(g_target_temperature + inc, 
    12e0:	c0a19583          	lh	a1,-1014(gp) # 20000006 <g_target_temperature>
    12e4:	07c2                	slli	a5,a5,0x10
    12e6:	87c1                	srai	a5,a5,0x10
    12e8:	97ae                	add	a5,a5,a1
    12ea:	0dc00593          	li	a1,220
    12ee:	00f5d363          	bge	a1,a5,12f4 <main+0x3d6>
    12f2:	87ae                	mv	a5,a1
    12f4:	03200593          	li	a1,50
    12f8:	00b7d363          	bge	a5,a1,12fe <main+0x3e0>
    12fc:	87ae                	mv	a5,a1
    12fe:	c0f19523          	sh	a5,-1014(gp) # 20000006 <g_target_temperature>
				g_rotary_encoder_clicks = 0;
    1302:	c2019a23          	sh	zero,-972(gp) # 20000030 <g_rotary_encoder_clicks>
			millis_prev_user_input_update = g_systick_millis;
    1306:	c381a783          	lw	a5,-968(gp) # 20000034 <g_systick_millis>
    130a:	c43e                	sw	a5,8(sp)
		if(g_systick_millis - millis_prev_pid_temp_update > MILLIS_PID_TEMP_UPDATE)
    130c:	4732                	lw	a4,12(sp)
    130e:	c381a783          	lw	a5,-968(gp) # 20000034 <g_systick_millis>
    1312:	8f99                	sub	a5,a5,a4
    1314:	06400713          	li	a4,100
    1318:	12f77c63          	bgeu	a4,a5,1450 <main+0x532>
	GPIO_ADC1->RSQR3 = (uint32_t)chan;
    131c:	400127b7          	lui	a5,0x40012
    1320:	40078793          	addi	a5,a5,1024 # 40012400 <_eusrstack+0x20011c00>
    1324:	4715                	li	a4,5
    1326:	dbd8                	sw	a4,52(a5)
	GPIO_ADC1->CTLR2 |= ADC_SWSTART;
    1328:	4798                	lw	a4,8(a5)
    132a:	004006b7          	lui	a3,0x400
    132e:	8f55                	or	a4,a4,a3
    1330:	c798                	sw	a4,8(a5)
	while(!(GPIO_ADC1->STATR & ADC_EOC));
    1332:	4398                	lw	a4,0(a5)
    1334:	8b09                	andi	a4,a4,2
    1336:	df75                	beqz	a4,1332 <main+0x414>
	return GPIO_ADC1->RDATAR;
    1338:	47ec                	lw	a1,76(a5)
	if(adc >= thermistor_pair[0].adc)
    133a:	3f000793          	li	a5,1008
		return thermistor_pair[0].temp_c;
    133e:	4501                	li	a0,0
    1340:	05c2                	slli	a1,a1,0x10
    1342:	81c1                	srli	a1,a1,0x10
	if(adc >= thermistor_pair[0].adc)
    1344:	06b7e063          	bltu	a5,a1,13a4 <main+0x486>
	if(adc <= thermistor_pair[therm_max_index].adc)
    1348:	02500793          	li	a5,37
		return thermistor_pair[therm_max_index].temp_c;
    134c:	12c00513          	li	a0,300
	if(adc <= thermistor_pair[therm_max_index].adc)
    1350:	04b7fa63          	bgeu	a5,a1,13a4 <main+0x486>
    1354:	6685                	lui	a3,0x1
    1356:	77468613          	addi	a2,a3,1908 # 1774 <thermistor_pair>
    135a:	4781                	li	a5,0
    135c:	77468693          	addi	a3,a3,1908
	for(uint16_t ti = 0; ti < therm_max_index; ti++)
    1360:	04b00513          	li	a0,75
		adc0  = thermistor_pair[ti].adc;
    1364:	00265483          	lhu	s1,2(a2)
		if(adc <= adc0 && adc >= adc1)
    1368:	2ab4ea63          	bltu	s1,a1,161c <main+0x6fe>
		adc1  = thermistor_pair[ti + 1].adc;
    136c:	00665703          	lhu	a4,6(a2)
		if(adc <= adc0 && adc >= adc1)
    1370:	2ae5e663          	bltu	a1,a4,161c <main+0x6fe>
			temp0 = thermistor_pair[ti].temp_c;
    1374:	00279613          	slli	a2,a5,0x2
			temp1 = thermistor_pair[ti + 1].temp_c;
    1378:	0785                	addi	a5,a5,1
    137a:	078a                	slli	a5,a5,0x2
			temp0 = thermistor_pair[ti].temp_c;
    137c:	9636                	add	a2,a2,a3
			temp1 = thermistor_pair[ti + 1].temp_c;
    137e:	97b6                	add	a5,a5,a3
			temp0 = thermistor_pair[ti].temp_c;
    1380:	00065403          	lhu	s0,0(a2)
			output = temp0 + (uint32_t)(adc0 - adc) * (temp1 - temp0) / (adc0 - adc1);
    1384:	0007d503          	lhu	a0,0(a5)
    1388:	40b485b3          	sub	a1,s1,a1
    138c:	c63a                	sw	a4,12(sp)
    138e:	8d01                	sub	a0,a0,s0
    1390:	994ff0ef          	jal	524 <__mulsi3>
    1394:	4732                	lw	a4,12(sp)
    1396:	40e485b3          	sub	a1,s1,a4
    139a:	9aaff0ef          	jal	544 <__hidden___udivsi3>
    139e:	9522                	add	a0,a0,s0
    13a0:	0542                	slli	a0,a0,0x10
    13a2:	8141                	srli	a0,a0,0x10
			heater_pwm = pid_calculate(&heater_pid, g_measured_temperature, g_target_temperature);
    13a4:	c0a19403          	lh	s0,-1014(gp) # 20000006 <g_target_temperature>
	// Calculate the current Error and Derivative
	int32_t error = sp - pv;
	int32_t derivative = error - pid->_prev_error;

	// Prevent Integral Windup by clamping
	pid->_integral = CLAMP_MIN_MAX(pid->_integral, -pid->_iclamp, pid->_iclamp);
    13a8:	4702                	lw	a4,0(sp)
    13aa:	0542                	slli	a0,a0,0x10
    13ac:	6785                	lui	a5,0x1
    13ae:	8541                	srai	a0,a0,0x10
    13b0:	3ec78793          	addi	a5,a5,1004 # 13ec <main+0x4ce>
	int32_t error = sp - pv;
    13b4:	8c09                	sub	s0,s0,a0
	pid->_integral = CLAMP_MIN_MAX(pid->_integral, -pid->_iclamp, pid->_iclamp);
    13b6:	00e7d363          	bge	a5,a4,13bc <main+0x49e>
    13ba:	c03e                	sw	a5,0(sp)
    13bc:	4702                	lw	a4,0(sp)
    13be:	77fd                	lui	a5,0xfffff
    13c0:	c1478793          	addi	a5,a5,-1004 # ffffec14 <_eusrstack+0xdfffe414>
    13c4:	00f75363          	bge	a4,a5,13ca <main+0x4ac>
    13c8:	c03e                	sw	a5,0(sp)
	//if(pid->_integral >  pid->_iclamp)   pid->_integral =  pid->_iclamp;
	//if(pid->_integral < -pid->_iclamp)   pid->_integral = -pid->_iclamp;


	int64_t P = (int32_t)pid->Kp * error;
	int64_t I = (int32_t)pid->Ki * pid->_integral;
    13ca:	4702                	lw	a4,0(sp)
	int64_t P = (int32_t)pid->Kp * error;
    13cc:	00541793          	slli	a5,s0,0x5
	int64_t I = (int32_t)pid->Ki * pid->_integral;
    13d0:	4602                	lw	a2,0(sp)
	int64_t P = (int32_t)pid->Kp * error;
    13d2:	8f81                	sub	a5,a5,s0
    13d4:	078a                	slli	a5,a5,0x2
    13d6:	97a2                	add	a5,a5,s0
	int64_t I = (int32_t)pid->Ki * pid->_integral;
    13d8:	070a                	slli	a4,a4,0x2
	int64_t P = (int32_t)pid->Kp * error;
    13da:	00379693          	slli	a3,a5,0x3
	int64_t I = (int32_t)pid->Ki * pid->_integral;
    13de:	9732                	add	a4,a4,a2
    13e0:	41f75613          	srai	a2,a4,0x1f
	int64_t P = (int32_t)pid->Kp * error;
    13e4:	87fd                	srai	a5,a5,0x1f
	int64_t D = (int32_t)pid->Kd * derivative;
	// Add the PID values, then scale to preserve resolution of intagers
	int32_t cv = (int64_t)(P + I + D) / pid->scale;
    13e6:	9736                	add	a4,a4,a3
    13e8:	00d736b3          	sltu	a3,a4,a3
    13ec:	97b2                	add	a5,a5,a2
    13ee:	97b6                	add	a5,a5,a3
	int32_t derivative = error - pid->_prev_error;
    13f0:	46e2                	lw	a3,24(sp)
	int32_t cv = (int64_t)(P + I + D) / pid->scale;
    13f2:	06400613          	li	a2,100
	int32_t derivative = error - pid->_prev_error;
    13f6:	40d406b3          	sub	a3,s0,a3
	int64_t D = (int32_t)pid->Kd * derivative;
    13fa:	00269513          	slli	a0,a3,0x2
    13fe:	9536                	add	a0,a0,a3
    1400:	41f55693          	srai	a3,a0,0x1f
	int32_t cv = (int64_t)(P + I + D) / pid->scale;
    1404:	953a                	add	a0,a0,a4
    1406:	00e535b3          	sltu	a1,a0,a4
    140a:	97b6                	add	a5,a5,a3
    140c:	95be                	add	a1,a1,a5
    140e:	4681                	li	a3,0
    1410:	c91fe0ef          	jal	a0 <__divdi3>

	// Only accumulate the integration value if the output is not in saturation
	if(cv <= pid->out_max && cv >= pid->out_min)    pid->_integral += error;
    1414:	0ff00713          	li	a4,255
    1418:	00a74863          	blt	a4,a0,1428 <main+0x50a>
	
	// Clamp the CV Output to the min/max
	cv = CLAMP_MIN_MAX(cv, pid->out_min, pid->out_max);
    141c:	4781                	li	a5,0
	if(cv <= pid->out_max && cv >= pid->out_min)    pid->_integral += error;
    141e:	00054a63          	bltz	a0,1432 <main+0x514>
    1422:	4782                	lw	a5,0(sp)
    1424:	97a2                	add	a5,a5,s0
    1426:	c03e                	sw	a5,0(sp)
	cv = CLAMP_MIN_MAX(cv, pid->out_min, pid->out_max);
    1428:	87aa                	mv	a5,a0
    142a:	00a75463          	bge	a4,a0,1432 <main+0x514>
    142e:	0ff00793          	li	a5,255
			if(!g_heater_enabled) heater_pwm = 0x00;
    1432:	c361c683          	lbu	a3,-970(gp) # 20000032 <g_heater_enabled>
			heater_pwm = pid_calculate(&heater_pid, g_measured_temperature, g_target_temperature);
    1436:	c2f1a823          	sw	a5,-976(gp) # 2000002c <heater_pwm.4>
			if(!g_heater_enabled) heater_pwm = 0x00;
    143a:	e681                	bnez	a3,1442 <main+0x524>
    143c:	c201a823          	sw	zero,-976(gp) # 2000002c <heater_pwm.4>
    1440:	4781                	li	a5,0
			TIM2->CH3CVR = duty;
    1442:	40000737          	lui	a4,0x40000
    1446:	df5c                	sw	a5,60(a4)
			millis_prev_pid_temp_update = g_systick_millis;
    1448:	c381a783          	lw	a5,-968(gp) # 20000034 <g_systick_millis>

	// Update the previous error for derivative
	pid->_prev_error = error;
    144c:	cc22                	sw	s0,24(sp)
    144e:	c63e                	sw	a5,12(sp)
		if(g_systick_millis - millis_prev_battery_check > MILLIS_BATTERY_CHECK)
    1450:	4742                	lw	a4,16(sp)
    1452:	c381a783          	lw	a5,-968(gp) # 20000034 <g_systick_millis>
    1456:	8f99                	sub	a5,a5,a4
    1458:	0fa00713          	li	a4,250
    145c:	16f77b63          	bgeu	a4,a5,15d2 <main+0x6b4>
	GPIO_ADC1->RSQR3 = (uint32_t)chan;
    1460:	400124b7          	lui	s1,0x40012
    1464:	40048493          	addi	s1,s1,1024 # 40012400 <_eusrstack+0x20011c00>
    1468:	47a1                	li	a5,8
    146a:	d8dc                	sw	a5,52(s1)
	GPIO_ADC1->CTLR2 |= ADC_SWSTART;
    146c:	449c                	lw	a5,8(s1)
    146e:	00400737          	lui	a4,0x400
    1472:	8fd9                	or	a5,a5,a4
    1474:	c49c                	sw	a5,8(s1)
	while(!(GPIO_ADC1->STATR & ADC_EOC));
    1476:	409c                	lw	a5,0(s1)
    1478:	8b89                	andi	a5,a5,2
    147a:	dff5                	beqz	a5,1476 <main+0x558>
	return GPIO_ADC1->RDATAR;
    147c:	44ec                	lw	a1,76(s1)
uint16_t gpio_read_system_mv(void)
{
	// Get the raw ADC Value for the VREF - shift by 10 (*1024),
	// then divide it by the ADC maximum.
	// This is the VREF Multiplier
	uint32_t vref_multiplier = ((uint32_t)GPIO_ADC_MAXIMUM << 10) / gpio_analog_read(GPIO_ADC_VREF);
    147e:	00100537          	lui	a0,0x100
    1482:	c0050513          	addi	a0,a0,-1024 # ffc00 <oled.c.435159ad+0xfa7aa>
    1486:	05c2                	slli	a1,a1,0x10
    1488:	81c1                	srli	a1,a1,0x10
    148a:	8baff0ef          	jal	544 <__hidden___udivsi3>

	// The mV value is equal to the ADC_VREF Millivolts, multiplied by the VREF
	// Multiplier, then shifted by 10 (/1024) to scale back down to mV
	return (GPIO_ADC_REF_MV * vref_multiplier) >> 10;
    148e:	00251793          	slli	a5,a0,0x2
    1492:	953e                	add	a0,a0,a5
	GPIO_ADC1->RSQR3 = (uint32_t)chan;
    1494:	4799                	li	a5,6
    1496:	d8dc                	sw	a5,52(s1)
	GPIO_ADC1->CTLR2 |= ADC_SWSTART;
    1498:	449c                	lw	a5,8(s1)
	return (GPIO_ADC_REF_MV * vref_multiplier) >> 10;
    149a:	00451413          	slli	s0,a0,0x4
	GPIO_ADC1->CTLR2 |= ADC_SWSTART;
    149e:	00400737          	lui	a4,0x400
	return (GPIO_ADC_REF_MV * vref_multiplier) >> 10;
    14a2:	8c09                	sub	s0,s0,a0
	GPIO_ADC1->CTLR2 |= ADC_SWSTART;
    14a4:	8fd9                	or	a5,a5,a4
	return (GPIO_ADC_REF_MV * vref_multiplier) >> 10;
    14a6:	0412                	slli	s0,s0,0x4
	while(!(GPIO_ADC1->STATR & ADC_EOC));
    14a8:	40012737          	lui	a4,0x40012
	return (GPIO_ADC_REF_MV * vref_multiplier) >> 10;
    14ac:	8029                	srli	s0,s0,0xa
	GPIO_ADC1->CTLR2 |= ADC_SWSTART;
    14ae:	c49c                	sw	a5,8(s1)
	while(!(GPIO_ADC1->STATR & ADC_EOC));
    14b0:	40070713          	addi	a4,a4,1024 # 40012400 <_eusrstack+0x20011c00>
    14b4:	431c                	lw	a5,0(a4)
    14b6:	8b89                	andi	a5,a5,2
    14b8:	dff5                	beqz	a5,14b4 <main+0x596>
	return GPIO_ADC1->RDATAR;
    14ba:	01041793          	slli	a5,s0,0x10
    14be:	83c1                	srli	a5,a5,0x10
	// The Voltage Divider is 33K || 8K2, to get the inverse of the divider ratio:
	//  R2      /     (R1    +    R2)
	// 8K2      /     (33K   +   8K2)
	// (Invert)
	// 41K2     /      8K2         = 5.024
	uint32_t scaled_mv = ((uint32_t)system_mv * 5024) / 1000;
    14c0:	6585                	lui	a1,0x1
    14c2:	853e                	mv	a0,a5
    14c4:	3a058593          	addi	a1,a1,928 # 13a0 <main+0x482>
    14c8:	4764                	lw	s1,76(a4)
    14ca:	c83e                	sw	a5,16(sp)
    14cc:	858ff0ef          	jal	524 <__mulsi3>
    14d0:	3e800593          	li	a1,1000
    14d4:	870ff0ef          	jal	544 <__hidden___udivsi3>
	return ((uint32_t)battery_adc * scaled_mv) / ADC_MAXIMUM;
    14d8:	01049593          	slli	a1,s1,0x10
    14dc:	81c1                	srli	a1,a1,0x10
    14de:	846ff0ef          	jal	524 <__mulsi3>
    14e2:	3ff00593          	li	a1,1023
    14e6:	85eff0ef          	jal	544 <__hidden___udivsi3>
    14ea:	01051493          	slli	s1,a0,0x10
    14ee:	80c1                	srli	s1,s1,0x10
			g_battery_voltage_mv = battery_read_mv(system_mv);
    14f0:	c2919623          	sh	s1,-980(gp) # 20000028 <g_battery_voltage_mv>
	rolling_sum -= _average_current_buffer[average_index];
    14f4:	c201c403          	lbu	s0,-992(gp) # 2000001c <average_index.0>
    14f8:	c3c18693          	addi	a3,gp,-964 # 20000038 <_average_current_buffer>
    14fc:	00141593          	slli	a1,s0,0x1
    1500:	96ae                	add	a3,a3,a1
    1502:	0006d683          	lhu	a3,0(a3)
    1506:	c241a583          	lw	a1,-988(gp) # 20000020 <rolling_sum.1>
    150a:	40d587b3          	sub	a5,a1,a3
    150e:	ce3e                	sw	a5,28(sp)
	GPIO_ADC1->RSQR3 = (uint32_t)chan;
    1510:	400127b7          	lui	a5,0x40012
    1514:	40078713          	addi	a4,a5,1024 # 40012400 <_eusrstack+0x20011c00>
    1518:	469d                	li	a3,7
    151a:	db54                	sw	a3,52(a4)
	GPIO_ADC1->CTLR2 |= ADC_SWSTART;
    151c:	4714                	lw	a3,8(a4)
    151e:	004005b7          	lui	a1,0x400
    1522:	c3c18793          	addi	a5,gp,-964 # 20000038 <_average_current_buffer>
    1526:	8ecd                	or	a3,a3,a1
    1528:	c714                	sw	a3,8(a4)
	while(!(GPIO_ADC1->STATR & ADC_EOC));
    152a:	40012737          	lui	a4,0x40012
    152e:	d03e                	sw	a5,32(sp)
    1530:	40070713          	addi	a4,a4,1024 # 40012400 <_eusrstack+0x20011c00>
    1534:	4314                	lw	a3,0(a4)
    1536:	8a89                	andi	a3,a3,2
    1538:	def5                	beqz	a3,1534 <main+0x616>
	return GPIO_ADC1->RDATAR;
    153a:	4778                	lw	a4,76(a4)
		((gpio_analog_read(OPAMP_ADC_CH) - _opamp_calibration_offset) 
    153c:	c1e19503          	lh	a0,-994(gp) # 2000001a <_opamp_calibration_offset>
		* _opamp_calibration_gain) >> 10;
    1540:	c1c19583          	lh	a1,-996(gp) # 20000018 <_opamp_calibration_gain>
		((gpio_analog_read(OPAMP_ADC_CH) - _opamp_calibration_offset) 
    1544:	0742                	slli	a4,a4,0x10
    1546:	8341                	srli	a4,a4,0x10
		* _opamp_calibration_gain) >> 10;
    1548:	40a70533          	sub	a0,a4,a0
    154c:	fd9fe0ef          	jal	524 <__mulsi3>
    1550:	40a55713          	srai	a4,a0,0xa
	int16_t opamp_calibrated_adc = 
    1554:	853a                	mv	a0,a4
	if(opamp_calibrated_adc > 1023)  opamp_calibrated_adc = 1023;
    1556:	0742                	slli	a4,a4,0x10
    1558:	8741                	srai	a4,a4,0x10
    155a:	3ff00693          	li	a3,1023
    155e:	0ce6d563          	bge	a3,a4,1628 <main+0x70a>
    1562:	8536                	mv	a0,a3
	uint16_t opamp_mv_raw = ((uint32_t)opamp_calibrated_adc * system_mv) / ADC_MAXIMUM;
    1564:	45c2                	lw	a1,16(sp)
    1566:	0542                	slli	a0,a0,0x10
    1568:	8541                	srai	a0,a0,0x10
    156a:	fbbfe0ef          	jal	524 <__mulsi3>
    156e:	3ff00593          	li	a1,1023
    1572:	fd3fe0ef          	jal	544 <__hidden___udivsi3>
	uint16_t opamp_ma = ((opamp_mv_raw * 1000) / OPAMP_SENSE_MILLOHM) >> OPAMP_GAIN_SHIFT;
    1576:	00551713          	slli	a4,a0,0x5
    157a:	8f09                	sub	a4,a4,a0
    157c:	070a                	slli	a4,a4,0x2
    157e:	953a                	add	a0,a0,a4
    1580:	02500593          	li	a1,37
    1584:	050e                	slli	a0,a0,0x3
    1586:	fb7fe0ef          	jal	53c <__divsi3>
	_average_current_buffer[average_index] = opamp_read_rsense_ma(system_mv);
    158a:	5782                	lw	a5,32(sp)
    158c:	00141713          	slli	a4,s0,0x1
	uint16_t opamp_ma = ((opamp_mv_raw * 1000) / OPAMP_SENSE_MILLOHM) >> OPAMP_GAIN_SHIFT;
    1590:	8511                	srai	a0,a0,0x4
	_average_current_buffer[average_index] = opamp_read_rsense_ma(system_mv);
    1592:	973e                	add	a4,a4,a5
	rolling_sum += _average_current_buffer[average_index];
    1594:	47f2                	lw	a5,28(sp)
	uint16_t opamp_ma = ((opamp_mv_raw * 1000) / OPAMP_SENSE_MILLOHM) >> OPAMP_GAIN_SHIFT;
    1596:	00a71023          	sh	a0,0(a4)
	rolling_sum += _average_current_buffer[average_index];
    159a:	0542                	slli	a0,a0,0x10
    159c:	8141                	srli	a0,a0,0x10
    159e:	953e                	add	a0,a0,a5
	average_index = (average_index + 1) & (AVG_SAMPLES - 1);
    15a0:	00140793          	addi	a5,s0,1
    15a4:	8b9d                	andi	a5,a5,7
	rolling_sum += _average_current_buffer[average_index];
    15a6:	c2a1a223          	sw	a0,-988(gp) # 20000020 <rolling_sum.1>
	average_index = (average_index + 1) & (AVG_SAMPLES - 1);
    15aa:	c2f18023          	sb	a5,-992(gp) # 2000001c <average_index.0>
			if(  (g_battery_voltage_mv <= BATTERY_UNDERVOLTAGE_SHUTDOWN_MV) ||
    15ae:	6791                	lui	a5,0x4
    15b0:	b6078793          	addi	a5,a5,-1184 # 3b60 <tcrhmag.c.187b28da+0xd98>
    15b4:	0097fa63          	bgeu	a5,s1,15c8 <main+0x6aa>
	return (uint16_t)(rolling_sum >> AVG_DIV_SHIFT);
    15b8:	810d                	srli	a0,a0,0x3
    15ba:	0542                	slli	a0,a0,0x10
    15bc:	6785                	lui	a5,0x1
    15be:	8141                	srli	a0,a0,0x10
    15c0:	57b78793          	addi	a5,a5,1403 # 157b <main+0x65d>
    15c4:	00a7f463          	bgeu	a5,a0,15cc <main+0x6ae>
				g_heater_enabled   = false;
    15c8:	c2018b23          	sb	zero,-970(gp) # 20000032 <g_heater_enabled>
			millis_prev_battery_check = g_systick_millis;
    15cc:	c381a783          	lw	a5,-968(gp) # 20000034 <g_systick_millis>
    15d0:	c83e                	sw	a5,16(sp)
		if(g_systick_millis - millis_prev_display_update > MILLIS_DISPLAY_UPDATE)
    15d2:	4752                	lw	a4,20(sp)
    15d4:	c381a783          	lw	a5,-968(gp) # 20000034 <g_systick_millis>
    15d8:	8f99                	sub	a5,a5,a4
    15da:	0c800713          	li	a4,200
    15de:	02f77063          	bgeu	a4,a5,15fe <main+0x6e0>



oled_err_t oled_update(void)
{
	if(_oled_dev == NULL) return OLED_UNSET_DEVICE;
    15e2:	c281a483          	lw	s1,-984(gp) # 20000024 <_oled_dev>
			memset((uint8_t *)_oled_buffer, g_target_temperature, 128);
    15e6:	c0a19583          	lh	a1,-1014(gp) # 20000006 <g_target_temperature>
    15ea:	08000613          	li	a2,128
    15ee:	c4c18513          	addi	a0,gp,-948 # 20000048 <_oled_buffer>
    15f2:	8abff0ef          	jal	e9c <memset>
    15f6:	ec9d                	bnez	s1,1634 <main+0x716>
			millis_prev_display_update = g_systick_millis;
    15f8:	c381a783          	lw	a5,-968(gp) # 20000034 <g_systick_millis>
    15fc:	ca3e                	sw	a5,20(sp)
{ IWDG->CTLR = 0xAAAA; }
    15fe:	67ad                	lui	a5,0xb
    1600:	40003737          	lui	a4,0x40003
    1604:	aaa78793          	addi	a5,a5,-1366 # aaaa <oled.c.435159ad+0x5654>
    1608:	c31c                	sw	a5,0(a4)
    160a:	b9b9                	j	1268 <main+0x34a>
		if(led_val <= LED_MIN_VAL) { led_val = LED_MIN_VAL; led_inc = -led_inc; }
    160c:	c0a19323          	sh	a0,-1018(gp) # 20000002 <led_val.2>
    1610:	b171                	j	129c <main+0x37e>
	} else { led_val = LED_MAX_VAL; }
    1612:	0ff00793          	li	a5,255
    1616:	c0f19323          	sh	a5,-1018(gp) # 20000002 <led_val.2>
    161a:	b961                	j	12b2 <main+0x394>
	for(uint16_t ti = 0; ti < therm_max_index; ti++)
    161c:	0785                	addi	a5,a5,1
    161e:	0611                	addi	a2,a2,4
    1620:	d4a792e3          	bne	a5,a0,1364 <main+0x446>
		return thermistor_pair[0].temp_c;
    1624:	4501                	li	a0,0
    1626:	bbbd                	j	13a4 <main+0x486>
	if(opamp_calibrated_adc < 0)     opamp_calibrated_adc = 0;
    1628:	01051713          	slli	a4,a0,0x10
    162c:	f2075ce3          	bgez	a4,1564 <main+0x646>
    1630:	4501                	li	a0,0
    1632:	bf0d                	j	1564 <main+0x646>
	
	// Reset the Position Pointers and set the usable window for the display
	OLED_WRITE(OLED_REG_COMMAND, _col_arr,  sizeof(_col_arr));
    1634:	468d                	li	a3,3
    1636:	c1018613          	addi	a2,gp,-1008 # 2000000c <_col_arr>
    163a:	4581                	li	a1,0
    163c:	8526                	mv	a0,s1
    163e:	b80ff0ef          	jal	9be <i2c_write_reg>
    1642:	f95d                	bnez	a0,15f8 <main+0x6da>
	OLED_WRITE(OLED_REG_COMMAND, _page_arr, sizeof(_page_arr));
    1644:	468d                	li	a3,3
    1646:	c0c18613          	addi	a2,gp,-1012 # 20000008 <_page_arr>
    164a:	4581                	li	a1,0
    164c:	8526                	mv	a0,s1
    164e:	b70ff0ef          	jal	9be <i2c_write_reg>
    1652:	f15d                	bnez	a0,15f8 <main+0x6da>
    1654:	c4c18413          	addi	s0,gp,-948 # 20000048 <_oled_buffer>

	// Write the OLED Display Data
	// Write all the display data
	for(int page = 0; page < OLED_PAGES; page++)
		OLED_WRITE(OLED_REG_DISPLAY_START, _oled_buffer[page], OLED_WIDTH);
    1658:	08000693          	li	a3,128
    165c:	8622                	mv	a2,s0
    165e:	04000593          	li	a1,64
    1662:	8526                	mv	a0,s1
    1664:	b5aff0ef          	jal	9be <i2c_write_reg>
    1668:	f941                	bnez	a0,15f8 <main+0x6da>
	for(int page = 0; page < OLED_PAGES; page++)
    166a:	08040413          	addi	s0,s0,128
    166e:	04c18793          	addi	a5,gp,76 # 20000448 <_ebss>
    1672:	fe8793e3          	bne	a5,s0,1658 <main+0x73a>
    1676:	b749                	j	15f8 <main+0x6da>

00001678 <SysTick_Handler>:
{
    1678:	1151                	addi	sp,sp,-12
    167a:	c03e                	sw	a5,0(sp)
	SysTick->CMP += SYSTICK_ONE_MILLISECOND;
    167c:	e000f7b7          	lui	a5,0xe000f
{
    1680:	c23a                	sw	a4,4(sp)
	SysTick->CMP += SYSTICK_ONE_MILLISECOND;
    1682:	4b98                	lw	a4,16(a5)
{
    1684:	c436                	sw	a3,8(sp)
	SysTick->CMP += SYSTICK_ONE_MILLISECOND;
    1686:	66b1                	lui	a3,0xc
    1688:	b8068693          	addi	a3,a3,-1152 # bb80 <oled.c.435159ad+0x672a>
    168c:	9736                	add	a4,a4,a3
    168e:	cb98                	sw	a4,16(a5)
	SysTick->SR = 0x00000000;
    1690:	0007a223          	sw	zero,4(a5) # e000f004 <_eusrstack+0xc000e804>
	g_systick_millis++;
    1694:	c381a783          	lw	a5,-968(gp) # 20000034 <g_systick_millis>
}
    1698:	46a2                	lw	a3,8(sp)
	g_systick_millis++;
    169a:	0785                	addi	a5,a5,1
    169c:	c2f1ac23          	sw	a5,-968(gp) # 20000034 <g_systick_millis>
}
    16a0:	4712                	lw	a4,4(sp)
    16a2:	4782                	lw	a5,0(sp)
    16a4:	0131                	addi	sp,sp,12
    16a6:	30200073          	mret

000016aa <EXTI7_0_IRQHandler>:
{
    16aa:	1121                	addi	sp,sp,-24
    16ac:	c03e                	sw	a5,0(sp)
	if((EXTI->INTFR & 0x00000010) || (EXTI->INTFR & 0x00000020))
    16ae:	400107b7          	lui	a5,0x40010
    16b2:	40078793          	addi	a5,a5,1024 # 40010400 <_eusrstack+0x2000fc00>
{
    16b6:	c23a                	sw	a4,4(sp)
	if((EXTI->INTFR & 0x00000010) || (EXTI->INTFR & 0x00000020))
    16b8:	4bd8                	lw	a4,20(a5)
{
    16ba:	ca2a                	sw	a0,20(sp)
    16bc:	c82e                	sw	a1,16(sp)
    16be:	c632                	sw	a2,12(sp)
    16c0:	c436                	sw	a3,8(sp)
	if((EXTI->INTFR & 0x00000010) || (EXTI->INTFR & 0x00000020))
    16c2:	8b41                	andi	a4,a4,16
    16c4:	e709                	bnez	a4,16ce <EXTI7_0_IRQHandler+0x24>
    16c6:	4bdc                	lw	a5,20(a5)
    16c8:	0207f793          	andi	a5,a5,32
    16cc:	cfb5                	beqz	a5,1748 <EXTI7_0_IRQHandler+0x9e>
		if(EXTI->INTFR & 0x10) EXTI->INTFR = 0x10;
    16ce:	40010737          	lui	a4,0x40010
		uint32_t portc_read = GPIOC->INDR;
    16d2:	400117b7          	lui	a5,0x40011
		if(EXTI->INTFR & 0x10) EXTI->INTFR = 0x10;
    16d6:	40070713          	addi	a4,a4,1024 # 40010400 <_eusrstack+0x2000fc00>
		uint32_t portc_read = GPIOC->INDR;
    16da:	479c                	lw	a5,8(a5)
		if(EXTI->INTFR & 0x10) EXTI->INTFR = 0x10;
    16dc:	4b54                	lw	a3,20(a4)
    16de:	8ac1                	andi	a3,a3,16
    16e0:	c299                	beqz	a3,16e6 <EXTI7_0_IRQHandler+0x3c>
    16e2:	46c1                	li	a3,16
    16e4:	cb54                	sw	a3,20(a4)
		if(EXTI->INTFR & 0x20) EXTI->INTFR = 0x20;
    16e6:	4b54                	lw	a3,20(a4)
    16e8:	0206f693          	andi	a3,a3,32
    16ec:	c681                	beqz	a3,16f4 <EXTI7_0_IRQHandler+0x4a>
    16ee:	02000693          	li	a3,32
    16f2:	cb54                	sw	a3,20(a4)
		int8_t step = rotenc_table[ (rotenc_prev_bitmask << 2) | rotenc_curr_bitmask ];
    16f4:	c0418683          	lb	a3,-1020(gp) # 20000000 <rotenc_prev_bitmask.1>
		       int8_t rotenc_curr_bitmask = (((portc_read >> 4) & 1) << 1) | ((portc_read >> 5) & 1);
    16f8:	0037d713          	srli	a4,a5,0x3
    16fc:	8395                	srli	a5,a5,0x5
    16fe:	8b09                	andi	a4,a4,2
    1700:	8b85                	andi	a5,a5,1
    1702:	00f76633          	or	a2,a4,a5
		int8_t step = rotenc_table[ (rotenc_prev_bitmask << 2) | rotenc_curr_bitmask ];
    1706:	068a                	slli	a3,a3,0x2
    1708:	6789                	lui	a5,0x2
    170a:	8ed1                	or	a3,a3,a2
    170c:	9f878793          	addi	a5,a5,-1544 # 19f8 <rotenc_table>
    1710:	97b6                	add	a5,a5,a3
		       int8_t rotenc_curr_bitmask = (((portc_read >> 4) & 1) << 1) | ((portc_read >> 5) & 1);
    1712:	8732                	mv	a4,a2
		accumulator += step;
    1714:	c141c683          	lbu	a3,-1004(gp) # 20000010 <accumulator.0>
    1718:	0007c783          	lbu	a5,0(a5)
		     if(accumulator >=  4) { g_rotary_encoder_clicks++; accumulator -= 4; }
    171c:	450d                	li	a0,3
		accumulator += step;
    171e:	97b6                	add	a5,a5,a3
    1720:	0ff7f693          	zext.b	a3,a5
    1724:	07e2                	slli	a5,a5,0x18
    1726:	87e1                	srai	a5,a5,0x18
    1728:	c0f18a23          	sb	a5,-1004(gp) # 20000010 <accumulator.0>
		     if(accumulator >=  4) { g_rotary_encoder_clicks++; accumulator -= 4; }
    172c:	02f55763          	bge	a0,a5,175a <EXTI7_0_IRQHandler+0xb0>
    1730:	c341d783          	lhu	a5,-972(gp) # 20000030 <g_rotary_encoder_clicks>
    1734:	16f1                	addi	a3,a3,-4
    1736:	0785                	addi	a5,a5,1
    1738:	07c2                	slli	a5,a5,0x10
    173a:	87c1                	srai	a5,a5,0x10
    173c:	c2f19a23          	sh	a5,-972(gp) # 20000030 <g_rotary_encoder_clicks>
		else if(accumulator <= -4) { g_rotary_encoder_clicks--; accumulator += 4; }
    1740:	c0d18a23          	sb	a3,-1004(gp) # 20000010 <accumulator.0>
		rotenc_prev_bitmask = rotenc_curr_bitmask;
    1744:	c0e18223          	sb	a4,-1020(gp) # 20000000 <rotenc_prev_bitmask.1>
}
    1748:	4552                	lw	a0,20(sp)
    174a:	45c2                	lw	a1,16(sp)
    174c:	4632                	lw	a2,12(sp)
    174e:	46a2                	lw	a3,8(sp)
    1750:	4712                	lw	a4,4(sp)
    1752:	4782                	lw	a5,0(sp)
    1754:	0161                	addi	sp,sp,24
    1756:	30200073          	mret
		else if(accumulator <= -4) { g_rotary_encoder_clicks--; accumulator += 4; }
    175a:	5575                	li	a0,-3
    175c:	fea7d4e3          	bge	a5,a0,1744 <EXTI7_0_IRQHandler+0x9a>
    1760:	c341d783          	lhu	a5,-972(gp) # 20000030 <g_rotary_encoder_clicks>
    1764:	0691                	addi	a3,a3,4
    1766:	17fd                	addi	a5,a5,-1
    1768:	07c2                	slli	a5,a5,0x10
    176a:	87c1                	srai	a5,a5,0x10
    176c:	c2f19a23          	sh	a5,-972(gp) # 20000030 <g_rotary_encoder_clicks>
    1770:	bfc1                	j	1740 <EXTI7_0_IRQHandler+0x96>
	...

00001774 <thermistor_pair>:
    1774:	0000 03f1 0004 03ee 0008 03ea 000c 03e5     ................
    1784:	0010 03e0 0014 03da 0018 03d3 001c 03cb     ................
    1794:	0020 03c2 0024 03b7 0028 03ac 002c 039f      ...$...(...,...
    17a4:	0030 0390 0034 0380 0038 036f 003c 035c     0...4...8.o.<.\.
    17b4:	0040 0348 0044 0333 0048 031c 004c 0304     @.H.D.3.H...L...
    17c4:	0050 02eb 0054 02d1 0058 02b6 005c 029b     P...T...X...\...
    17d4:	0060 027f 0064 0263 0068 0247 006c 022c     `...d.c.h.G.l.,.
    17e4:	0070 0210 0074 01f5 0078 01db 007c 01c1     p...t...x...|...
    17f4:	0080 01a8 0084 0190 0088 0179 008c 0163     ..........y...c.
    1804:	0090 014f 0094 013b 0098 0128 009c 0116     ..O...;...(.....
    1814:	00a0 0105 00a4 00f5 00a8 00e6 00ac 00d8     ................
    1824:	00b0 00cb 00b4 00bf 00b8 00b3 00bc 00a8     ................
    1834:	00c0 009e 00c4 0095 00c8 008c 00cc 0084     ................
    1844:	00d0 007c 00d4 0075 00d8 006e 00dc 0068     ..|...u...n...h.
    1854:	00e0 0062 00e4 005c 00e8 0057 00ec 0053     ..b...\...W...S.
    1864:	00f0 004e 00f4 004a 00f8 0046 00fc 0042     ..N...J...F...B.
    1874:	0100 003f 0104 003c 0108 0039 010c 0036     ..?...<...9...6.
    1884:	0110 0033 0114 0031 0118 002e 011c 002c     ..3...1.......,.
    1894:	0120 002a 0124 0028 0128 0026 012c 0025      .*.$.(.(.&.,.%.
    18a4:	4240 000f 0000 0000 003c 0001 07d0 0000     @B......<.......
    18b4:	d5ae a8f0 d33f 4000 148d 0020 c8a1 12da     ....?..@.. .....
    18c4:	7f81 22d9 40db a6a4 00af 0000               ...".@......

000018d0 <__clz_tab>:
    18d0:	0100 0202 0303 0303 0404 0404 0404 0404     ................
    18e0:	0505 0505 0505 0505 0505 0505 0505 0505     ................
    18f0:	0606 0606 0606 0606 0606 0606 0606 0606     ................
    1900:	0606 0606 0606 0606 0606 0606 0606 0606     ................
    1910:	0707 0707 0707 0707 0707 0707 0707 0707     ................
    1920:	0707 0707 0707 0707 0707 0707 0707 0707     ................
    1930:	0707 0707 0707 0707 0707 0707 0707 0707     ................
    1940:	0707 0707 0707 0707 0707 0707 0707 0707     ................
    1950:	0808 0808 0808 0808 0808 0808 0808 0808     ................
    1960:	0808 0808 0808 0808 0808 0808 0808 0808     ................
    1970:	0808 0808 0808 0808 0808 0808 0808 0808     ................
    1980:	0808 0808 0808 0808 0808 0808 0808 0808     ................
    1990:	0808 0808 0808 0808 0808 0808 0808 0808     ................
    19a0:	0808 0808 0808 0808 0808 0808 0808 0808     ................
    19b0:	0808 0808 0808 0808 0808 0808 0808 0808     ................
    19c0:	0808 0808 0808 0808 0808 0808 0808 0808     ................
    19d0:	666f 7366 7465 203a 6425 6709 6961 3a6e     offset: %d.gain:
    19e0:	2520 0a64 0000 0000                          %d.....

000019e8 <GPIO_PORT_MAP>:
    19e8:	0800 4001 0000 0000 1000 4001 1400 4001     ...@.......@...@

000019f8 <rotenc_table>:
    19f8:	ff00 0001 0001 ff00 00ff 0100 0100 00ff     ................
