
build/tcrhmag.elf:     file format elf32-littleriscv


Disassembly of section .init:

00000000 <InterruptVector>:
	void InterruptVector()         __attribute__((naked)) __attribute((section(".init"))) __attribute((weak,alias("InterruptVectorDefault"))) __attribute((naked));
	void InterruptVectorDefault()  __attribute__((naked)) __attribute((section(".init"))) __attribute((naked));
	void InterruptVectorDefault( void )
	{
		#if !defined(FUNCONF_TINYVECTOR) || !FUNCONF_TINYVECTOR
			asm volatile( DEFAULT_INTERRUPT_VECTOR_CONTENTS );
   0:	4bd0006f          	j	cbc <handle_reset>
   4:	00000000          	.word	0x00000000
   8:	00000d82          	.word	0x00000d82
   c:	00000d2e          	.word	0x00000d2e
	...
  30:	00001a3e          	.word	0x00001a3e
  34:	00000000          	.word	0x00000000
  38:	00000d2e          	.word	0x00000d2e
  3c:	00000000          	.word	0x00000000
  40:	00000d2e          	.word	0x00000d2e
  44:	00000d2e          	.word	0x00000d2e
  48:	00000d2e          	.word	0x00000d2e
  4c:	00000d2e          	.word	0x00000d2e
  50:	00001a70          	.word	0x00001a70
  54:	00000d2e          	.word	0x00000d2e
  58:	00000d2e          	.word	0x00000d2e
  5c:	00000d2e          	.word	0x00000d2e
  60:	00000d2e          	.word	0x00000d2e
  64:	00000d2e          	.word	0x00000d2e
  68:	00000d2e          	.word	0x00000d2e
  6c:	00000d2e          	.word	0x00000d2e
  70:	00000d2e          	.word	0x00000d2e
  74:	00000d2e          	.word	0x00000d2e
  78:	00000d2e          	.word	0x00000d2e
  7c:	00000d2e          	.word	0x00000d2e
  80:	00000d2e          	.word	0x00000d2e
  84:	00000d2e          	.word	0x00000d2e
  88:	00000d2e          	.word	0x00000d2e
  8c:	00000d2e          	.word	0x00000d2e
  90:	00000d2e          	.word	0x00000d2e
  94:	00000d2e          	.word	0x00000d2e
  98:	00000d2e          	.word	0x00000d2e
  9c:	0000                	unimp
	...

Disassembly of section .text:

000000a0 <__divdi3>:
      a0:	fcc10113          	addi	sp,sp,-52
      a4:	d806                	sw	ra,48(sp)
      a6:	d622                	sw	s0,44(sp)
      a8:	d426                	sw	s1,40(sp)
      aa:	c002                	sw	zero,0(sp)
      ac:	832a                	mv	t1,a0
      ae:	0005db63          	bgez	a1,c4 <__divdi3+0x24>
      b2:	00a037b3          	snez	a5,a0
      b6:	40b005b3          	neg	a1,a1
      ba:	8d9d                	sub	a1,a1,a5
      bc:	57fd                	li	a5,-1
      be:	40a00333          	neg	t1,a0
      c2:	c03e                	sw	a5,0(sp)
      c4:	0006dd63          	bgez	a3,de <__divdi3+0x3e>
      c8:	4782                	lw	a5,0(sp)
      ca:	40d006b3          	neg	a3,a3
      ce:	fff7c793          	not	a5,a5
      d2:	c03e                	sw	a5,0(sp)
      d4:	00c037b3          	snez	a5,a2
      d8:	8e9d                	sub	a3,a3,a5
      da:	40c00633          	neg	a2,a2
      de:	82b2                	mv	t0,a2
      e0:	841a                	mv	s0,t1
      e2:	84ae                	mv	s1,a1
      e4:	2a069563          	bnez	a3,38e <__divdi3+0x2ee>
      e8:	6689                	lui	a3,0x2
      ea:	c9468693          	addi	a3,a3,-876 # 1c94 <__clz_tab>
      ee:	0ec5f563          	bgeu	a1,a2,1d8 <__divdi3+0x138>
      f2:	67c1                	lui	a5,0x10
      f4:	0cf67b63          	bgeu	a2,a5,1ca <__divdi3+0x12a>
      f8:	10063793          	sltiu	a5,a2,256
      fc:	0017c793          	xori	a5,a5,1
     100:	078e                	slli	a5,a5,0x3
     102:	00f65533          	srl	a0,a2,a5
     106:	96aa                	add	a3,a3,a0
     108:	0006c683          	lbu	a3,0(a3)
     10c:	02000513          	li	a0,32
     110:	97b6                	add	a5,a5,a3
     112:	40f506b3          	sub	a3,a0,a5
     116:	00f50c63          	beq	a0,a5,12e <__divdi3+0x8e>
     11a:	00d59733          	sll	a4,a1,a3
     11e:	00f357b3          	srl	a5,t1,a5
     122:	00d612b3          	sll	t0,a2,a3
     126:	00e7e4b3          	or	s1,a5,a4
     12a:	00d31433          	sll	s0,t1,a3
     12e:	0102d793          	srli	a5,t0,0x10
     132:	c23e                	sw	a5,4(sp)
     134:	4592                	lw	a1,4(sp)
     136:	01029793          	slli	a5,t0,0x10
     13a:	83c1                	srli	a5,a5,0x10
     13c:	8526                	mv	a0,s1
     13e:	ca16                	sw	t0,20(sp)
     140:	c43e                	sw	a5,8(sp)
     142:	2109                	jal	544 <__hidden___udivsi3>
     144:	85aa                	mv	a1,a0
     146:	c82a                	sw	a0,16(sp)
     148:	4522                	lw	a0,8(sp)
     14a:	2ee9                	jal	524 <__mulsi3>
     14c:	4592                	lw	a1,4(sp)
     14e:	c62a                	sw	a0,12(sp)
     150:	8526                	mv	a0,s1
     152:	2939                	jal	570 <__umodsi3>
     154:	4642                	lw	a2,16(sp)
     156:	46b2                	lw	a3,12(sp)
     158:	0542                	slli	a0,a0,0x10
     15a:	01045713          	srli	a4,s0,0x10
     15e:	8f49                	or	a4,a4,a0
     160:	42d2                	lw	t0,20(sp)
     162:	84b2                	mv	s1,a2
     164:	00d77c63          	bgeu	a4,a3,17c <__divdi3+0xdc>
     168:	9716                	add	a4,a4,t0
     16a:	fff60493          	addi	s1,a2,-1
     16e:	00576763          	bltu	a4,t0,17c <__divdi3+0xdc>
     172:	00d77563          	bgeu	a4,a3,17c <__divdi3+0xdc>
     176:	ffe60493          	addi	s1,a2,-2
     17a:	9716                	add	a4,a4,t0
     17c:	4592                	lw	a1,4(sp)
     17e:	40d707b3          	sub	a5,a4,a3
     182:	853e                	mv	a0,a5
     184:	ca16                	sw	t0,20(sp)
     186:	c63e                	sw	a5,12(sp)
     188:	2e75                	jal	544 <__hidden___udivsi3>
     18a:	85aa                	mv	a1,a0
     18c:	c82a                	sw	a0,16(sp)
     18e:	4522                	lw	a0,8(sp)
     190:	0442                	slli	s0,s0,0x10
     192:	8041                	srli	s0,s0,0x10
     194:	2e41                	jal	524 <__mulsi3>
     196:	c42a                	sw	a0,8(sp)
     198:	4592                	lw	a1,4(sp)
     19a:	4532                	lw	a0,12(sp)
     19c:	2ed1                	jal	570 <__umodsi3>
     19e:	4742                	lw	a4,16(sp)
     1a0:	46a2                	lw	a3,8(sp)
     1a2:	0542                	slli	a0,a0,0x10
     1a4:	8c49                	or	s0,s0,a0
     1a6:	863a                	mv	a2,a4
     1a8:	00d47c63          	bgeu	s0,a3,1c0 <__divdi3+0x120>
     1ac:	42d2                	lw	t0,20(sp)
     1ae:	fff70613          	addi	a2,a4,-1
     1b2:	9416                	add	s0,s0,t0
     1b4:	00546663          	bltu	s0,t0,1c0 <__divdi3+0x120>
     1b8:	00d47463          	bgeu	s0,a3,1c0 <__divdi3+0x120>
     1bc:	ffe70613          	addi	a2,a4,-2
     1c0:	01049793          	slli	a5,s1,0x10
     1c4:	8fd1                	or	a5,a5,a2
     1c6:	4481                	li	s1,0
     1c8:	a0c5                	j	2a8 <__divdi3+0x208>
     1ca:	01000537          	lui	a0,0x1000
     1ce:	47c1                	li	a5,16
     1d0:	f2a669e3          	bltu	a2,a0,102 <__divdi3+0x62>
     1d4:	47e1                	li	a5,24
     1d6:	b735                	j	102 <__divdi3+0x62>
     1d8:	4781                	li	a5,0
     1da:	ca09                	beqz	a2,1ec <__divdi3+0x14c>
     1dc:	67c1                	lui	a5,0x10
     1de:	0ef67663          	bgeu	a2,a5,2ca <__divdi3+0x22a>
     1e2:	10063793          	sltiu	a5,a2,256
     1e6:	0017c793          	xori	a5,a5,1
     1ea:	078e                	slli	a5,a5,0x3
     1ec:	00f65733          	srl	a4,a2,a5
     1f0:	9736                	add	a4,a4,a3
     1f2:	00074703          	lbu	a4,0(a4)
     1f6:	02000693          	li	a3,32
     1fa:	97ba                	add	a5,a5,a4
     1fc:	40f68733          	sub	a4,a3,a5
     200:	0cf69c63          	bne	a3,a5,2d8 <__divdi3+0x238>
     204:	40c58633          	sub	a2,a1,a2
     208:	4485                	li	s1,1
     20a:	0102d793          	srli	a5,t0,0x10
     20e:	c23e                	sw	a5,4(sp)
     210:	4592                	lw	a1,4(sp)
     212:	01029793          	slli	a5,t0,0x10
     216:	83c1                	srli	a5,a5,0x10
     218:	8532                	mv	a0,a2
     21a:	cc16                	sw	t0,24(sp)
     21c:	c43e                	sw	a5,8(sp)
     21e:	ca32                	sw	a2,20(sp)
     220:	2615                	jal	544 <__hidden___udivsi3>
     222:	85aa                	mv	a1,a0
     224:	c82a                	sw	a0,16(sp)
     226:	4522                	lw	a0,8(sp)
     228:	2cf5                	jal	524 <__mulsi3>
     22a:	4652                	lw	a2,20(sp)
     22c:	4592                	lw	a1,4(sp)
     22e:	c62a                	sw	a0,12(sp)
     230:	8532                	mv	a0,a2
     232:	2e3d                	jal	570 <__umodsi3>
     234:	43c2                	lw	t2,16(sp)
     236:	4332                	lw	t1,12(sp)
     238:	0542                	slli	a0,a0,0x10
     23a:	01045693          	srli	a3,s0,0x10
     23e:	8ec9                	or	a3,a3,a0
     240:	42e2                	lw	t0,24(sp)
     242:	879e                	mv	a5,t2
     244:	0066fc63          	bgeu	a3,t1,25c <__divdi3+0x1bc>
     248:	9696                	add	a3,a3,t0
     24a:	fff38793          	addi	a5,t2,-1
     24e:	0056e763          	bltu	a3,t0,25c <__divdi3+0x1bc>
     252:	0066f563          	bgeu	a3,t1,25c <__divdi3+0x1bc>
     256:	ffe38793          	addi	a5,t2,-2
     25a:	9696                	add	a3,a3,t0
     25c:	4592                	lw	a1,4(sp)
     25e:	cc3e                	sw	a5,24(sp)
     260:	406687b3          	sub	a5,a3,t1
     264:	853e                	mv	a0,a5
     266:	c63e                	sw	a5,12(sp)
     268:	ca16                	sw	t0,20(sp)
     26a:	2ce9                	jal	544 <__hidden___udivsi3>
     26c:	85aa                	mv	a1,a0
     26e:	c82a                	sw	a0,16(sp)
     270:	4522                	lw	a0,8(sp)
     272:	0442                	slli	s0,s0,0x10
     274:	8041                	srli	s0,s0,0x10
     276:	247d                	jal	524 <__mulsi3>
     278:	4592                	lw	a1,4(sp)
     27a:	c42a                	sw	a0,8(sp)
     27c:	4532                	lw	a0,12(sp)
     27e:	2ccd                	jal	570 <__umodsi3>
     280:	46c2                	lw	a3,16(sp)
     282:	4622                	lw	a2,8(sp)
     284:	0542                	slli	a0,a0,0x10
     286:	8c49                	or	s0,s0,a0
     288:	47e2                	lw	a5,24(sp)
     28a:	85b6                	mv	a1,a3
     28c:	00c47c63          	bgeu	s0,a2,2a4 <__divdi3+0x204>
     290:	42d2                	lw	t0,20(sp)
     292:	fff68593          	addi	a1,a3,-1
     296:	9416                	add	s0,s0,t0
     298:	00546663          	bltu	s0,t0,2a4 <__divdi3+0x204>
     29c:	00c47463          	bgeu	s0,a2,2a4 <__divdi3+0x204>
     2a0:	ffe68593          	addi	a1,a3,-2
     2a4:	07c2                	slli	a5,a5,0x10
     2a6:	8fcd                	or	a5,a5,a1
     2a8:	853e                	mv	a0,a5
     2aa:	4782                	lw	a5,0(sp)
     2ac:	85a6                	mv	a1,s1
     2ae:	cb81                	beqz	a5,2be <__divdi3+0x21e>
     2b0:	00a037b3          	snez	a5,a0
     2b4:	409005b3          	neg	a1,s1
     2b8:	8d9d                	sub	a1,a1,a5
     2ba:	40a00533          	neg	a0,a0
     2be:	50c2                	lw	ra,48(sp)
     2c0:	5432                	lw	s0,44(sp)
     2c2:	54a2                	lw	s1,40(sp)
     2c4:	03410113          	addi	sp,sp,52
     2c8:	8082                	ret
     2ca:	01000737          	lui	a4,0x1000
     2ce:	47c1                	li	a5,16
     2d0:	f0e66ee3          	bltu	a2,a4,1ec <__divdi3+0x14c>
     2d4:	47e1                	li	a5,24
     2d6:	bf19                	j	1ec <__divdi3+0x14c>
     2d8:	00f5d4b3          	srl	s1,a1,a5
     2dc:	00e595b3          	sll	a1,a1,a4
     2e0:	00f357b3          	srl	a5,t1,a5
     2e4:	00e612b3          	sll	t0,a2,a4
     2e8:	8fcd                	or	a5,a5,a1
     2ea:	c43e                	sw	a5,8(sp)
     2ec:	0102d793          	srli	a5,t0,0x10
     2f0:	c23e                	sw	a5,4(sp)
     2f2:	4592                	lw	a1,4(sp)
     2f4:	01029793          	slli	a5,t0,0x10
     2f8:	83c1                	srli	a5,a5,0x10
     2fa:	8526                	mv	a0,s1
     2fc:	cc16                	sw	t0,24(sp)
     2fe:	c63e                	sw	a5,12(sp)
     300:	00e31433          	sll	s0,t1,a4
     304:	2481                	jal	544 <__hidden___udivsi3>
     306:	85aa                	mv	a1,a0
     308:	ca2a                	sw	a0,20(sp)
     30a:	4532                	lw	a0,12(sp)
     30c:	2c21                	jal	524 <__mulsi3>
     30e:	4592                	lw	a1,4(sp)
     310:	c82a                	sw	a0,16(sp)
     312:	8526                	mv	a0,s1
     314:	2cb1                	jal	570 <__umodsi3>
     316:	47a2                	lw	a5,8(sp)
     318:	4652                	lw	a2,20(sp)
     31a:	46c2                	lw	a3,16(sp)
     31c:	0542                	slli	a0,a0,0x10
     31e:	83c1                	srli	a5,a5,0x10
     320:	8fc9                	or	a5,a5,a0
     322:	42e2                	lw	t0,24(sp)
     324:	84b2                	mv	s1,a2
     326:	00d7fc63          	bgeu	a5,a3,33e <__divdi3+0x29e>
     32a:	9796                	add	a5,a5,t0
     32c:	fff60493          	addi	s1,a2,-1
     330:	0057e763          	bltu	a5,t0,33e <__divdi3+0x29e>
     334:	00d7f563          	bgeu	a5,a3,33e <__divdi3+0x29e>
     338:	ffe60493          	addi	s1,a2,-2
     33c:	9796                	add	a5,a5,t0
     33e:	4592                	lw	a1,4(sp)
     340:	8f95                	sub	a5,a5,a3
     342:	853e                	mv	a0,a5
     344:	cc16                	sw	t0,24(sp)
     346:	c83e                	sw	a5,16(sp)
     348:	2af5                	jal	544 <__hidden___udivsi3>
     34a:	85aa                	mv	a1,a0
     34c:	ca2a                	sw	a0,20(sp)
     34e:	4532                	lw	a0,12(sp)
     350:	2ad1                	jal	524 <__mulsi3>
     352:	4592                	lw	a1,4(sp)
     354:	c62a                	sw	a0,12(sp)
     356:	4542                	lw	a0,16(sp)
     358:	2c21                	jal	570 <__umodsi3>
     35a:	00815603          	lhu	a2,8(sp)
     35e:	46d2                	lw	a3,20(sp)
     360:	47b2                	lw	a5,12(sp)
     362:	0542                	slli	a0,a0,0x10
     364:	8e49                	or	a2,a2,a0
     366:	42e2                	lw	t0,24(sp)
     368:	85b6                	mv	a1,a3
     36a:	00f67c63          	bgeu	a2,a5,382 <__divdi3+0x2e2>
     36e:	9616                	add	a2,a2,t0
     370:	fff68593          	addi	a1,a3,-1
     374:	00566763          	bltu	a2,t0,382 <__divdi3+0x2e2>
     378:	00f67563          	bgeu	a2,a5,382 <__divdi3+0x2e2>
     37c:	ffe68593          	addi	a1,a3,-2
     380:	9616                	add	a2,a2,t0
     382:	01049713          	slli	a4,s1,0x10
     386:	8e1d                	sub	a2,a2,a5
     388:	00b764b3          	or	s1,a4,a1
     38c:	bdbd                	j	20a <__divdi3+0x16a>
     38e:	18d5e763          	bltu	a1,a3,51c <__divdi3+0x47c>
     392:	67c1                	lui	a5,0x10
     394:	02f6fe63          	bgeu	a3,a5,3d0 <__divdi3+0x330>
     398:	1006b793          	sltiu	a5,a3,256
     39c:	0017c793          	xori	a5,a5,1
     3a0:	078e                	slli	a5,a5,0x3
     3a2:	6709                	lui	a4,0x2
     3a4:	00f6d533          	srl	a0,a3,a5
     3a8:	c9470713          	addi	a4,a4,-876 # 1c94 <__clz_tab>
     3ac:	972a                	add	a4,a4,a0
     3ae:	00074503          	lbu	a0,0(a4)
     3b2:	953e                	add	a0,a0,a5
     3b4:	02000793          	li	a5,32
     3b8:	40a784b3          	sub	s1,a5,a0
     3bc:	02a79163          	bne	a5,a0,3de <__divdi3+0x33e>
     3c0:	4785                	li	a5,1
     3c2:	eeb6e3e3          	bltu	a3,a1,2a8 <__divdi3+0x208>
     3c6:	00c33633          	sltu	a2,t1,a2
     3ca:	00164793          	xori	a5,a2,1
     3ce:	bde9                	j	2a8 <__divdi3+0x208>
     3d0:	01000737          	lui	a4,0x1000
     3d4:	47c1                	li	a5,16
     3d6:	fce6e6e3          	bltu	a3,a4,3a2 <__divdi3+0x302>
     3da:	47e1                	li	a5,24
     3dc:	b7d9                	j	3a2 <__divdi3+0x302>
     3de:	009697b3          	sll	a5,a3,s1
     3e2:	00a656b3          	srl	a3,a2,a0
     3e6:	8edd                	or	a3,a3,a5
     3e8:	00a5d433          	srl	s0,a1,a0
     3ec:	009617b3          	sll	a5,a2,s1
     3f0:	00a35533          	srl	a0,t1,a0
     3f4:	009595b3          	sll	a1,a1,s1
     3f8:	c43e                	sw	a5,8(sp)
     3fa:	00b567b3          	or	a5,a0,a1
     3fe:	c63e                	sw	a5,12(sp)
     400:	0106d793          	srli	a5,a3,0x10
     404:	c23e                	sw	a5,4(sp)
     406:	4592                	lw	a1,4(sp)
     408:	01069793          	slli	a5,a3,0x10
     40c:	83c1                	srli	a5,a5,0x10
     40e:	8522                	mv	a0,s0
     410:	d01a                	sw	t1,32(sp)
     412:	ce36                	sw	a3,28(sp)
     414:	c83e                	sw	a5,16(sp)
     416:	223d                	jal	544 <__hidden___udivsi3>
     418:	85aa                	mv	a1,a0
     41a:	cc2a                	sw	a0,24(sp)
     41c:	4542                	lw	a0,16(sp)
     41e:	2219                	jal	524 <__mulsi3>
     420:	4592                	lw	a1,4(sp)
     422:	ca2a                	sw	a0,20(sp)
     424:	8522                	mv	a0,s0
     426:	22a9                	jal	570 <__umodsi3>
     428:	47b2                	lw	a5,12(sp)
     42a:	42e2                	lw	t0,24(sp)
     42c:	4652                	lw	a2,20(sp)
     42e:	0107d413          	srli	s0,a5,0x10
     432:	0542                	slli	a0,a0,0x10
     434:	8c49                	or	s0,s0,a0
     436:	46f2                	lw	a3,28(sp)
     438:	5302                	lw	t1,32(sp)
     43a:	8796                	mv	a5,t0
     43c:	00c47c63          	bgeu	s0,a2,454 <__divdi3+0x3b4>
     440:	9436                	add	s0,s0,a3
     442:	fff28793          	addi	a5,t0,-1
     446:	00d46763          	bltu	s0,a3,454 <__divdi3+0x3b4>
     44a:	00c47563          	bgeu	s0,a2,454 <__divdi3+0x3b4>
     44e:	ffe28793          	addi	a5,t0,-2
     452:	9436                	add	s0,s0,a3
     454:	4592                	lw	a1,4(sp)
     456:	d03e                	sw	a5,32(sp)
     458:	40c407b3          	sub	a5,s0,a2
     45c:	853e                	mv	a0,a5
     45e:	d21a                	sw	t1,36(sp)
     460:	ca3e                	sw	a5,20(sp)
     462:	ce36                	sw	a3,28(sp)
     464:	20c5                	jal	544 <__hidden___udivsi3>
     466:	85aa                	mv	a1,a0
     468:	cc2a                	sw	a0,24(sp)
     46a:	4542                	lw	a0,16(sp)
     46c:	2865                	jal	524 <__mulsi3>
     46e:	4592                	lw	a1,4(sp)
     470:	842a                	mv	s0,a0
     472:	4552                	lw	a0,20(sp)
     474:	28f5                	jal	570 <__umodsi3>
     476:	00c15603          	lhu	a2,12(sp)
     47a:	43e2                	lw	t2,24(sp)
     47c:	0542                	slli	a0,a0,0x10
     47e:	8e49                	or	a2,a2,a0
     480:	5782                	lw	a5,32(sp)
     482:	5312                	lw	t1,36(sp)
     484:	859e                	mv	a1,t2
     486:	00867d63          	bgeu	a2,s0,4a0 <__divdi3+0x400>
     48a:	46f2                	lw	a3,28(sp)
     48c:	fff38593          	addi	a1,t2,-1
     490:	9636                	add	a2,a2,a3
     492:	00d66763          	bltu	a2,a3,4a0 <__divdi3+0x400>
     496:	00867563          	bgeu	a2,s0,4a0 <__divdi3+0x400>
     49a:	ffe38593          	addi	a1,t2,-2
     49e:	9636                	add	a2,a2,a3
     4a0:	40860733          	sub	a4,a2,s0
     4a4:	4622                	lw	a2,8(sp)
     4a6:	66c1                	lui	a3,0x10
     4a8:	07c2                	slli	a5,a5,0x10
     4aa:	8fcd                	or	a5,a5,a1
     4ac:	fff68293          	addi	t0,a3,-1 # ffff <oled.c.a655e948+0xa255>
     4b0:	0057f433          	and	s0,a5,t0
     4b4:	005672b3          	and	t0,a2,t0
     4b8:	8241                	srli	a2,a2,0x10
     4ba:	c232                	sw	a2,4(sp)
     4bc:	8522                	mv	a0,s0
     4be:	8596                	mv	a1,t0
     4c0:	2095                	jal	524 <__mulsi3>
     4c2:	83aa                	mv	t2,a0
     4c4:	4592                	lw	a1,4(sp)
     4c6:	8522                	mv	a0,s0
     4c8:	28b1                	jal	524 <__mulsi3>
     4ca:	842a                	mv	s0,a0
     4cc:	8596                	mv	a1,t0
     4ce:	0107d513          	srli	a0,a5,0x10
     4d2:	2889                	jal	524 <__mulsi3>
     4d4:	82aa                	mv	t0,a0
     4d6:	4592                	lw	a1,4(sp)
     4d8:	0107d513          	srli	a0,a5,0x10
     4dc:	20a1                	jal	524 <__mulsi3>
     4de:	0103d613          	srli	a2,t2,0x10
     4e2:	005406b3          	add	a3,s0,t0
     4e6:	00d60433          	add	s0,a2,a3
     4ea:	00547463          	bgeu	s0,t0,4f2 <__divdi3+0x452>
     4ee:	66c1                	lui	a3,0x10
     4f0:	9536                	add	a0,a0,a3
     4f2:	01045693          	srli	a3,s0,0x10
     4f6:	9536                	add	a0,a0,a3
     4f8:	02a76063          	bltu	a4,a0,518 <__divdi3+0x478>
     4fc:	cca715e3          	bne	a4,a0,1c6 <__divdi3+0x126>
     500:	6741                	lui	a4,0x10
     502:	177d                	addi	a4,a4,-1 # ffff <oled.c.a655e948+0xa255>
     504:	8c79                	and	s0,s0,a4
     506:	0442                	slli	s0,s0,0x10
     508:	00e3f733          	and	a4,t2,a4
     50c:	00931333          	sll	t1,t1,s1
     510:	943a                	add	s0,s0,a4
     512:	4481                	li	s1,0
     514:	d8837ae3          	bgeu	t1,s0,2a8 <__divdi3+0x208>
     518:	17fd                	addi	a5,a5,-1 # ffff <oled.c.a655e948+0xa255>
     51a:	b175                	j	1c6 <__divdi3+0x126>
     51c:	4481                	li	s1,0
     51e:	4781                	li	a5,0
     520:	b361                	j	2a8 <__divdi3+0x208>
	...

00000524 <__mulsi3>:
     524:	862a                	mv	a2,a0
     526:	4501                	li	a0,0
     528:	0015f693          	andi	a3,a1,1
     52c:	c291                	beqz	a3,530 <__mulsi3+0xc>
     52e:	9532                	add	a0,a0,a2
     530:	8185                	srli	a1,a1,0x1
     532:	0606                	slli	a2,a2,0x1
     534:	f9f5                	bnez	a1,528 <__mulsi3+0x4>
     536:	8082                	ret
     538:	0000                	unimp
	...

0000053c <__divsi3>:
     53c:	02054e63          	bltz	a0,578 <__umodsi3+0x8>
     540:	0405c363          	bltz	a1,586 <__umodsi3+0x16>

00000544 <__hidden___udivsi3>:
     544:	862e                	mv	a2,a1
     546:	85aa                	mv	a1,a0
     548:	557d                	li	a0,-1
     54a:	c215                	beqz	a2,56e <__hidden___udivsi3+0x2a>
     54c:	4685                	li	a3,1
     54e:	00b67863          	bgeu	a2,a1,55e <__hidden___udivsi3+0x1a>
     552:	00c05663          	blez	a2,55e <__hidden___udivsi3+0x1a>
     556:	0606                	slli	a2,a2,0x1
     558:	0686                	slli	a3,a3,0x1
     55a:	feb66ce3          	bltu	a2,a1,552 <__hidden___udivsi3+0xe>
     55e:	4501                	li	a0,0
     560:	00c5e463          	bltu	a1,a2,568 <__hidden___udivsi3+0x24>
     564:	8d91                	sub	a1,a1,a2
     566:	8d55                	or	a0,a0,a3
     568:	8285                	srli	a3,a3,0x1
     56a:	8205                	srli	a2,a2,0x1
     56c:	faf5                	bnez	a3,560 <__hidden___udivsi3+0x1c>
     56e:	8082                	ret

00000570 <__umodsi3>:
     570:	8286                	mv	t0,ra
     572:	3fc9                	jal	544 <__hidden___udivsi3>
     574:	852e                	mv	a0,a1
     576:	8282                	jr	t0
     578:	40a00533          	neg	a0,a0
     57c:	00b04763          	bgtz	a1,58a <__umodsi3+0x1a>
     580:	40b005b3          	neg	a1,a1
     584:	b7c1                	j	544 <__hidden___udivsi3>
     586:	40b005b3          	neg	a1,a1
     58a:	8286                	mv	t0,ra
     58c:	3f65                	jal	544 <__hidden___udivsi3>
     58e:	40a00533          	neg	a0,a0
     592:	8282                	jr	t0

00000594 <__modsi3>:
     594:	8286                	mv	t0,ra
     596:	0005c763          	bltz	a1,5a4 <__modsi3+0x10>
     59a:	00054963          	bltz	a0,5ac <__modsi3+0x18>
     59e:	375d                	jal	544 <__hidden___udivsi3>
     5a0:	852e                	mv	a0,a1
     5a2:	8282                	jr	t0
     5a4:	40b005b3          	neg	a1,a1
     5a8:	fe055be3          	bgez	a0,59e <__modsi3+0xa>
     5ac:	40a00533          	neg	a0,a0
     5b0:	3f51                	jal	544 <__hidden___udivsi3>
     5b2:	40b00533          	neg	a0,a1
     5b6:	8282                	jr	t0
	...

000005ba <mini_pad>:
	if(pad_to == 0) pad_to = len;
     5ba:	c699                	beqz	a3,5c8 <mini_pad+0xe>
	int overflow = 0;
     5bc:	4301                	li	t1,0
	if(len > pad_to) {
     5be:	00b6d763          	bge	a3,a1,5cc <mini_pad+0x12>
		len = pad_to;
     5c2:	85b6                	mv	a1,a3
		overflow = 1;
     5c4:	4305                	li	t1,1
     5c6:	a019                	j	5cc <mini_pad+0x12>
	int overflow = 0;
     5c8:	4301                	li	t1,0
	if(pad_to == 0) pad_to = len;
     5ca:	86ae                	mv	a3,a1
	for(i = pad_to - len; i > 0; i --) {
     5cc:	8e8d                	sub	a3,a3,a1
	char * pbuffer = buffer;
     5ce:	87ba                	mv	a5,a4
     5d0:	00e683b3          	add	t2,a3,a4
	for(i = pad_to - len; i > 0; i --) {
     5d4:	40f382b3          	sub	t0,t2,a5
     5d8:	04504a63          	bgtz	t0,62c <mini_pad+0x72>
     5dc:	fff6c793          	not	a5,a3
     5e0:	87fd                	srai	a5,a5,0x1f
     5e2:	8efd                	and	a3,a3,a5
     5e4:	96ba                	add	a3,a3,a4
     5e6:	4781                	li	a5,0
	for(i = len; i > 0; i --) {
     5e8:	40f58633          	sub	a2,a1,a5
     5ec:	00f682b3          	add	t0,a3,a5
     5f0:	04c04263          	bgtz	a2,634 <mini_pad+0x7a>
     5f4:	fff5c793          	not	a5,a1
     5f8:	87fd                	srai	a5,a5,0x1f
     5fa:	8dfd                	and	a1,a1,a5
     5fc:	95b6                	add	a1,a1,a3
	len = pbuffer - buffer;
     5fe:	40e58533          	sub	a0,a1,a4
	if(overflow) {
     602:	02030463          	beqz	t1,62a <mini_pad+0x70>
		for (i = 0; i < 3 && pbuffer > buffer; i ++) {
     606:	02b77263          	bgeu	a4,a1,62a <mini_pad+0x70>
			*(pbuffer-- - 1) = '*';
     60a:	02a00793          	li	a5,42
     60e:	fef58fa3          	sb	a5,-1(a1)
     612:	fff58693          	addi	a3,a1,-1
		for (i = 0; i < 3 && pbuffer > buffer; i ++) {
     616:	00d77a63          	bgeu	a4,a3,62a <mini_pad+0x70>
			*(pbuffer-- - 1) = '*';
     61a:	fef58f23          	sb	a5,-2(a1)
     61e:	ffe58693          	addi	a3,a1,-2
		for (i = 0; i < 3 && pbuffer > buffer; i ++) {
     622:	00d77463          	bgeu	a4,a3,62a <mini_pad+0x70>
			*(pbuffer-- - 1) = '*';
     626:	fef58ea3          	sb	a5,-3(a1)
}
     62a:	8082                	ret
		*(pbuffer++) = pad_char;
     62c:	0785                	addi	a5,a5,1
     62e:	fec78fa3          	sb	a2,-1(a5)
	for(i = pad_to - len; i > 0; i --) {
     632:	b74d                	j	5d4 <mini_pad+0x1a>
		*(pbuffer++) = *(ptr++);
     634:	00f50633          	add	a2,a0,a5
     638:	00064603          	lbu	a2,0(a2)
     63c:	0785                	addi	a5,a5,1
     63e:	00c28023          	sb	a2,0(t0)
	for(i = len; i > 0; i --) {
     642:	b75d                	j	5e8 <mini_pad+0x2e>

00000644 <_puts>:
{
     644:	832a                	mv	t1,a0
     646:	852e                	mv	a0,a1
	if(!buf) return len;
     648:	ce01                	beqz	a2,660 <_puts+0x1c>
	char * p0 = b->buffer;
     64a:	00062283          	lw	t0,0(a2)
	for (i = 0; i < len; i++) {
     64e:	4701                	li	a4,0
		if(b->pbuffer == b->buffer + b->buffer_len - 1) {
     650:	425c                	lw	a5,4(a2)
	for (i = 0; i < len; i++) {
     652:	00a74863          	blt	a4,a0,662 <_puts+0x1e>
	*(b->pbuffer) = 0;
     656:	00078023          	sb	zero,0(a5)
	return b->pbuffer - p0;
     65a:	4248                	lw	a0,4(a2)
     65c:	40550533          	sub	a0,a0,t0
}
     660:	8082                	ret
		if(b->pbuffer == b->buffer + b->buffer_len - 1) {
     662:	460c                	lw	a1,8(a2)
     664:	4214                	lw	a3,0(a2)
     666:	15fd                	addi	a1,a1,-1
     668:	96ae                	add	a3,a3,a1
     66a:	fed786e3          	beq	a5,a3,656 <_puts+0x12>
		*(b->pbuffer ++) = s[i];
     66e:	00178693          	addi	a3,a5,1
     672:	c254                	sw	a3,4(a2)
     674:	00e306b3          	add	a3,t1,a4
     678:	0006c683          	lbu	a3,0(a3) # 10000 <oled.c.a655e948+0xa256>
	for (i = 0; i < len; i++) {
     67c:	0705                	addi	a4,a4,1
		*(b->pbuffer ++) = s[i];
     67e:	00d78023          	sb	a3,0(a5)
	for (i = 0; i < len; i++) {
     682:	b7f9                	j	650 <_puts+0xc>

00000684 <PrintHex>:
	while( (*DMDATA0) & 0x80 );
     684:	e00007b7          	lui	a5,0xe0000
     688:	0f478793          	addi	a5,a5,244 # e00000f4 <_eusrstack+0xbffff8f4>
     68c:	4398                	lw	a4,0(a5)
     68e:	08077713          	andi	a4,a4,128
     692:	ff6d                	bnez	a4,68c <PrintHex+0x8>
	*DMDATA0 = 0x78302088; //" 0x"
     694:	78302737          	lui	a4,0x78302
     698:	08870713          	addi	a4,a4,136 # 78302088 <_eusrstack+0x58301888>
		while( (*DMDATA0) & 0x80 );
     69c:	e00006b7          	lui	a3,0xe0000
	*DMDATA0 = 0x78302088; //" 0x"
     6a0:	c398                	sw	a4,0(a5)
		while( (*DMDATA0) & 0x80 );
     6a2:	0f468693          	addi	a3,a3,244 # e00000f4 <_eusrstack+0xbffff8f4>
	for( shift = 28; shift >= 0; shift -= 4 )
     6a6:	4771                	li	a4,28
		s += ( s < 10 ) ? '0' : ('a' - 10);
     6a8:	45a5                	li	a1,9
	for( shift = 28; shift >= 0; shift -= 4 )
     6aa:	5671                	li	a2,-4
		while( (*DMDATA0) & 0x80 );
     6ac:	429c                	lw	a5,0(a3)
     6ae:	0807f793          	andi	a5,a5,128
     6b2:	ffed                	bnez	a5,6ac <PrintHex+0x28>
		int s = (n>>shift) & 0xf;
     6b4:	00e55333          	srl	t1,a0,a4
     6b8:	00f37313          	andi	t1,t1,15
		s += ( s < 10 ) ? '0' : ('a' - 10);
     6bc:	0065b7b3          	sltu	a5,a1,t1
     6c0:	40f007b3          	neg	a5,a5
     6c4:	0277f793          	andi	a5,a5,39
     6c8:	03078793          	addi	a5,a5,48
     6cc:	979a                	add	a5,a5,t1
		*DMDATA0 = 0x85 | (s<<8); //" 0x"
     6ce:	07a2                	slli	a5,a5,0x8
     6d0:	0857e793          	ori	a5,a5,133
     6d4:	c29c                	sw	a5,0(a3)
	for( shift = 28; shift >= 0; shift -= 4 )
     6d6:	1771                	addi	a4,a4,-4
     6d8:	fcc71ae3          	bne	a4,a2,6ac <PrintHex+0x28>
}
     6dc:	8082                	ret

000006de <DelaySysTick>:
#endif

void DelaySysTick( uint32_t n )
{
#if defined(CH32V003) || defined(CH32V00x)
	uint32_t targend = SysTick->CNT + n;
     6de:	e000f737          	lui	a4,0xe000f
     6e2:	471c                	lw	a5,8(a4)
     6e4:	953e                	add	a0,a0,a5
	while( ((int32_t)( SysTick->CNT - targend )) < 0 );
     6e6:	471c                	lw	a5,8(a4)
     6e8:	8f89                	sub	a5,a5,a0
     6ea:	fe07cee3          	bltz	a5,6e6 <DelaySysTick+0x8>
	uint64_t targend = SysTick->CNT - n;
	while( ((int64_t)( SysTick->CNT - targend )) > 0 );
#else
	#error DelaySysTick not defined.
#endif
}
     6ee:	8082                	ret

000006f0 <mini_itoa.part.0>:
int mini_itoa(long value, unsigned int radix, int uppercase, int unsig, char *buffer)
     6f0:	1101                	addi	sp,sp,-32
     6f2:	ce06                	sw	ra,28(sp)
     6f4:	cc22                	sw	s0,24(sp)
     6f6:	ca26                	sw	s1,20(sp)
	int	negative = 0;
     6f8:	c002                	sw	zero,0(sp)
int mini_itoa(long value, unsigned int radix, int uppercase, int unsig, char *buffer)
     6fa:	832a                	mv	t1,a0
	if (value < 0 && !unsig) {
     6fc:	00055763          	bgez	a0,70a <mini_itoa.part.0+0x1a>
     700:	e689                	bnez	a3,70a <mini_itoa.part.0+0x1a>
		negative = 1;
     702:	4785                	li	a5,1
		value = -value;
     704:	40a00333          	neg	t1,a0
		negative = 1;
     708:	c03e                	sw	a5,0(sp)
     70a:	8a05                	andi	a2,a2,1
     70c:	06100413          	li	s0,97
     710:	c219                	beqz	a2,716 <mini_itoa.part.0+0x26>
     712:	04100413          	li	s0,65
	int	negative = 0;
     716:	84ba                	mv	s1,a4
		*(pbuffer++) = (digit < 10 ? '0' + digit : (uppercase ? 'A' : 'a') + digit - 10);
     718:	1459                	addi	s0,s0,-10
		int digit = value % radix;
     71a:	851a                	mv	a0,t1
     71c:	c83a                	sw	a4,16(sp)
     71e:	c21a                	sw	t1,4(sp)
     720:	c62e                	sw	a1,12(sp)
     722:	c41a                	sw	t1,8(sp)
     724:	35b1                	jal	570 <__umodsi3>
		*(pbuffer++) = (digit < 10 ? '0' + digit : (uppercase ? 'A' : 'a') + digit - 10);
     726:	47a5                	li	a5,9
     728:	4322                	lw	t1,8(sp)
     72a:	45b2                	lw	a1,12(sp)
     72c:	4742                	lw	a4,16(sp)
     72e:	0ff57693          	zext.b	a3,a0
     732:	06a7e163          	bltu	a5,a0,794 <mini_itoa.part.0+0xa4>
     736:	03068693          	addi	a3,a3,48
     73a:	0ff6f693          	zext.b	a3,a3
     73e:	00148793          	addi	a5,s1,1
     742:	00d48023          	sb	a3,0(s1)
		value /= radix;
     746:	851a                	mv	a0,t1
     748:	c83a                	sw	a4,16(sp)
		*(pbuffer++) = (digit < 10 ? '0' + digit : (uppercase ? 'A' : 'a') + digit - 10);
     74a:	c63e                	sw	a5,12(sp)
		value /= radix;
     74c:	c42e                	sw	a1,8(sp)
     74e:	3bdd                	jal	544 <__hidden___udivsi3>
	} while (value > 0);
     750:	4692                	lw	a3,4(sp)
     752:	45a2                	lw	a1,8(sp)
     754:	47b2                	lw	a5,12(sp)
     756:	4742                	lw	a4,16(sp)
		value /= radix;
     758:	832a                	mv	t1,a0
	} while (value > 0);
     75a:	02b6fb63          	bgeu	a3,a1,790 <mini_itoa.part.0+0xa0>
	if (negative)
     75e:	4682                	lw	a3,0(sp)
     760:	c699                	beqz	a3,76e <mini_itoa.part.0+0x7e>
		*(pbuffer++) = '-';
     762:	02d00693          	li	a3,45
     766:	00d78023          	sb	a3,0(a5)
     76a:	00248793          	addi	a5,s1,2
	len = (pbuffer - buffer);
     76e:	40e78533          	sub	a0,a5,a4
	for (i = 0; i < len / 2; i++) {
     772:	01f55693          	srli	a3,a0,0x1f
     776:	96aa                	add	a3,a3,a0
	*(pbuffer) = '\0';
     778:	00078023          	sb	zero,0(a5)
	for (i = 0; i < len / 2; i++) {
     77c:	8685                	srai	a3,a3,0x1
     77e:	4601                	li	a2,0
     780:	17fd                	addi	a5,a5,-1
     782:	00d64b63          	blt	a2,a3,798 <mini_itoa.part.0+0xa8>
}
     786:	40f2                	lw	ra,28(sp)
     788:	4462                	lw	s0,24(sp)
     78a:	44d2                	lw	s1,20(sp)
     78c:	6105                	addi	sp,sp,32
     78e:	8082                	ret
		*(pbuffer++) = (digit < 10 ? '0' + digit : (uppercase ? 'A' : 'a') + digit - 10);
     790:	84be                	mv	s1,a5
     792:	b761                	j	71a <mini_itoa.part.0+0x2a>
     794:	96a2                	add	a3,a3,s0
     796:	b755                	j	73a <mini_itoa.part.0+0x4a>
		char j = buffer[i];
     798:	00c705b3          	add	a1,a4,a2
		buffer[i] = buffer[len-i-1];
     79c:	0007c283          	lbu	t0,0(a5)
		char j = buffer[i];
     7a0:	0005c303          	lbu	t1,0(a1)
	for (i = 0; i < len / 2; i++) {
     7a4:	0605                	addi	a2,a2,1
		buffer[i] = buffer[len-i-1];
     7a6:	00558023          	sb	t0,0(a1)
		buffer[len-i-1] = j;
     7aa:	00678023          	sb	t1,0(a5)
	for (i = 0; i < len / 2; i++) {
     7ae:	bfc9                	j	780 <mini_itoa.part.0+0x90>

000007b0 <gpio_set_mode>:
	
	// Make array of uint8_t from [pin] enum. See definition for details
	uint8_t *byte = (uint8_t *)&pin;
	
	// Set the RCC Register to enable clock on the specified port
	GPIO_RCC->APB2PCENR |= (RCC_APB2PCENR_AFIO | (RCC_APB2PCENR_IOPxEN << byte[0]));
     7b0:	400216b7          	lui	a3,0x40021
     7b4:	4e90                	lw	a2,24(a3)
     7b6:	4791                	li	a5,4
     7b8:	00a797b3          	sll	a5,a5,a0
     7bc:	8fd1                	or	a5,a5,a2
     7be:	0017e793          	ori	a5,a5,1
     7c2:	ce9c                	sw	a5,24(a3)
     7c4:	0ff57713          	zext.b	a4,a0

	// Clear then set the GPIO Config Register
	GPIO_PORT_MAP[ byte[0] ]->CFGLR &=        ~(0x0F  << (4 * byte[1]));
     7c8:	6789                	lui	a5,0x2
     7ca:	070a                	slli	a4,a4,0x2
     7cc:	1f878793          	addi	a5,a5,504 # 21f8 <GPIO_PORT_MAP>
     7d0:	97ba                	add	a5,a5,a4
     7d2:	4398                	lw	a4,0(a5)
     7d4:	8121                	srli	a0,a0,0x8
     7d6:	0ff57513          	zext.b	a0,a0
     7da:	4310                	lw	a2,0(a4)
     7dc:	00251693          	slli	a3,a0,0x2
     7e0:	47bd                	li	a5,15
     7e2:	00d797b3          	sll	a5,a5,a3
     7e6:	fff7c793          	not	a5,a5
     7ea:	8ff1                	and	a5,a5,a2
     7ec:	c31c                	sw	a5,0(a4)
	GPIO_PORT_MAP[ byte[0] ]->CFGLR |=  (mode & 0x0F) << (4 * byte[1]);
     7ee:	4310                	lw	a2,0(a4)
     7f0:	00f5f793          	andi	a5,a1,15
     7f4:	00d797b3          	sll	a5,a5,a3
     7f8:	8fd1                	or	a5,a5,a2
     7fa:	c31c                	sw	a5,0(a4)

	// If [mode] is INPUT_PULLUP or INPUT_PULLDOWN, set the [OUTDR] Register
	if(mode == INPUT_PULLUP || mode == INPUT_PULLDOWN)
     7fc:	47e1                	li	a5,24
     7fe:	00f59663          	bne	a1,a5,80a <gpio_set_mode+0x5a>
inline void gpio_digital_write(const GPIO_PIN pin, const GPIO_STATE state)
{
	// Make array of uint8_t from [pin] enum. See definition for details
	uint8_t *byte = (uint8_t *)&pin;

	uint32_t mask = 0x01 << byte[1];          // Shift by pin number
     802:	4785                	li	a5,1
     804:	00a797b3          	sll	a5,a5,a0
	if(state == GPIO_LOW) mask = mask << 16;  // Shift by 16 if LOW, to Reset

	GPIO_PORT_MAP[ byte[0] ]->BSHR = mask;
     808:	cb1c                	sw	a5,16(a4)
}
     80a:	8082                	ret

0000080c <i2c_error>:
/// the bit flags
/// @param none
/// @return i2c_err_t error value
static inline i2c_err_t i2c_error(void)
{
	if(I2C1->STAR1 & I2C_STAR1_BERR)  {I2C1->STAR1 &= ~I2C_STAR1_BERR;  return I2C_ERR_BERR;}
     80c:	400057b7          	lui	a5,0x40005
     810:	4147d703          	lhu	a4,1044(a5) # 40005414 <_eusrstack+0x20004c14>
     814:	40078793          	addi	a5,a5,1024
     818:	10077713          	andi	a4,a4,256
     81c:	cb19                	beqz	a4,832 <i2c_error+0x26>
     81e:	0147d703          	lhu	a4,20(a5)
     822:	66c1                	lui	a3,0x10
     824:	eff68693          	addi	a3,a3,-257 # feff <oled.c.a655e948+0xa155>
     828:	8f75                	and	a4,a4,a3
     82a:	00e79a23          	sh	a4,20(a5)
     82e:	4505                	li	a0,1
     830:	8082                	ret
	if(I2C1->STAR1 & I2C_STAR1_AF)    {I2C1->STAR1 &= ~I2C_STAR1_AF;    return I2C_ERR_NACK;}
     832:	0147d703          	lhu	a4,20(a5)
     836:	40077713          	andi	a4,a4,1024
     83a:	cb19                	beqz	a4,850 <i2c_error+0x44>
     83c:	0147d703          	lhu	a4,20(a5)
     840:	66c1                	lui	a3,0x10
     842:	bff68693          	addi	a3,a3,-1025 # fbff <oled.c.a655e948+0x9e55>
     846:	8f75                	and	a4,a4,a3
     848:	00e79a23          	sh	a4,20(a5)
     84c:	4509                	li	a0,2
     84e:	8082                	ret
	if(I2C1->STAR1 & I2C_STAR1_ARLO)  {I2C1->STAR1 &= ~I2C_STAR1_ARLO;  return I2C_ERR_ARLO;}
     850:	0147d703          	lhu	a4,20(a5)
     854:	20077713          	andi	a4,a4,512
     858:	cb19                	beqz	a4,86e <i2c_error+0x62>
     85a:	0147d703          	lhu	a4,20(a5)
     85e:	66c1                	lui	a3,0x10
     860:	dff68693          	addi	a3,a3,-513 # fdff <oled.c.a655e948+0xa055>
     864:	8f75                	and	a4,a4,a3
     866:	00e79a23          	sh	a4,20(a5)
     86a:	450d                	li	a0,3
     86c:	8082                	ret
	if(I2C1->STAR1 & I2C_STAR1_OVR)   {I2C1->STAR1 &= ~I2C_STAR1_OVR;   return I2C_ERR_OVR;}
     86e:	0147d703          	lhu	a4,20(a5)

	return I2C_OK;
     872:	4501                	li	a0,0
	if(I2C1->STAR1 & I2C_STAR1_OVR)   {I2C1->STAR1 &= ~I2C_STAR1_OVR;   return I2C_ERR_OVR;}
     874:	01471693          	slli	a3,a4,0x14
     878:	0006db63          	bgez	a3,88e <i2c_error+0x82>
     87c:	0147d703          	lhu	a4,20(a5)
     880:	76fd                	lui	a3,0xfffff
     882:	7ff68693          	addi	a3,a3,2047 # fffff7ff <_eusrstack+0xdfffefff>
     886:	8f75                	and	a4,a4,a3
     888:	00e79a23          	sh	a4,20(a5)
     88c:	4511                	li	a0,4
}
     88e:	8082                	ret

00000890 <append_formatted_2dp_string>:
/// formatted string at the given pointer
/// @param val, Milli[x] range value
/// @param str, pointer to the first char of the string to append to
/// @return None
static void append_formatted_2dp_string(const uint16_t val, char *str)
{
     890:	1141                	addi	sp,sp,-16
     892:	c422                	sw	s0,8(sp)
     894:	842e                	mv	s0,a1
	uint16_t whole = val / 1000;          // volts
     896:	3e800593          	li	a1,1000
{
     89a:	c606                	sw	ra,12(sp)
     89c:	c226                	sw	s1,4(sp)
     89e:	c02a                	sw	a0,0(sp)
	uint16_t whole = val / 1000;          // volts
     8a0:	3155                	jal	544 <__hidden___udivsi3>
     8a2:	01051493          	slli	s1,a0,0x10
	uint16_t frac  = (val % 1000) / 10;   // hundredths of a volt
     8a6:	4502                	lw	a0,0(sp)
     8a8:	3e800593          	li	a1,1000
	uint16_t whole = val / 1000;          // volts
     8ac:	80c1                	srli	s1,s1,0x10
	uint16_t frac  = (val % 1000) / 10;   // hundredths of a volt
     8ae:	31c9                	jal	570 <__umodsi3>
     8b0:	0542                	slli	a0,a0,0x10
     8b2:	45a9                	li	a1,10
     8b4:	8141                	srli	a0,a0,0x10
     8b6:	3179                	jal	544 <__hidden___udivsi3>
     8b8:	01051793          	slli	a5,a0,0x10
     8bc:	83c1                	srli	a5,a5,0x10

	str[0] = (whole / 10) + '0';
     8be:	45a9                	li	a1,10
     8c0:	8526                	mv	a0,s1
	uint16_t frac  = (val % 1000) / 10;   // hundredths of a volt
     8c2:	c03e                	sw	a5,0(sp)
	str[0] = (whole / 10) + '0';
     8c4:	3141                	jal	544 <__hidden___udivsi3>
     8c6:	03050513          	addi	a0,a0,48 # 1000030 <oled.c.a655e948+0xffa286>
     8ca:	00a40023          	sb	a0,0(s0)
	str[1] = (whole % 10) + '0';
     8ce:	45a9                	li	a1,10
     8d0:	8526                	mv	a0,s1
     8d2:	3979                	jal	570 <__umodsi3>
     8d4:	03050513          	addi	a0,a0,48
     8d8:	00a400a3          	sb	a0,1(s0)
	str[2] = '.';
	str[3] = (frac / 10) + '0';
     8dc:	4502                	lw	a0,0(sp)
	str[2] = '.';
     8de:	02e00793          	li	a5,46
     8e2:	00f40123          	sb	a5,2(s0)
	str[3] = (frac / 10) + '0';
     8e6:	45a9                	li	a1,10
     8e8:	39b1                	jal	544 <__hidden___udivsi3>
     8ea:	03050513          	addi	a0,a0,48
     8ee:	00a401a3          	sb	a0,3(s0)
	str[4] = (frac % 10) + '0';
     8f2:	4502                	lw	a0,0(sp)
     8f4:	45a9                	li	a1,10
     8f6:	39ad                	jal	570 <__umodsi3>
     8f8:	03050513          	addi	a0,a0,48
     8fc:	00a40223          	sb	a0,4(s0)
}
     900:	40b2                	lw	ra,12(sp)
     902:	4422                	lw	s0,8(sp)
     904:	4492                	lw	s1,4(sp)
     906:	0141                	addi	sp,sp,16
     908:	8082                	ret

0000090a <gpio_set_opamp_inputs.constprop.0>:
		(GPIO_EXTEN->EXTEN_CTR & ~GPIO_EXTEN_OPA_PSEL) |
     90a:	400247b7          	lui	a5,0x40024
     90e:	80078793          	addi	a5,a5,-2048 # 40023800 <_eusrstack+0x20023000>
     912:	4398                	lw	a4,0(a5)
     914:	fffc06b7          	lui	a3,0xfffc0
     918:	16fd                	addi	a3,a3,-1 # fffbffff <_eusrstack+0xdffbf7ff>
     91a:	8f75                	and	a4,a4,a3
		((pos == GPIO_OPAMP_CH2_POS) ? GPIO_EXTEN_OPA_PSEL : 0);
     91c:	054a                	slli	a0,a0,0x12
		(GPIO_EXTEN->EXTEN_CTR & ~GPIO_EXTEN_OPA_PSEL) |
     91e:	8f49                	or	a4,a4,a0
	GPIO_EXTEN->EXTEN_CTR =
     920:	c398                	sw	a4,0(a5)
		(GPIO_EXTEN->EXTEN_CTR & ~GPIO_EXTEN_OPA_NSEL) |
     922:	4398                	lw	a4,0(a5)
     924:	7681                	lui	a3,0xfffe0
     926:	16fd                	addi	a3,a3,-1 # fffdffff <_eusrstack+0xdffdf7ff>
     928:	8f75                	and	a4,a4,a3
	GPIO_EXTEN->EXTEN_CTR =
     92a:	c398                	sw	a4,0(a5)
}
     92c:	8082                	ret

0000092e <internal_handle_input.constprop.0>:
	uint32_t dmd0 = *dmdata0;
     92e:	e00007b7          	lui	a5,0xe0000
     932:	0f47a783          	lw	a5,244(a5) # e00000f4 <_eusrstack+0xbffff8f4>
}
     936:	8082                	ret

00000938 <_write.constprop.0>:
	if( ( *DMDATA0 & 0xc0 ) == 0xc0 ) return 0;
     938:	e00007b7          	lui	a5,0xe0000
     93c:	0f478793          	addi	a5,a5,244 # e00000f4 <_eusrstack+0xbffff8f4>
     940:	4398                	lw	a4,0(a5)
WEAK int _write(int fd, const char *buf, int size)
     942:	1121                	addi	sp,sp,-24
     944:	ca06                	sw	ra,20(sp)
     946:	c822                	sw	s0,16(sp)
     948:	c626                	sw	s1,12(sp)
	if( ( *DMDATA0 & 0xc0 ) == 0xc0 ) return 0;
     94a:	0c077713          	andi	a4,a4,192
     94e:	0c000693          	li	a3,192
     952:	00d70b63          	beq	a4,a3,968 <_write.constprop.0+0x30>
	char buffer[4] = { 0 };
     956:	c402                	sw	zero,8(sp)
     958:	842e                	mv	s0,a1
	if( size == 0 )
     95a:	eddd                	bnez	a1,a18 <_write.constprop.0+0xe0>
		lastdmd = (*DMDATA0);
     95c:	439c                	lw	a5,0(a5)
		if( lastdmd && !(lastdmd&0x80) ) internal_handle_input( (uint32_t*)DMDATA0 );
     95e:	c789                	beqz	a5,968 <_write.constprop.0+0x30>
     960:	0807f793          	andi	a5,a5,128
     964:	e391                	bnez	a5,968 <_write.constprop.0+0x30>
     966:	37e1                	jal	92e <internal_handle_input.constprop.0>
	if( ( *DMDATA0 & 0xc0 ) == 0xc0 ) return 0;
     968:	4401                	li	s0,0
}
     96a:	40d2                	lw	ra,20(sp)
     96c:	8522                	mv	a0,s0
     96e:	4442                	lw	s0,16(sp)
     970:	44b2                	lw	s1,12(sp)
     972:	0161                	addi	sp,sp,24
     974:	8082                	ret
		int tosend = size - place;
     976:	409407b3          	sub	a5,s0,s1
		if( tosend > 7 ) tosend = 7;
     97a:	471d                	li	a4,7
     97c:	00f75363          	bge	a4,a5,982 <_write.constprop.0+0x4a>
     980:	87ba                	mv	a5,a4
     982:	001006b7          	lui	a3,0x100
		while( ( lastdmd = (*DMDATA0) ) & 0x80 )
     986:	e0000737          	lui	a4,0xe0000
		if( tosend > 7 ) tosend = 7;
     98a:	0685                	addi	a3,a3,1 # 100001 <oled.c.a655e948+0xfa257>
		while( ( lastdmd = (*DMDATA0) ) & 0x80 )
     98c:	0f470713          	addi	a4,a4,244 # e00000f4 <_eusrstack+0xbffff8f4>
     990:	4310                	lw	a2,0(a4)
     992:	08067593          	andi	a1,a2,128
     996:	e1a5                	bnez	a1,9f6 <_write.constprop.0+0xbe>
		if( lastdmd ) internal_handle_input( (uint32_t*)DMDATA0 );
     998:	c611                	beqz	a2,9a4 <_write.constprop.0+0x6c>
     99a:	c22a                	sw	a0,4(sp)
     99c:	c03e                	sw	a5,0(sp)
     99e:	3f41                	jal	92e <internal_handle_input.constprop.0>
     9a0:	4512                	lw	a0,4(sp)
     9a2:	4782                	lw	a5,0(sp)
     9a4:	0034                	addi	a3,sp,8
		if( tosend > 7 ) tosend = 7;
     9a6:	470d                	li	a4,3
     9a8:	85b6                	mv	a1,a3
		while( t < tosend )
     9aa:	04f74d63          	blt	a4,a5,a04 <_write.constprop.0+0xcc>
		*DMDATA1 = *(uint32_t*)&(buffer[0]);
     9ae:	46a2                	lw	a3,8(sp)
     9b0:	e0000737          	lui	a4,0xe0000
		while( t < tosend && t < 3 )
     9b4:	460d                	li	a2,3
		*DMDATA1 = *(uint32_t*)&(buffer[0]);
     9b6:	0ed72c23          	sw	a3,248(a4) # e00000f8 <_eusrstack+0xbffff8f8>
     9ba:	009506b3          	add	a3,a0,s1
		t = 0;
     9be:	4701                	li	a4,0
			buffer[t+1] = buf[t+place];
     9c0:	0006c283          	lbu	t0,0(a3)
     9c4:	0705                	addi	a4,a4,1
     9c6:	00e58333          	add	t1,a1,a4
     9ca:	00530023          	sb	t0,0(t1)
		while( t < tosend && t < 3 )
     9ce:	00e78563          	beq	a5,a4,9d8 <_write.constprop.0+0xa0>
     9d2:	0685                	addi	a3,a3,1
     9d4:	fec716e3          	bne	a4,a2,9c0 <_write.constprop.0+0x88>
		buffer[0] = 0x80 | (tosend + 4);
     9d8:	00478713          	addi	a4,a5,4
     9dc:	f8076713          	ori	a4,a4,-128
     9e0:	00e10423          	sb	a4,8(sp)
		*DMDATA0 = *(uint32_t*)&(buffer[0]);
     9e4:	46a2                	lw	a3,8(sp)
     9e6:	e0000737          	lui	a4,0xe0000
		place += tosend;
     9ea:	94be                	add	s1,s1,a5
		*DMDATA0 = *(uint32_t*)&(buffer[0]);
     9ec:	0ed72a23          	sw	a3,244(a4) # e00000f4 <_eusrstack+0xbffff8f4>
	while( place < size )
     9f0:	f884c3e3          	blt	s1,s0,976 <_write.constprop.0+0x3e>
     9f4:	bf9d                	j	96a <_write.constprop.0+0x32>
			if( timeout-- == 0 )
     9f6:	16fd                	addi	a3,a3,-1
     9f8:	fec1                	bnez	a3,990 <_write.constprop.0+0x58>
				*DMDATA0 |= 0xc0;
     9fa:	431c                	lw	a5,0(a4)
     9fc:	0c07e793          	ori	a5,a5,192
     a00:	c31c                	sw	a5,0(a4)
				return 0;
     a02:	b79d                	j	968 <_write.constprop.0+0x30>
			buffer[t-3] = buf[t+place];
     a04:	00e48633          	add	a2,s1,a4
     a08:	962a                	add	a2,a2,a0
     a0a:	00064603          	lbu	a2,0(a2)
			t++;
     a0e:	0705                	addi	a4,a4,1
     a10:	0685                	addi	a3,a3,1
			buffer[t-3] = buf[t+place];
     a12:	fec68fa3          	sb	a2,-1(a3)
     a16:	bf51                	j	9aa <_write.constprop.0+0x72>
     a18:	4481                	li	s1,0
     a1a:	bfd9                	j	9f0 <_write.constprop.0+0xb8>

00000a1c <__puts_uart>:
{
     a1c:	1161                	addi	sp,sp,-8
     a1e:	c022                	sw	s0,0(sp)
     a20:	c206                	sw	ra,4(sp)
     a22:	842e                	mv	s0,a1
	_write( 0, s, len );
     a24:	3f11                	jal	938 <_write.constprop.0>
}
     a26:	4092                	lw	ra,4(sp)
     a28:	8522                	mv	a0,s0
     a2a:	4402                	lw	s0,0(sp)
     a2c:	0121                	addi	sp,sp,8
     a2e:	8082                	ret

00000a30 <i2c_write_reg>:


i2c_err_t i2c_write_reg(const i2c_device_t *dev,    const uint32_t reg,
                                                    const uint8_t *buf,
                                                    const size_t len)
{
     a30:	1101                	addi	sp,sp,-32
     a32:	cc22                	sw	s0,24(sp)
	I2C_TIMEOUT_WAIT_FOR((I2C1->STAR2 & I2C_STAR2_BUSY), i2c_ret);
     a34:	c401a403          	lw	s0,-960(gp) # 2000003c <_i2c_timeout>
     a38:	400057b7          	lui	a5,0x40005
{
     a3c:	ca26                	sw	s1,20(sp)
     a3e:	c232                	sw	a2,4(sp)
     a40:	ce06                	sw	ra,28(sp)
     a42:	84aa                	mv	s1,a0
     a44:	c02e                	sw	a1,0(sp)
     a46:	c436                	sw	a3,8(sp)
	I2C_TIMEOUT_WAIT_FOR((I2C1->STAR2 & I2C_STAR2_BUSY), i2c_ret);
     a48:	8622                	mv	a2,s0
     a4a:	40078793          	addi	a5,a5,1024 # 40005400 <_eusrstack+0x20004c00>
     a4e:	0187d683          	lhu	a3,24(a5)
     a52:	8a89                	andi	a3,a3,2
     a54:	e6c1                	bnez	a3,adc <i2c_write_reg+0xac>
	I2C1->CTLR1 |= I2C_CTLR1_START;
     a56:	0007d683          	lhu	a3,0(a5)
	return (status & status_mask) == status_mask; 
     a5a:	00030637          	lui	a2,0x30
     a5e:	0605                	addi	a2,a2,1 # 30001 <oled.c.a655e948+0x2a257>
	I2C1->CTLR1 |= I2C_CTLR1_START;
     a60:	1006e693          	ori	a3,a3,256
     a64:	00d79023          	sh	a3,0(a5)
	uint32_t status = (uint32_t)I2C1->STAR1 | (uint32_t)(I2C1->STAR2 << 16);
     a68:	400056b7          	lui	a3,0x40005
     a6c:	40068693          	addi	a3,a3,1024 # 40005400 <_eusrstack+0x20004c00>
     a70:	0146d583          	lhu	a1,20(a3)
     a74:	0186d783          	lhu	a5,24(a3)
     a78:	07c2                	slli	a5,a5,0x10
     a7a:	8fcd                	or	a5,a5,a1
	return (status & status_mask) == status_mask; 
     a7c:	8ff1                	and	a5,a5,a2
	while(!i2c_status(I2C_EVENT_MASTER_MODE_SELECT));
     a7e:	fec799e3          	bne	a5,a2,a70 <i2c_write_reg+0x40>
	if(dev->type == I2C_ADDR_7BIT)
     a82:	40dc                	lw	a5,4(s1)
     a84:	c7ad                	beqz	a5,aee <i2c_write_reg+0xbe>
	if(dev->type == I2C_ADDR_10BIT)
     a86:	4605                	li	a2,1
     a88:	0ac78163          	beq	a5,a2,b2a <i2c_write_reg+0xfa>
	if(i2c_ret == I2C_OK) { i2c_start(); i2c_ret = i2c_send_addr(I2C_WRITE, dev); }

	// Send the register byte/s - MSBFirst
	if(i2c_ret == I2C_OK)
	{
		for(int8_t b = dev->regb - 1; b >= 0; b--)
     a8c:	00a4c783          	lbu	a5,10(s1)
     a90:	17fd                	addi	a5,a5,-1
     a92:	07e2                	slli	a5,a5,0x18
     a94:	87e1                	srai	a5,a5,0x18
     a96:	00379693          	slli	a3,a5,0x3
     a9a:	1407d163          	bgez	a5,bdc <i2c_write_reg+0x1ac>
			if(i2c_ret != I2C_OK || (i2c_ret = i2c_error()) != I2C_OK) break;
		}
	}

	// Write the data
	if(i2c_ret == I2C_OK)
     a9e:	4792                	lw	a5,4(sp)
     aa0:	4722                	lw	a4,8(sp)
     aa2:	00e784b3          	add	s1,a5,a4
	{
		uint8_t cbyte = 0;
		while(cbyte < len)
		{
			// Write the byte and wait for it to finish transmitting
			I2C_TIMEOUT_WAIT_FOR(!(I2C1->STAR1 & I2C_STAR1_TXE), i2c_ret);
     aa6:	400056b7          	lui	a3,0x40005
     aaa:	8622                	mv	a2,s0
     aac:	40068693          	addi	a3,a3,1024 # 40005400 <_eusrstack+0x20004c00>
     ab0:	0146d703          	lhu	a4,20(a3)
     ab4:	08077713          	andi	a4,a4,128
     ab8:	16070463          	beqz	a4,c20 <i2c_write_reg+0x1f0>
     abc:	4501                	li	a0,0
			//while(!(I2C1->STAR1 & I2C_STAR1_TXE));
			I2C1->DATAR = buf[cbyte];
     abe:	0007c683          	lbu	a3,0(a5)
     ac2:	c03e                	sw	a5,0(sp)
     ac4:	40005737          	lui	a4,0x40005
     ac8:	40d71823          	sh	a3,1040(a4) # 40005410 <_eusrstack+0x20004c10>
			++cbyte;

			// Make sure no errors occured for this byte
			if(i2c_ret != I2C_OK || (i2c_ret = i2c_error()) != I2C_OK) break;
     acc:	ed5d                	bnez	a0,b8a <i2c_write_reg+0x15a>
     ace:	3b3d                	jal	80c <i2c_error>
     ad0:	ed4d                	bnez	a0,b8a <i2c_write_reg+0x15a>
		while(cbyte < len)
     ad2:	4782                	lw	a5,0(sp)
     ad4:	0785                	addi	a5,a5,1
     ad6:	fcf498e3          	bne	s1,a5,aa6 <i2c_write_reg+0x76>
     ada:	a845                	j	b8a <i2c_write_reg+0x15a>
	I2C_TIMEOUT_WAIT_FOR((I2C1->STAR2 & I2C_STAR2_BUSY), i2c_ret);
     adc:	fff60693          	addi	a3,a2,-1
     ae0:	e609                	bnez	a2,aea <i2c_write_reg+0xba>
	i2c_err_t i2c_err = i2c_error();
     ae2:	332d                	jal	80c <i2c_error>
	if(i2c_err == I2C_OK) i2c_err = I2C_ERR_BUSY;
     ae4:	e15d                	bnez	a0,b8a <i2c_write_reg+0x15a>
     ae6:	4515                	li	a0,5
     ae8:	a04d                	j	b8a <i2c_write_reg+0x15a>
	I2C_TIMEOUT_WAIT_FOR((I2C1->STAR2 & I2C_STAR2_BUSY), i2c_ret);
     aea:	8636                	mv	a2,a3
     aec:	b78d                	j	a4e <i2c_write_reg+0x1e>
		uint8_t addr_7b = (dev->addr << 1);
     aee:	0084d783          	lhu	a5,8(s1)
	uint32_t status = (uint32_t)I2C1->STAR1 | (uint32_t)(I2C1->STAR2 << 16);
     af2:	40005637          	lui	a2,0x40005
			I2C_TIMEOUT_WAIT_FOR(!i2c_status(I2C_EVENT_MASTER_TRANSMITTER_MODE_SELECTED), i2c_ret);
     af6:	85a2                	mv	a1,s0
		uint8_t addr_7b = (dev->addr << 1);
     af8:	0786                	slli	a5,a5,0x1
			I2C1->DATAR = addr_7b & 0xFE;
     afa:	0ff7f793          	zext.b	a5,a5
     afe:	00f69823          	sh	a5,16(a3)
	return (status & status_mask) == status_mask; 
     b02:	000706b7          	lui	a3,0x70
	uint32_t status = (uint32_t)I2C1->STAR1 | (uint32_t)(I2C1->STAR2 << 16);
     b06:	40060613          	addi	a2,a2,1024 # 40005400 <_eusrstack+0x20004c00>
	return (status & status_mask) == status_mask; 
     b0a:	08268693          	addi	a3,a3,130 # 70082 <oled.c.a655e948+0x6a2d8>
	uint32_t status = (uint32_t)I2C1->STAR1 | (uint32_t)(I2C1->STAR2 << 16);
     b0e:	01465503          	lhu	a0,20(a2)
     b12:	01865783          	lhu	a5,24(a2)
     b16:	07c2                	slli	a5,a5,0x10
     b18:	8fc9                	or	a5,a5,a0
	return (status & status_mask) == status_mask; 
     b1a:	8ff5                	and	a5,a5,a3
			I2C_TIMEOUT_WAIT_FOR(!i2c_status(I2C_EVENT_MASTER_TRANSMITTER_MODE_SELECTED), i2c_ret);
     b1c:	f6d788e3          	beq	a5,a3,a8c <i2c_write_reg+0x5c>
     b20:	fff58793          	addi	a5,a1,-1
     b24:	dddd                	beqz	a1,ae2 <i2c_write_reg+0xb2>
     b26:	85be                	mv	a1,a5
     b28:	b7dd                	j	b0e <i2c_write_reg+0xde>
		uint8_t addr_10b_u = 0xF0 | ((dev->addr >> 7) & 0x06);
     b2a:	0084d603          	lhu	a2,8(s1)
			I2C_TIMEOUT_WAIT_FOR(!(I2C1->STAR1 & I2C_STAR1_ADD10), i2c_ret);
     b2e:	85a2                	mv	a1,s0
		uint8_t addr_10b_u = 0xF0 | ((dev->addr >> 7) & 0x06);
     b30:	00765793          	srli	a5,a2,0x7
     b34:	8b99                	andi	a5,a5,6
			I2C1->DATAR = addr_10b_u;
     b36:	0f07e793          	ori	a5,a5,240
     b3a:	00f69823          	sh	a5,16(a3)
			I2C_TIMEOUT_WAIT_FOR(!(I2C1->STAR1 & I2C_STAR1_ADD10), i2c_ret);
     b3e:	400057b7          	lui	a5,0x40005
     b42:	40078793          	addi	a5,a5,1024 # 40005400 <_eusrstack+0x20004c00>
     b46:	0147d683          	lhu	a3,20(a5)
     b4a:	8aa1                	andi	a3,a3,8
     b4c:	cead                	beqz	a3,bc6 <i2c_write_reg+0x196>
     b4e:	c632                	sw	a2,12(sp)
			if(i2c_ret != I2C_OK || (i2c_ret = i2c_error()) != I2C_OK) return i2c_ret;
     b50:	3975                	jal	80c <i2c_error>
     b52:	ed05                	bnez	a0,b8a <i2c_write_reg+0x15a>
     b54:	4632                	lw	a2,12(sp)
			I2C1->DATAR = addr_10b_l;
     b56:	400057b7          	lui	a5,0x40005
     b5a:	40078793          	addi	a5,a5,1024 # 40005400 <_eusrstack+0x20004c00>
     b5e:	0ff67613          	zext.b	a2,a2
	return (status & status_mask) == status_mask; 
     b62:	000706b7          	lui	a3,0x70
			I2C1->DATAR = addr_10b_l;
     b66:	00c79823          	sh	a2,16(a5)
			I2C_TIMEOUT_WAIT_FOR(!i2c_status(I2C_EVENT_MASTER_TRANSMITTER_MODE_SELECTED), i2c_ret);
     b6a:	85a2                	mv	a1,s0
	uint32_t status = (uint32_t)I2C1->STAR1 | (uint32_t)(I2C1->STAR2 << 16);
     b6c:	863e                	mv	a2,a5
	return (status & status_mask) == status_mask; 
     b6e:	08268693          	addi	a3,a3,130 # 70082 <oled.c.a655e948+0x6a2d8>
	uint32_t status = (uint32_t)I2C1->STAR1 | (uint32_t)(I2C1->STAR2 << 16);
     b72:	01465503          	lhu	a0,20(a2)
     b76:	01865783          	lhu	a5,24(a2)
     b7a:	07c2                	slli	a5,a5,0x10
     b7c:	8fc9                	or	a5,a5,a0
	return (status & status_mask) == status_mask; 
     b7e:	8ff5                	and	a5,a5,a3
			I2C_TIMEOUT_WAIT_FOR(!i2c_status(I2C_EVENT_MASTER_TRANSMITTER_MODE_SELECTED), i2c_ret);
     b80:	04d79863          	bne	a5,a3,bd0 <i2c_write_reg+0x1a0>
			if(i2c_ret != I2C_OK || (i2c_ret = i2c_error()) != I2C_OK) return i2c_ret;
     b84:	3161                	jal	80c <i2c_error>
     b86:	f00503e3          	beqz	a0,a8c <i2c_write_reg+0x5c>
	uint32_t status = (uint32_t)I2C1->STAR1 | (uint32_t)(I2C1->STAR2 << 16);
     b8a:	400056b7          	lui	a3,0x40005
	return (status & status_mask) == status_mask; 
     b8e:	00070737          	lui	a4,0x70
	uint32_t status = (uint32_t)I2C1->STAR1 | (uint32_t)(I2C1->STAR2 << 16);
     b92:	40068693          	addi	a3,a3,1024 # 40005400 <_eusrstack+0x20004c00>
	return (status & status_mask) == status_mask; 
     b96:	08470713          	addi	a4,a4,132 # 70084 <oled.c.a655e948+0x6a2da>
	uint32_t status = (uint32_t)I2C1->STAR1 | (uint32_t)(I2C1->STAR2 << 16);
     b9a:	0146d603          	lhu	a2,20(a3)
     b9e:	0186d783          	lhu	a5,24(a3)
     ba2:	07c2                	slli	a5,a5,0x10
     ba4:	8fd1                	or	a5,a5,a2
	return (status & status_mask) == status_mask; 
     ba6:	8ff9                	and	a5,a5,a4
		}
	}

	// Wait for the bus to finish transmitting
	I2C_TIMEOUT_WAIT_FOR(!i2c_status(I2C_EVENT_MASTER_BYTE_TRANSMITTED), i2c_ret);
     ba8:	08e79863          	bne	a5,a4,c38 <i2c_write_reg+0x208>
	I2C1->CTLR1 |= I2C_CTLR1_STOP;
     bac:	400057b7          	lui	a5,0x40005
     bb0:	4007d703          	lhu	a4,1024(a5) # 40005400 <_eusrstack+0x20004c00>
	// Signal a STOP
	i2c_stop();

	return i2c_ret;
}
     bb4:	40f2                	lw	ra,28(sp)
     bb6:	4462                	lw	s0,24(sp)
	I2C1->CTLR1 |= I2C_CTLR1_STOP;
     bb8:	20076713          	ori	a4,a4,512
     bbc:	40e79023          	sh	a4,1024(a5)
}
     bc0:	44d2                	lw	s1,20(sp)
     bc2:	6105                	addi	sp,sp,32
     bc4:	8082                	ret
			I2C_TIMEOUT_WAIT_FOR(!(I2C1->STAR1 & I2C_STAR1_ADD10), i2c_ret);
     bc6:	fff58693          	addi	a3,a1,-1
     bca:	dd81                	beqz	a1,ae2 <i2c_write_reg+0xb2>
     bcc:	85b6                	mv	a1,a3
     bce:	bfa5                	j	b46 <i2c_write_reg+0x116>
			I2C_TIMEOUT_WAIT_FOR(!i2c_status(I2C_EVENT_MASTER_TRANSMITTER_MODE_SELECTED), i2c_ret);
     bd0:	fff58793          	addi	a5,a1,-1
     bd4:	f00587e3          	beqz	a1,ae2 <i2c_write_reg+0xb2>
     bd8:	85be                	mv	a1,a5
     bda:	bf61                	j	b72 <i2c_write_reg+0x142>
			uint8_t reg_byte = (reg >> (8 * b)) & 0xFF;
     bdc:	4702                	lw	a4,0(sp)
			I2C_TIMEOUT_WAIT_FOR(!(I2C1->STAR1 & I2C_STAR1_TXE), i2c_ret);
     bde:	85a2                	mv	a1,s0
			uint8_t reg_byte = (reg >> (8 * b)) & 0xFF;
     be0:	00d75633          	srl	a2,a4,a3
			I2C1->DATAR = reg_byte;
     be4:	0642                	slli	a2,a2,0x10
     be6:	40005737          	lui	a4,0x40005
     bea:	8241                	srli	a2,a2,0x10
     bec:	40070713          	addi	a4,a4,1024 # 40005400 <_eusrstack+0x20004c00>
     bf0:	00c71823          	sh	a2,16(a4)
			I2C_TIMEOUT_WAIT_FOR(!(I2C1->STAR1 & I2C_STAR1_TXE), i2c_ret);
     bf4:	01475603          	lhu	a2,20(a4)
     bf8:	08067613          	andi	a2,a2,128
     bfc:	ce01                	beqz	a2,c14 <i2c_write_reg+0x1e4>
     bfe:	c836                	sw	a3,16(sp)
     c00:	c63e                	sw	a5,12(sp)
			if(i2c_ret != I2C_OK || (i2c_ret = i2c_error()) != I2C_OK) break;
     c02:	3129                	jal	80c <i2c_error>
     c04:	46c2                	lw	a3,16(sp)
     c06:	16e1                	addi	a3,a3,-8
     c08:	f149                	bnez	a0,b8a <i2c_write_reg+0x15a>
		for(int8_t b = dev->regb - 1; b >= 0; b--)
     c0a:	47b2                	lw	a5,12(sp)
     c0c:	17fd                	addi	a5,a5,-1
     c0e:	07e2                	slli	a5,a5,0x18
     c10:	87e1                	srai	a5,a5,0x18
     c12:	b561                	j	a9a <i2c_write_reg+0x6a>
			I2C_TIMEOUT_WAIT_FOR(!(I2C1->STAR1 & I2C_STAR1_TXE), i2c_ret);
     c14:	fff58613          	addi	a2,a1,-1
     c18:	ec0585e3          	beqz	a1,ae2 <i2c_write_reg+0xb2>
     c1c:	85b2                	mv	a1,a2
     c1e:	bfd9                	j	bf4 <i2c_write_reg+0x1c4>
			I2C_TIMEOUT_WAIT_FOR(!(I2C1->STAR1 & I2C_STAR1_TXE), i2c_ret);
     c20:	fff60713          	addi	a4,a2,-1
     c24:	ea01                	bnez	a2,c34 <i2c_write_reg+0x204>
     c26:	c03e                	sw	a5,0(sp)
	i2c_err_t i2c_err = i2c_error();
     c28:	36d5                	jal	80c <i2c_error>
	if(i2c_err == I2C_OK) i2c_err = I2C_ERR_BUSY;
     c2a:	4782                	lw	a5,0(sp)
     c2c:	e80519e3          	bnez	a0,abe <i2c_write_reg+0x8e>
     c30:	4515                	li	a0,5
     c32:	b571                	j	abe <i2c_write_reg+0x8e>
			I2C_TIMEOUT_WAIT_FOR(!(I2C1->STAR1 & I2C_STAR1_TXE), i2c_ret);
     c34:	863a                	mv	a2,a4
     c36:	bdad                	j	ab0 <i2c_write_reg+0x80>
	I2C_TIMEOUT_WAIT_FOR(!i2c_status(I2C_EVENT_MASTER_BYTE_TRANSMITTED), i2c_ret);
     c38:	fff40793          	addi	a5,s0,-1
     c3c:	e409                	bnez	s0,c46 <i2c_write_reg+0x216>
	i2c_err_t i2c_err = i2c_error();
     c3e:	36f9                	jal	80c <i2c_error>
	if(i2c_err == I2C_OK) i2c_err = I2C_ERR_BUSY;
     c40:	f535                	bnez	a0,bac <i2c_write_reg+0x17c>
     c42:	4515                	li	a0,5
     c44:	b7a5                	j	bac <i2c_write_reg+0x17c>
	I2C_TIMEOUT_WAIT_FOR(!i2c_status(I2C_EVENT_MASTER_BYTE_TRANSMITTED), i2c_ret);
     c46:	843e                	mv	s0,a5
     c48:	bf89                	j	b9a <i2c_write_reg+0x16a>

00000c4a <oled_update.isra.0>:

	return OLED_OK;
}


oled_err_t oled_update(void)
     c4a:	1141                	addi	sp,sp,-16
     c4c:	c226                	sw	s1,4(sp)
{
	if(_oled_dev == NULL) return OLED_UNSET_DEVICE;
     c4e:	c441a483          	lw	s1,-956(gp) # 20000040 <_oled_dev>
oled_err_t oled_update(void)
     c52:	c606                	sw	ra,12(sp)
     c54:	c422                	sw	s0,8(sp)
	if(_oled_dev == NULL) return OLED_UNSET_DEVICE;
     c56:	ccb1                	beqz	s1,cb2 <oled_update.isra.0+0x68>
	
	// Write the OLED Display Data
	for(int page = 0; page < OLED_PAGES; page++)
     c58:	4401                	li	s0,0
	uint8_t pos_arr[3] = { (0xB0 | y), 
     c5a:	fb046793          	ori	a5,s0,-80
     c5e:	00f10023          	sb	a5,0(sp)
	OLED_WRITE(OLED_REG_COMMAND, &pos_arr[0], 1);
     c62:	4685                	li	a3,1
	uint8_t pos_arr[3] = { (0xB0 | y), 
     c64:	47c1                	li	a5,16
	OLED_WRITE(OLED_REG_COMMAND, &pos_arr[0], 1);
     c66:	860a                	mv	a2,sp
     c68:	4581                	li	a1,0
     c6a:	8526                	mv	a0,s1
	uint8_t pos_arr[3] = { (0xB0 | y), 
     c6c:	000100a3          	sb	zero,1(sp)
     c70:	00f10123          	sb	a5,2(sp)
	OLED_WRITE(OLED_REG_COMMAND, &pos_arr[0], 1);
     c74:	3b75                	jal	a30 <i2c_write_reg>
     c76:	ed11                	bnez	a0,c92 <oled_update.isra.0+0x48>
	OLED_WRITE(OLED_REG_COMMAND, &pos_arr[1], 1);
     c78:	4685                	li	a3,1
     c7a:	00d10633          	add	a2,sp,a3
     c7e:	4581                	li	a1,0
     c80:	8526                	mv	a0,s1
     c82:	337d                	jal	a30 <i2c_write_reg>
     c84:	e519                	bnez	a0,c92 <oled_update.isra.0+0x48>
	OLED_WRITE(OLED_REG_COMMAND, &pos_arr[2], 1);
     c86:	4685                	li	a3,1
     c88:	00210613          	addi	a2,sp,2
     c8c:	4581                	li	a1,0
     c8e:	8526                	mv	a0,s1
     c90:	3345                	jal	a30 <i2c_write_reg>
	{	
		oled_set_cursor(0, page);
		OLED_WRITE(OLED_REG_DISPLAY_START, _oled_buffer[page], OLED_WIDTH);
     c92:	00741613          	slli	a2,s0,0x7
     c96:	c8018793          	addi	a5,gp,-896 # 2000007c <_oled_buffer>
     c9a:	08000693          	li	a3,128
     c9e:	963e                	add	a2,a2,a5
     ca0:	04000593          	li	a1,64
     ca4:	8526                	mv	a0,s1
     ca6:	3369                	jal	a30 <i2c_write_reg>
     ca8:	e509                	bnez	a0,cb2 <oled_update.isra.0+0x68>
	for(int page = 0; page < OLED_PAGES; page++)
     caa:	0405                	addi	s0,s0,1
     cac:	47a1                	li	a5,8
     cae:	faf416e3          	bne	s0,a5,c5a <oled_update.isra.0+0x10>
	}

	return OLED_OK;
}
     cb2:	40b2                	lw	ra,12(sp)
     cb4:	4422                	lw	s0,8(sp)
     cb6:	4492                	lw	s1,4(sp)
     cb8:	0141                	addi	sp,sp,16
     cba:	8082                	ret

00000cbc <handle_reset>:
	asm volatile( "\n\
     cbc:	1ffff197          	auipc	gp,0x1ffff
     cc0:	74018193          	addi	gp,gp,1856 # 200003fc <__global_pointer$>
     cc4:	40418113          	addi	sp,gp,1028 # 20000800 <_eusrstack>
     cc8:	6509                	lui	a0,0x2
     cca:	88050513          	addi	a0,a0,-1920 # 1880 <main+0x7ba>
     cce:	30051073          	csrw	mstatus,a0
     cd2:	468d                	li	a3,3
     cd4:	fffff517          	auipc	a0,0xfffff
     cd8:	32c50513          	addi	a0,a0,812 # 0 <InterruptVector>
     cdc:	8d55                	or	a0,a0,a3
     cde:	30551073          	csrw	mtvec,a0
asm volatile(
     ce2:	c3c18513          	addi	a0,gp,-964 # 20000038 <accumulator.0>
     ce6:	08018593          	addi	a1,gp,128 # 2000047c <_ebss>
     cea:	4601                	li	a2,0
     cec:	00b55663          	bge	a0,a1,cf8 <handle_reset+0x3c>
     cf0:	c110                	sw	a2,0(a0)
     cf2:	0511                	addi	a0,a0,4
     cf4:	feb54ee3          	blt	a0,a1,cf0 <handle_reset+0x34>
     cf8:	00001517          	auipc	a0,0x1
     cfc:	51050513          	addi	a0,a0,1296 # 2208 <_data_lma>
     d00:	c0418593          	addi	a1,gp,-1020 # 20000000 <rotenc_prev_bitmask.1>
     d04:	c3c18613          	addi	a2,gp,-964 # 20000038 <accumulator.0>
     d08:	00c58863          	beq	a1,a2,d18 <handle_reset+0x5c>
     d0c:	4114                	lw	a3,0(a0)
     d0e:	c194                	sw	a3,0(a1)
     d10:	0511                	addi	a0,a0,4
     d12:	0591                	addi	a1,a1,4
     d14:	fec59ae3          	bne	a1,a2,d08 <handle_reset+0x4c>
	SysTick->CTLR = 5;
     d18:	e000f7b7          	lui	a5,0xe000f
     d1c:	4715                	li	a4,5
     d1e:	c398                	sw	a4,0(a5)
asm volatile(
     d20:	6785                	lui	a5,0x1
     d22:	0c678793          	addi	a5,a5,198 # 10c6 <main>
     d26:	34179073          	csrw	mepc,a5
     d2a:	30200073          	mret

00000d2e <ADC1_2_IRQHandler>:

// Return the Machine Exception Program Register (MEPC)
static inline uint32_t __get_MEPC(void)
{
	uint32_t result;
	__ASM volatile( ADD_ARCH_ZICSR "csrr %0," "mepc" : "=r"(result));
     d2e:	34102573          	csrr	a0,mepc
	PrintHex( __get_MEPC() ); // "addr2line -e debugprintfdemo.elf 0x000007e6" ---> debugprintfdemo.c:45
     d32:	953ff0ef          	jal	684 <PrintHex>
	__ASM volatile( ADD_ARCH_ZICSR "csrr %0, mstatus": "=r"(result) );
     d36:	30002573          	csrr	a0,mstatus
	PrintHex( __get_MSTATUS() );
     d3a:	94bff0ef          	jal	684 <PrintHex>

// Return the Machine Trap Value Register (MTVAL)
static inline uint32_t __get_MTVAL(void)
{
	uint32_t result;
	__ASM volatile( ADD_ARCH_ZICSR "csrr %0," "mtval" : "=r" (result) );
     d3e:	34302573          	csrr	a0,mtval
	PrintHex( __get_MTVAL() );
     d42:	943ff0ef          	jal	684 <PrintHex>
	__ASM volatile( ADD_ARCH_ZICSR "csrr %0," "mcause": "=r"(result));
     d46:	34202573          	csrr	a0,mcause
	PrintHex( __get_MCAUSE() );
     d4a:	93bff0ef          	jal	684 <PrintHex>
	while( (*DMDATA0) & 0x80 );
     d4e:	e00007b7          	lui	a5,0xe0000
     d52:	0f478793          	addi	a5,a5,244 # e00000f4 <_eusrstack+0xbffff8f4>
     d56:	4398                	lw	a4,0(a5)
     d58:	08077713          	andi	a4,a4,128
     d5c:	ff6d                	bnez	a4,d56 <ADC1_2_IRQHandler+0x28>
	*DMDATA0 = 0x0a85;
     d5e:	6705                	lui	a4,0x1
     d60:	a8570713          	addi	a4,a4,-1403 # a85 <i2c_write_reg+0x55>
     d64:	c398                	sw	a4,0(a5)
	while( (*DMDATA0) & 0x80 );
     d66:	e00007b7          	lui	a5,0xe0000
     d6a:	0f478793          	addi	a5,a5,244 # e00000f4 <_eusrstack+0xbffff8f4>
     d6e:	4398                	lw	a4,0(a5)
     d70:	08077713          	andi	a4,a4,128
     d74:	ff6d                	bnez	a4,d6e <ADC1_2_IRQHandler+0x40>
	*DMDATA0 = 0xaaaaaa83;
     d76:	aaaab737          	lui	a4,0xaaaab
     d7a:	a8370713          	addi	a4,a4,-1405 # aaaaaa83 <_eusrstack+0x8aaaa283>
     d7e:	c398                	sw	a4,0(a5)
	asm volatile( "1: j 1b" );
     d80:	a001                	j	d80 <ADC1_2_IRQHandler+0x52>

00000d82 <NMI_Handler>:
	RCC->INTR |= RCC_CSSC;	// clear the clock security int flag
     d82:	40021737          	lui	a4,0x40021
     d86:	471c                	lw	a5,8(a4)
     d88:	008006b7          	lui	a3,0x800
     d8c:	8fd5                	or	a5,a5,a3
     d8e:	c71c                	sw	a5,8(a4)

00000d90 <strlen>:
	for (; *s; s++);
     d90:	87aa                	mv	a5,a0
     d92:	0007c703          	lbu	a4,0(a5)
     d96:	e701                	bnez	a4,d9e <strlen+0xe>
}
     d98:	40a78533          	sub	a0,a5,a0
     d9c:	8082                	ret
	for (; *s; s++);
     d9e:	0785                	addi	a5,a5,1
     da0:	bfcd                	j	d92 <strlen+0x2>

00000da2 <mini_vpprintf>:
{
     da2:	fa410113          	addi	sp,sp,-92
     da6:	caa2                	sw	s0,84(sp)
     da8:	c8a6                	sw	s1,80(sp)
     daa:	cc86                	sw	ra,88(sp)
     dac:	c02a                	sw	a0,0(sp)
     dae:	c22e                	sw	a1,4(sp)
     db0:	8432                	mv	s0,a2
     db2:	84b6                	mv	s1,a3
	if(puts == (void*)0) {
     db4:	e509                	bnez	a0,dbe <mini_vpprintf+0x1c>
		puts = _puts; buf = (void*)0;
     db6:	64400793          	li	a5,1604
     dba:	c202                	sw	zero,4(sp)
     dbc:	c03e                	sw	a5,0(sp)
	int n = 0;
     dbe:	ca02                	sw	zero,20(sp)
	while ((ch=*(fmt++))) {
     dc0:	00044783          	lbu	a5,0(s0)
     dc4:	00140713          	addi	a4,s0,1
     dc8:	00f10fa3          	sb	a5,31(sp)
     dcc:	eb81                	bnez	a5,ddc <mini_vpprintf+0x3a>
}
     dce:	40e6                	lw	ra,88(sp)
     dd0:	4456                	lw	s0,84(sp)
     dd2:	4552                	lw	a0,20(sp)
     dd4:	44c6                	lw	s1,80(sp)
     dd6:	05c10113          	addi	sp,sp,92
     dda:	8082                	ret
     ddc:	c63a                	sw	a4,12(sp)
		if (ch!='%') {
     dde:	02500693          	li	a3,37
     de2:	02d78063          	beq	a5,a3,e02 <mini_vpprintf+0x60>
			len = puts(&ch, len, buf);
     de6:	4612                	lw	a2,4(sp)
     de8:	4782                	lw	a5,0(sp)
     dea:	4585                	li	a1,1
     dec:	01f10513          	addi	a0,sp,31
     df0:	9782                	jalr	a5
	while ((ch=*(fmt++))) {
     df2:	4732                	lw	a4,12(sp)
     df4:	c426                	sw	s1,8(sp)
     df6:	843a                	mv	s0,a4
		n = n + len;
     df8:	47d2                	lw	a5,20(sp)
     dfa:	44a2                	lw	s1,8(sp)
     dfc:	97aa                	add	a5,a5,a0
     dfe:	ca3e                	sw	a5,20(sp)
     e00:	b7c1                	j	dc0 <mini_vpprintf+0x1e>
			ch=*(fmt++);
     e02:	00144783          	lbu	a5,1(s0)
			if (ch == '0') pad_char = '0';
     e06:	03000693          	li	a3,48
			ch=*(fmt++);
     e0a:	00240713          	addi	a4,s0,2
     e0e:	00f10fa3          	sb	a5,31(sp)
			if (ch == '0') pad_char = '0';
     e12:	c63e                	sw	a5,12(sp)
     e14:	08d79363          	bne	a5,a3,e9a <mini_vpprintf+0xf8>
				ch=*(fmt++);
     e18:	843a                	mv	s0,a4
     e1a:	4681                	li	a3,0
     e1c:	4701                	li	a4,0
			while (ch >= '0' && ch <= '9') {
     e1e:	45a5                	li	a1,9
     e20:	a819                	j	e36 <mini_vpprintf+0x94>
				pad_to = pad_to * 10 + (ch - '0');
     e22:	00271793          	slli	a5,a4,0x2
     e26:	97ba                	add	a5,a5,a4
     e28:	0786                	slli	a5,a5,0x1
				ch=*(fmt++);
     e2a:	0405                	addi	s0,s0,1
				pad_to = pad_to * 10 + (ch - '0');
     e2c:	00f60733          	add	a4,a2,a5
				ch=*(fmt++);
     e30:	fff44783          	lbu	a5,-1(s0)
     e34:	4685                	li	a3,1
			while (ch >= '0' && ch <= '9') {
     e36:	fd078613          	addi	a2,a5,-48
     e3a:	0ff67513          	zext.b	a0,a2
     e3e:	fea5f2e3          	bgeu	a1,a0,e22 <mini_vpprintf+0x80>
     e42:	c299                	beqz	a3,e48 <mini_vpprintf+0xa6>
     e44:	00f10fa3          	sb	a5,31(sp)
			if(pad_to > (signed int) sizeof(bf)) {
     e48:	c83a                	sw	a4,16(sp)
     e4a:	46e1                	li	a3,24
     e4c:	00e6d363          	bge	a3,a4,e52 <mini_vpprintf+0xb0>
     e50:	c836                	sw	a3,16(sp)
			if (ch == 'l') {
     e52:	06c00613          	li	a2,108
			char l = 0;
     e56:	4681                	li	a3,0
			if (ch == 'l') {
     e58:	00c79863          	bne	a5,a2,e68 <mini_vpprintf+0xc6>
				ch=*(fmt++);
     e5c:	00044783          	lbu	a5,0(s0)
				l = 1;
     e60:	4685                	li	a3,1
				ch=*(fmt++);
     e62:	0405                	addi	s0,s0,1
     e64:	00f10fa3          	sb	a5,31(sp)
			switch (ch) {
     e68:	01f14603          	lbu	a2,31(sp)
     e6c:	06400793          	li	a5,100
     e70:	06f60563          	beq	a2,a5,eda <mini_vpprintf+0x138>
     e74:	02c7e763          	bltu	a5,a2,ea2 <mini_vpprintf+0x100>
     e78:	05800793          	li	a5,88
     e7c:	0af60263          	beq	a2,a5,f20 <mini_vpprintf+0x17e>
     e80:	06300793          	li	a5,99
     e84:	0cf60063          	beq	a2,a5,f44 <mini_vpprintf+0x1a2>
     e88:	d239                	beqz	a2,dce <mini_vpprintf+0x2c>
					len = puts(&ch, len, buf);
     e8a:	4612                	lw	a2,4(sp)
     e8c:	4782                	lw	a5,0(sp)
     e8e:	4585                	li	a1,1
     e90:	01f10513          	addi	a0,sp,31
     e94:	9782                	jalr	a5
					break;
     e96:	c426                	sw	s1,8(sp)
     e98:	b785                	j	df8 <mini_vpprintf+0x56>
			char pad_char = ' ';
     e9a:	02000693          	li	a3,32
     e9e:	c636                	sw	a3,12(sp)
     ea0:	bfa5                	j	e18 <mini_vpprintf+0x76>
			switch (ch) {
     ea2:	07500793          	li	a5,117
     ea6:	02f60a63          	beq	a2,a5,eda <mini_vpprintf+0x138>
     eaa:	07800793          	li	a5,120
     eae:	06f60963          	beq	a2,a5,f20 <mini_vpprintf+0x17e>
     eb2:	07300793          	li	a5,115
     eb6:	fcf61ae3          	bne	a2,a5,e8a <mini_vpprintf+0xe8>
					ptr = va_arg(va, char*);
     eba:	00448793          	addi	a5,s1,4
     ebe:	4084                	lw	s1,0(s1)
     ec0:	cc3a                	sw	a4,24(sp)
     ec2:	c43e                	sw	a5,8(sp)
					len = mini_strlen(ptr);
     ec4:	8526                	mv	a0,s1
     ec6:	35e9                	jal	d90 <strlen>
					if (pad_to > 0) {
     ec8:	4762                	lw	a4,24(sp)
					len = mini_strlen(ptr);
     eca:	85aa                	mv	a1,a0
					if (pad_to > 0) {
     ecc:	08e05963          	blez	a4,f5e <mini_vpprintf+0x1bc>
						len = mini_pad(ptr, len, pad_char, pad_to, bf);
     ed0:	46c2                	lw	a3,16(sp)
     ed2:	4632                	lw	a2,12(sp)
     ed4:	1838                	addi	a4,sp,56
     ed6:	8526                	mv	a0,s1
     ed8:	a025                	j	f00 <mini_vpprintf+0x15e>
						len = mini_itoa(va_arg(va, unsigned long), 10, 0, (ch=='u'), bf2);
     eda:	00448793          	addi	a5,s1,4
     ede:	c43e                	sw	a5,8(sp)
					if(l) {
     ee0:	ca85                	beqz	a3,f10 <mini_vpprintf+0x16e>
						len = mini_itoa(va_arg(va, unsigned long), 10, 0, (ch=='u'), bf2);
     ee2:	f8b60613          	addi	a2,a2,-117
     ee6:	1018                	addi	a4,sp,32
     ee8:	00163693          	seqz	a3,a2
     eec:	4088                	lw	a0,0(s1)
     eee:	4601                	li	a2,0
     ef0:	45a9                	li	a1,10
     ef2:	ffeff0ef          	jal	6f0 <mini_itoa.part.0>
					len = mini_pad(bf2, len, pad_char, pad_to, bf);
     ef6:	46c2                	lw	a3,16(sp)
     ef8:	4632                	lw	a2,12(sp)
     efa:	1838                	addi	a4,sp,56
     efc:	85aa                	mv	a1,a0
					len = mini_pad(bf2, len, pad_char, pad_to, bf);
     efe:	1008                	addi	a0,sp,32
     f00:	ebaff0ef          	jal	5ba <mini_pad>
					len = puts(bf, len, buf);
     f04:	4612                	lw	a2,4(sp)
					len = mini_pad(bf2, len, pad_char, pad_to, bf);
     f06:	85aa                	mv	a1,a0
					len = puts(bf, len, buf);
     f08:	1828                	addi	a0,sp,56
     f0a:	4782                	lw	a5,0(sp)
     f0c:	9782                	jalr	a5
					break;
     f0e:	b5ed                	j	df8 <mini_vpprintf+0x56>
						if(ch == 'u') {
     f10:	07500793          	li	a5,117
     f14:	1018                	addi	a4,sp,32
     f16:	4685                	li	a3,1
     f18:	fcf60ae3          	beq	a2,a5,eec <mini_vpprintf+0x14a>
	if (radix > 16)
     f1c:	4681                	li	a3,0
     f1e:	b7f9                	j	eec <mini_vpprintf+0x14a>
					if(l) {
     f20:	4088                	lw	a0,0(s1)
						len = mini_itoa(va_arg(va, unsigned long), 16, (ch=='X'), 1, bf2);
     f22:	fa860613          	addi	a2,a2,-88
						len = mini_itoa(va_arg(va, unsigned long), 10, 0, (ch=='u'), bf2);
     f26:	00448793          	addi	a5,s1,4
     f2a:	1018                	addi	a4,sp,32
     f2c:	4685                	li	a3,1
     f2e:	00163613          	seqz	a2,a2
     f32:	45c1                	li	a1,16
     f34:	c43e                	sw	a5,8(sp)
	if (radix > 16)
     f36:	fbaff0ef          	jal	6f0 <mini_itoa.part.0>
					len = mini_pad(bf2, len, pad_char, pad_to, bf);
     f3a:	46c2                	lw	a3,16(sp)
     f3c:	4632                	lw	a2,12(sp)
     f3e:	85aa                	mv	a1,a0
     f40:	1838                	addi	a4,sp,56
     f42:	bf75                	j	efe <mini_vpprintf+0x15c>
					ch = (char)(va_arg(va, int));
     f44:	00448793          	addi	a5,s1,4
     f48:	c43e                	sw	a5,8(sp)
     f4a:	409c                	lw	a5,0(s1)
					len = mini_pad(&ch, 1, pad_char, pad_to, bf);
     f4c:	46c2                	lw	a3,16(sp)
     f4e:	4632                	lw	a2,12(sp)
					ch = (char)(va_arg(va, int));
     f50:	00f10fa3          	sb	a5,31(sp)
					len = mini_pad(&ch, 1, pad_char, pad_to, bf);
     f54:	1838                	addi	a4,sp,56
     f56:	4585                	li	a1,1
     f58:	01f10513          	addi	a0,sp,31
     f5c:	b755                	j	f00 <mini_vpprintf+0x15e>
						len = puts(ptr, len, buf);
     f5e:	4612                	lw	a2,4(sp)
     f60:	8526                	mv	a0,s1
     f62:	b765                	j	f0a <mini_vpprintf+0x168>

00000f64 <printf>:
{
     f64:	1111                	addi	sp,sp,-28
     f66:	c632                	sw	a2,12(sp)
	int ret_status = mini_vpprintf(__puts_uart, 0, format, args);
     f68:	862a                	mv	a2,a0
     f6a:	6505                	lui	a0,0x1
{
     f6c:	c42e                	sw	a1,8(sp)
     f6e:	c836                	sw	a3,16(sp)
	int ret_status = mini_vpprintf(__puts_uart, 0, format, args);
     f70:	4581                	li	a1,0
	va_start( args, format );
     f72:	0034                	addi	a3,sp,8
	int ret_status = mini_vpprintf(__puts_uart, 0, format, args);
     f74:	a1c50513          	addi	a0,a0,-1508 # a1c <__puts_uart>
{
     f78:	c206                	sw	ra,4(sp)
     f7a:	ca3a                	sw	a4,20(sp)
     f7c:	cc3e                	sw	a5,24(sp)
	va_start( args, format );
     f7e:	c036                	sw	a3,0(sp)
	int ret_status = mini_vpprintf(__puts_uart, 0, format, args);
     f80:	350d                	jal	da2 <mini_vpprintf>
}
     f82:	4092                	lw	ra,4(sp)
     f84:	0171                	addi	sp,sp,28
     f86:	8082                	ret

00000f88 <memset>:
WEAK void *memset(void *dest, int c, size_t n) { unsigned char *s = dest; for (; n; n--, s++) *s = c; return dest; }
     f88:	962a                	add	a2,a2,a0
     f8a:	87aa                	mv	a5,a0
     f8c:	00c79363          	bne	a5,a2,f92 <memset+0xa>
     f90:	8082                	ret
     f92:	00b78023          	sb	a1,0(a5)
     f96:	0785                	addi	a5,a5,1
     f98:	bfd5                	j	f8c <memset+0x4>

00000f9a <strchr>:
	c = (unsigned char)c;
     f9a:	0ff5f593          	zext.b	a1,a1
		char ts = *s;
     f9e:	00054783          	lbu	a5,0(a0)
		if( ts == c ) return (char*)s;
     fa2:	00b78663          	beq	a5,a1,fae <strchr+0x14>
		if( !ts ) return 0;
     fa6:	c399                	beqz	a5,fac <strchr+0x12>
		s++;
     fa8:	0505                	addi	a0,a0,1
	{
     faa:	bfd5                	j	f9e <strchr+0x4>
		if( !ts ) return 0;
     fac:	4501                	li	a0,0
}
     fae:	8082                	ret

00000fb0 <font16x16_to_framebuffer.part.0>:
static void font16x16_to_framebuffer(const char *str, uint8_t *ptr)
     fb0:	1151                	addi	sp,sp,-12
     fb2:	c222                	sw	s0,4(sp)
     fb4:	c026                	sw	s1,0(sp)
     fb6:	c406                	sw	ra,8(sp)
     fb8:	842a                	mv	s0,a0
     fba:	84ae                	mv	s1,a1
		const char *lut_ptr = strchr(font16_16_lut, *str++);
     fbc:	6709                	lui	a4,0x2
	while(*str)
     fbe:	00044583          	lbu	a1,0(s0)
     fc2:	e591                	bnez	a1,fce <font16x16_to_framebuffer.part.0+0x1e>
}
     fc4:	40a2                	lw	ra,8(sp)
     fc6:	4412                	lw	s0,4(sp)
     fc8:	4482                	lw	s1,0(sp)
     fca:	0131                	addi	sp,sp,12
     fcc:	8082                	ret
		const char *lut_ptr = strchr(font16_16_lut, *str++);
     fce:	1d470513          	addi	a0,a4,468 # 21d4 <font16_16_lut>
     fd2:	37e1                	jal	f9a <strchr>
     fd4:	0405                	addi	s0,s0,1
		if(lut_ptr == NULL) continue;
     fd6:	6709                	lui	a4,0x2
     fd8:	6689                	lui	a3,0x2
     fda:	d175                	beqz	a0,fbe <font16x16_to_framebuffer.part.0+0xe>
		const uint16_t *glyph = font16x16_data[lut_ptr - font16_16_lut];
     fdc:	1d470793          	addi	a5,a4,468 # 21d4 <font16_16_lut>
     fe0:	40f507b3          	sub	a5,a0,a5
     fe4:	fb468613          	addi	a2,a3,-76 # 1fb4 <font16x16_data>
     fe8:	0796                	slli	a5,a5,0x5
     fea:	97b2                	add	a5,a5,a2
     fec:	02078513          	addi	a0,a5,32
     ff0:	8626                	mv	a2,s1
			ptr[line]              = (uint8_t)(glyph[line] & 0xFF);
     ff2:	0007d583          	lhu	a1,0(a5)
		for(uint8_t line = 0; line < GLYPH_ROWS; line++)
     ff6:	0789                	addi	a5,a5,2
     ff8:	0605                	addi	a2,a2,1
			ptr[line]              = (uint8_t)(glyph[line] & 0xFF);
     ffa:	feb60fa3          	sb	a1,-1(a2)
			ptr[line + OLED_WIDTH] = (uint8_t)(glyph[line] >> 8);
     ffe:	ffe7d583          	lhu	a1,-2(a5)
    1002:	81a1                	srli	a1,a1,0x8
    1004:	06b60fa3          	sb	a1,127(a2)
		for(uint8_t line = 0; line < GLYPH_ROWS; line++)
    1008:	fea795e3          	bne	a5,a0,ff2 <font16x16_to_framebuffer.part.0+0x42>
		ptr += GLYPH_ROWS;
    100c:	04c1                	addi	s1,s1,16
    100e:	bf45                	j	fbe <font16x16_to_framebuffer.part.0+0xe>

00001010 <memcpy>:
	for (; n; n--) *d++ = *s++;
    1010:	4781                	li	a5,0
    1012:	00f61363          	bne	a2,a5,1018 <memcpy+0x8>
}
    1016:	8082                	ret
	for (; n; n--) *d++ = *s++;
    1018:	00f58733          	add	a4,a1,a5
    101c:	00074683          	lbu	a3,0(a4)
    1020:	00f50733          	add	a4,a0,a5
    1024:	0785                	addi	a5,a5,1
    1026:	00d70023          	sb	a3,0(a4)
    102a:	b7e5                	j	1012 <memcpy+0x2>

0000102c <font8x8_to_framebuffer.part.0>:
static void font8x8_to_framebuffer(const char *str, uint8_t *ptr)
    102c:	1151                	addi	sp,sp,-12
    102e:	c222                	sw	s0,4(sp)
    1030:	c026                	sw	s1,0(sp)
    1032:	c406                	sw	ra,8(sp)
    1034:	84aa                	mv	s1,a0
    1036:	842e                	mv	s0,a1
	while(*str)
    1038:	0004c583          	lbu	a1,0(s1)
    103c:	e591                	bnez	a1,1048 <font8x8_to_framebuffer.part.0+0x1c>
}
    103e:	40a2                	lw	ra,8(sp)
    1040:	4412                	lw	s0,4(sp)
    1042:	4482                	lw	s1,0(sp)
    1044:	0131                	addi	sp,sp,12
    1046:	8082                	ret
		const char *lut_ptr = strchr(font8x8_lut, *str++);
    1048:	6789                	lui	a5,0x2
    104a:	f8478513          	addi	a0,a5,-124 # 1f84 <font8x8_lut>
    104e:	0485                	addi	s1,s1,1
    1050:	37a9                	jal	f9a <strchr>
		if(lut_ptr == NULL) continue;
    1052:	d17d                	beqz	a0,1038 <font8x8_to_framebuffer.part.0+0xc>
		memcpy(ptr, font8x8_data[lut_ptr - font8x8_lut], sizeof(font8x8_data[0]));
    1054:	6789                	lui	a5,0x2
    1056:	f8478793          	addi	a5,a5,-124 # 1f84 <font8x8_lut>
    105a:	40f507b3          	sub	a5,a0,a5
    105e:	6589                	lui	a1,0x2
    1060:	078e                	slli	a5,a5,0x3
    1062:	e0c58593          	addi	a1,a1,-500 # 1e0c <font8x8_data>
    1066:	8522                	mv	a0,s0
    1068:	4621                	li	a2,8
    106a:	95be                	add	a1,a1,a5
    106c:	3755                	jal	1010 <memcpy>
		ptr += sizeof(font8x8_data[0]);
    106e:	0421                	addi	s0,s0,8
    1070:	b7e1                	j	1038 <font8x8_to_framebuffer.part.0+0xc>

00001072 <SystemInit>:
	#endif
#elif defined(CH32X03x)
	FLASH->ACTLR = FLASH_ACTLR_LATENCY_2;                   // +2 Cycle Latency (Recommended per TRM)
#elif defined(CH32V003)
	#if FUNCONF_SYSTEM_CORE_CLOCK > 25000000
		FLASH->ACTLR = FLASH_ACTLR_LATENCY_1;               // +1 Cycle Latency
    1072:	400227b7          	lui	a5,0x40022
    1076:	4705                	li	a4,1
    1078:	c398                	sw	a4,0(a5)
#elif defined(FUNCONF_USE_HSI) && FUNCONF_USE_HSI
	#if defined(CH32V30x) || defined(CH32V20x) || defined(CH32V10x)
		EXTEN->EXTEN_CTR |= EXTEN_PLL_HSI_PRE;
	#endif
	#if defined(FUNCONF_USE_PLL) && FUNCONF_USE_PLL
		RCC->CFGR0 = BASE_CFGR0;
    107a:	400217b7          	lui	a5,0x40021
		RCC->CTLR  = BASE_CTLR | RCC_HSION | RCC_PLLON; 			// Use HSI, enable PLL.
    107e:	01080737          	lui	a4,0x1080
		RCC->CFGR0 = BASE_CFGR0;
    1082:	0007a223          	sw	zero,4(a5) # 40021004 <_eusrstack+0x20020804>
		RCC->CTLR  = BASE_CTLR | RCC_HSION | RCC_PLLON; 			// Use HSI, enable PLL.
    1086:	08170713          	addi	a4,a4,129 # 1080081 <oled.c.a655e948+0x107a2d7>
    108a:	c398                	sw	a4,0(a5)
		FLASH->ACTLR = FLASH_ACTLR_LATENCY_1;       		// +1 Cycle Latency
	#endif
#endif

#if !defined(CH57x) && !defined(CH58x) && !defined(CH59x)
	RCC->INTR  = 0x009F0000;                               // Clear PLL, CSSC, HSE, HSI and LSI ready flags.
    108c:	009f0737          	lui	a4,0x9f0
    1090:	c798                	sw	a4,8(a5)
#endif

#if defined(FUNCONF_USE_PLL) && FUNCONF_USE_PLL && !defined(CH57x) && !defined(CH58x) && !defined(CH59x)
	while((RCC->CTLR & RCC_PLLRDY) == 0);                       	// Wait till PLL is ready
    1092:	4398                	lw	a4,0(a5)
    1094:	00671693          	slli	a3,a4,0x6
    1098:	fe06dde3          	bgez	a3,1092 <SystemInit+0x20>
	uint32_t tmp32 = RCC->CFGR0 & ~(0x03);							// clr the SW
    109c:	43d8                	lw	a4,4(a5)
	RCC->CFGR0 = tmp32 | RCC_SW_PLL;                       			// Select PLL as system clock source
	while ((RCC->CFGR0 & (uint32_t)RCC_SWS) != (uint32_t)0x08); 	// Wait till PLL is used as system clock source
    109e:	400216b7          	lui	a3,0x40021
	uint32_t tmp32 = RCC->CFGR0 & ~(0x03);							// clr the SW
    10a2:	9b71                	andi	a4,a4,-4
	RCC->CFGR0 = tmp32 | RCC_SW_PLL;                       			// Select PLL as system clock source
    10a4:	00276713          	ori	a4,a4,2
    10a8:	c3d8                	sw	a4,4(a5)
	while ((RCC->CFGR0 & (uint32_t)RCC_SWS) != (uint32_t)0x08); 	// Wait till PLL is used as system clock source
    10aa:	4721                	li	a4,8
    10ac:	42dc                	lw	a5,4(a3)
    10ae:	8bb1                	andi	a5,a5,12
    10b0:	fee79ee3          	bne	a5,a4,10ac <SystemInit+0x3a>
	*DMDATA1 = 0x00;
    10b4:	e00007b7          	lui	a5,0xe0000
    10b8:	0e07ac23          	sw	zero,248(a5) # e00000f8 <_eusrstack+0xbffff8f8>
	*DMDATA0 = 0x80;
    10bc:	08000713          	li	a4,128
    10c0:	0ee7aa23          	sw	a4,244(a5)
	SetupUART( UART_BRR );
#endif
#if defined( FUNCONF_USE_DEBUGPRINTF ) && FUNCONF_USE_DEBUGPRINTF
	SetupDebugPrintf();
#endif
}
    10c4:	8082                	ret

000010c6 <main>:



/*** Main ********************************************************************/
int main(void)
{
    10c6:	fa410113          	addi	sp,sp,-92
    10ca:	cc86                	sw	ra,88(sp)
    10cc:	caa2                	sw	s0,84(sp)
    10ce:	c8a6                	sw	s1,80(sp)
	SystemInit();
    10d0:	374d                	jal	1072 <SystemInit>

	/*** IO Initialisation *******************************/
	// I2C Setup for the OLED
	i2c_device_t i2c_oled = {
    10d2:	1044                	addi	s1,sp,36
    10d4:	6589                	lui	a1,0x2
    10d6:	c6858593          	addi	a1,a1,-920 # 1c68 <thermistor_pair+0x130>
    10da:	4641                	li	a2,16
    10dc:	8526                	mv	a0,s1
    10de:	3f0d                	jal	1010 <memcpy>
	_i2c_timeout = dev->tout;
    10e0:	7d000713          	li	a4,2000
    10e4:	c4e1a023          	sw	a4,-960(gp) # 2000003c <_i2c_timeout>
	RCC->APB1PRSTR |=  RCC_APB1Periph_I2C1;
    10e8:	40021437          	lui	s0,0x40021
    10ec:	481c                	lw	a5,16(s0)
    10ee:	00200637          	lui	a2,0x200
	RCC->APB1PRSTR &= ~RCC_APB1Periph_I2C1;
    10f2:	ffe00737          	lui	a4,0xffe00
	RCC->APB1PRSTR |=  RCC_APB1Periph_I2C1;
    10f6:	8fd1                	or	a5,a5,a2
    10f8:	c81c                	sw	a5,16(s0)
	RCC->APB1PRSTR &= ~RCC_APB1Periph_I2C1;
    10fa:	481c                	lw	a5,16(s0)
    10fc:	177d                	addi	a4,a4,-1 # ffdfffff <_eusrstack+0xdfdff7ff>
    10fe:	8ff9                	and	a5,a5,a4
    1100:	c81c                	sw	a5,16(s0)
	RCC->APB1PCENR |= RCC_APB1Periph_I2C1;
    1102:	4c5c                	lw	a5,28(s0)
    1104:	8fd1                	or	a5,a5,a2
    1106:	cc5c                	sw	a5,28(s0)
	RCC->APB2PCENR |= I2C_PORT_RCC | RCC_APB2Periph_AFIO;
    1108:	4c1c                	lw	a5,24(s0)
	AFIO->PCFR1 &= ~(0x04400002);
    110a:	fbc00637          	lui	a2,0xfbc00
    110e:	1675                	addi	a2,a2,-3 # fbbffffd <_eusrstack+0xdbbff7fd>
	RCC->APB2PCENR |= I2C_PORT_RCC | RCC_APB2Periph_AFIO;
    1110:	0117e793          	ori	a5,a5,17
    1114:	cc1c                	sw	a5,24(s0)
	AFIO->PCFR1 &= ~(0x04400002);
    1116:	400107b7          	lui	a5,0x40010
    111a:	43d8                	lw	a4,4(a5)
    111c:	8f71                	and	a4,a4,a2
    111e:	c3d8                	sw	a4,4(a5)
	AFIO->PCFR1 |= I2C_AFIO_REG;
    1120:	43d8                	lw	a4,4(a5)
	I2C_PORT->CFGLR &= ~(0x0F << (4 * I2C_PIN_SCL));
    1122:	767d                	lui	a2,0xfffff
    1124:	0ff60613          	addi	a2,a2,255 # fffff0ff <_eusrstack+0xdfffe8ff>
	AFIO->PCFR1 |= I2C_AFIO_REG;
    1128:	c3d8                	sw	a4,4(a5)
	I2C_PORT->CFGLR &= ~(0x0F << (4 * I2C_PIN_SDA));
    112a:	400117b7          	lui	a5,0x40011
    112e:	4398                	lw	a4,0(a5)
    1130:	f0f77713          	andi	a4,a4,-241
    1134:	c398                	sw	a4,0(a5)
	I2C_PORT->CFGLR |= (GPIO_Speed_10MHz | GPIO_CNF_OUT_OD_AF) << (4 * I2C_PIN_SDA);	
    1136:	4398                	lw	a4,0(a5)
    1138:	0d076713          	ori	a4,a4,208
    113c:	c398                	sw	a4,0(a5)
	I2C_PORT->CFGLR &= ~(0x0F << (4 * I2C_PIN_SCL));
    113e:	4398                	lw	a4,0(a5)
    1140:	8f71                	and	a4,a4,a2
    1142:	c398                	sw	a4,0(a5)
	I2C_PORT->CFGLR |= (GPIO_Speed_10MHz | GPIO_CNF_OUT_OD_AF) << (4 * I2C_PIN_SCL);
    1144:	4398                	lw	a4,0(a5)
    1146:	6605                	lui	a2,0x1
    1148:	d0060613          	addi	a2,a2,-768 # d00 <handle_reset+0x44>
    114c:	8f51                	or	a4,a4,a2
    114e:	c398                	sw	a4,0(a5)
	uint16_t i2c_conf = I2C1->CTLR2 & ~I2C_CTLR2_FREQ;
    1150:	40005737          	lui	a4,0x40005
    1154:	40475783          	lhu	a5,1028(a4) # 40005404 <_eusrstack+0x20004c04>
    1158:	6641                	lui	a2,0x10
    115a:	fc060613          	addi	a2,a2,-64 # ffc0 <oled.c.a655e948+0xa216>
    115e:	8ff1                	and	a5,a5,a2
	i2c_conf |= (FUNCONF_SYSTEM_CORE_CLOCK / I2C_PRERATE) & I2C_CTLR2_FREQ;
    1160:	0307e793          	ori	a5,a5,48
	I2C1->CTLR2 = i2c_conf;
    1164:	40f71223          	sh	a5,1028(a4)
	I2C1->CKCFGR = i2c_conf;
    1168:	77e1                	lui	a5,0xffff8
    116a:	07c1                	addi	a5,a5,16 # ffff8010 <_eusrstack+0xdfff7810>
    116c:	40f71e23          	sh	a5,1052(a4)
	I2C1->CTLR1 |= I2C_CTLR1_PE;
    1170:	40075783          	lhu	a5,1024(a4)
    1174:	0017e793          	ori	a5,a5,1
    1178:	40f71023          	sh	a5,1024(a4)
	return i2c_error();
    117c:	e90ff0ef          	jal	80c <i2c_error>
		.tout = 2000,
	};
	i2c_init(&i2c_oled);

	// Initialise the OLED, then display the BOOTING Screen
	Delay_Ms(20);
    1180:	000ea537          	lui	a0,0xea
    1184:	60050513          	addi	a0,a0,1536 # ea600 <oled.c.a655e948+0xe4856>
    1188:	d56ff0ef          	jal	6de <DelaySysTick>
	_oled_dev = dev;
    118c:	c491a223          	sw	s1,-956(gp) # 20000040 <_oled_dev>
	const uint8_t init_arr[] = {
    1190:	6789                	lui	a5,0x2
    1192:	c6878693          	addi	a3,a5,-920 # 1c68 <thermistor_pair+0x130>
    1196:	01068593          	addi	a1,a3,16 # 40021010 <_eusrstack+0x20020810>
    119a:	4665                	li	a2,25
    119c:	1848                	addi	a0,sp,52
    119e:	3d8d                	jal	1010 <memcpy>
	OLED_WRITE(OLED_REG_COMMAND, init_arr,  sizeof(init_arr));
    11a0:	1850                	addi	a2,sp,52
    11a2:	46e5                	li	a3,25
    11a4:	4581                	li	a1,0
    11a6:	8526                	mv	a0,s1
    11a8:	889ff0ef          	jal	a30 <i2c_write_reg>
	if(str == NULL || ptr == NULL) return;
    11ac:	6509                	lui	a0,0x2
    11ae:	da418593          	addi	a1,gp,-604 # 200001a0 <_oled_buffer+0x124>
    11b2:	d9450513          	addi	a0,a0,-620 # 1d94 <__clz_tab+0x100>
    11b6:	3d9d                	jal	102c <font8x8_to_framebuffer.part.0>
    11b8:	6509                	lui	a0,0x2
    11ba:	e2418593          	addi	a1,gp,-476 # 20000220 <_oled_buffer+0x1a4>
    11be:	d9c50513          	addi	a0,a0,-612 # 1d9c <__clz_tab+0x108>
    11c2:	35ad                	jal	102c <font8x8_to_framebuffer.part.0>
    11c4:	6509                	lui	a0,0x2
    11c6:	eb018593          	addi	a1,gp,-336 # 200002ac <_oled_buffer+0x230>
    11ca:	da450513          	addi	a0,a0,-604 # 1da4 <__clz_tab+0x110>
    11ce:	3db9                	jal	102c <font8x8_to_framebuffer.part.0>
	oled_init(&i2c_oled);
	oled_draw_boot_screen();
	oled_update();
    11d0:	3cad                	jal	c4a <oled_update.isra.0>
static void pwm_init(void)
{
	// NOTE: Uses TIM2 Channel 2 (PD3) and TIM2 Channel 3 (PC0)

	// Enable TIM2 Clock
	RCC->APB1PCENR |= RCC_APB1Periph_TIM2;
    11d2:	4c5c                	lw	a5,28(s0)

	// Set GPIO OUTPUT 10MHz, Aleternate Function (Multiplex)
	gpio_set_mode(GPIO_PC0, OUTPUT_10MHZ_PP | OUTPUT_PP_AF);
    11d4:	45a5                	li	a1,9
    11d6:	4509                	li	a0,2
	RCC->APB1PCENR |= RCC_APB1Periph_TIM2;
    11d8:	0017e793          	ori	a5,a5,1
    11dc:	cc5c                	sw	a5,28(s0)
	gpio_set_mode(GPIO_PC0, OUTPUT_10MHZ_PP | OUTPUT_PP_AF);
    11de:	dd2ff0ef          	jal	7b0 <gpio_set_mode>
	gpio_set_mode(GPIO_PD3, OUTPUT_10MHZ_PP | OUTPUT_PP_AF);
    11e2:	45a5                	li	a1,9
    11e4:	30300513          	li	a0,771
    11e8:	dc8ff0ef          	jal	7b0 <gpio_set_mode>

	// Reset TIM2, Inits all registers
	RCC->APB1PRSTR |=  RCC_APB1Periph_TIM2;
    11ec:	481c                	lw	a5,16(s0)
	RCC->APB1PRSTR &= ~RCC_APB1Periph_TIM2;

	// Set Prescaler to ~17KHz. More efficient switching
	TIM2->PSC = 0x000A;
    11ee:	4729                	li	a4,10
	// Set PWM Max Value (Autoreload Value)
	TIM2->ATRLR = 254;

	// Set the Compare Capture Register for Channel 3
	// TIM2_OC3M = 0b111 - PWM Mode 2 - Enable Preload
	TIM2->CHCTLR1 |= TIM_OC2M_2 | TIM_OC2M_1 | TIM_OC2M_0 | TIM_OC2PE;
    11f0:	66a1                	lui	a3,0x8
	RCC->APB1PRSTR |=  RCC_APB1Periph_TIM2;
    11f2:	0017e793          	ori	a5,a5,1
    11f6:	c81c                	sw	a5,16(s0)
	RCC->APB1PRSTR &= ~RCC_APB1Periph_TIM2;
    11f8:	481c                	lw	a5,16(s0)
	TIM2->CHCTLR1 |= TIM_OC2M_2 | TIM_OC2M_1 | TIM_OC2M_0 | TIM_OC2PE;
    11fa:	80068693          	addi	a3,a3,-2048 # 7800 <oled.c.a655e948+0x1a56>
	gpio_set_mode(ROTENC_SW_PIN, INPUT_PULLUP);
    11fe:	45e1                	li	a1,24
	RCC->APB1PRSTR &= ~RCC_APB1Periph_TIM2;
    1200:	9bf9                	andi	a5,a5,-2
    1202:	c81c                	sw	a5,16(s0)
	TIM2->PSC = 0x000A;
    1204:	400007b7          	lui	a5,0x40000
    1208:	02e79423          	sh	a4,40(a5) # 40000028 <_eusrstack+0x1ffff828>
	TIM2->ATRLR = 254;
    120c:	0fe00713          	li	a4,254
    1210:	02e79623          	sh	a4,44(a5)
	TIM2->CHCTLR1 |= TIM_OC2M_2 | TIM_OC2M_1 | TIM_OC2M_0 | TIM_OC2PE;
    1214:	0187d703          	lhu	a4,24(a5)
	gpio_set_mode(ROTENC_SW_PIN, INPUT_PULLUP);
    1218:	30200513          	li	a0,770
	TIM2->CHCTLR1 |= TIM_OC2M_2 | TIM_OC2M_1 | TIM_OC2M_0 | TIM_OC2PE;
    121c:	8f55                	or	a4,a4,a3
    121e:	00e79c23          	sh	a4,24(a5)
	TIM2->CHCTLR2 |= TIM_OC3M_2 | TIM_OC3M_1 | TIM_OC3M_0 | TIM_OC3PE;
    1222:	01c7d703          	lhu	a4,28(a5)
    1226:	07876713          	ori	a4,a4,120
    122a:	00e79e23          	sh	a4,28(a5)

	// Enable auto-reload
	TIM2->CTLR1 |= TIM_ARPE;
    122e:	0007d703          	lhu	a4,0(a5)
    1232:	08076713          	ori	a4,a4,128
    1236:	00e79023          	sh	a4,0(a5)

	// Enable channel output, polarity is ACTIVE_HIGH
	TIM2->CCER |= TIM_CC2E | TIM_CC2P;
    123a:	0207d703          	lhu	a4,32(a5)
    123e:	03076713          	ori	a4,a4,48
    1242:	02e79023          	sh	a4,32(a5)
	TIM2->CCER |= TIM_CC3E | TIM_CC3P;
    1246:	0207d703          	lhu	a4,32(a5)
    124a:	30076713          	ori	a4,a4,768
    124e:	02e79023          	sh	a4,32(a5)

	// Initialise Counter
	TIM2->SWEVGR |= TIM_UG;
    1252:	0147d703          	lhu	a4,20(a5)
    1256:	00176713          	ori	a4,a4,1
    125a:	00e79a23          	sh	a4,20(a5)

	// Enable TIM2
	TIM2->CTLR1 |= TIM_CEN;
    125e:	0007d703          	lhu	a4,0(a5)
    1262:	00176713          	ori	a4,a4,1
    1266:	00e79023          	sh	a4,0(a5)


static  void pwm_set_duty(const uint8_t ch, const uint32_t duty)
{
	static volatile uint32_t *tim_ptr[2] = { &TIM2->CH2CVR, &TIM2->CH3CVR };
	*tim_ptr[ch] = duty;
    126a:	0207ac23          	sw	zero,56(a5)
    126e:	0207ae23          	sw	zero,60(a5)
	gpio_set_mode(ROTENC_SW_PIN, INPUT_PULLUP);
    1272:	d3eff0ef          	jal	7b0 <gpio_set_mode>
	gpio_set_mode(ROTENC_A_PIN,  INPUT_PULLUP);
    1276:	45e1                	li	a1,24
    1278:	40200513          	li	a0,1026
    127c:	d34ff0ef          	jal	7b0 <gpio_set_mode>
	gpio_set_mode(ROTENC_B_PIN,  INPUT_PULLUP);
    1280:	45e1                	li	a1,24
    1282:	50200513          	li	a0,1282
    1286:	d2aff0ef          	jal	7b0 <gpio_set_mode>


void gpio_init_adc(const ADC_CLOCK_DIV div, const ADC_SAMPLE_CYCLES cycles)
{
	// Enable the ADC clock
	GPIO_RCC->APB2PCENR |= RCC_APB2Periph_ADC1;
    128a:	4c1c                	lw	a5,24(s0)

	// Set ACD Clock Divider
	GPIO_RCC->CFGR0 &= ~ADC_CLOCK_DIV_128;
    128c:	7741                	lui	a4,0xffff0
    128e:	7ff70713          	addi	a4,a4,2047 # ffff07ff <_eusrstack+0xdffeffff>
	GPIO_RCC->APB2PCENR |= RCC_APB2Periph_ADC1;
    1292:	2007e793          	ori	a5,a5,512
    1296:	cc1c                	sw	a5,24(s0)
	GPIO_RCC->CFGR0 &= ~ADC_CLOCK_DIV_128;
    1298:	405c                	lw	a5,4(s0)
	// Set the Sample Register(s) for all channels at once
	GPIO_ADC1->SAMPTR1 = cycles;
	GPIO_ADC1->SAMPTR2 = cycles;

	// Enable the ADC, and set the triggering to external
	GPIO_ADC1->CTLR2 |= ADC_ADON | ADC_EXTSEL;
    129a:	000e06b7          	lui	a3,0xe0
    129e:	0685                	addi	a3,a3,1 # e0001 <oled.c.a655e948+0xda257>
	GPIO_RCC->CFGR0 &= ~ADC_CLOCK_DIV_128;
    12a0:	8ff9                	and	a5,a5,a4
    12a2:	c05c                	sw	a5,4(s0)
	GPIO_RCC->CFGR0 |= div;
    12a4:	405c                	lw	a5,4(s0)
	GPIO_ADC1->SAMPTR1 = cycles;
    12a6:	24925737          	lui	a4,0x24925
    12aa:	92470713          	addi	a4,a4,-1756 # 24924924 <_eusrstack+0x4924124>
	GPIO_RCC->CFGR0 |= div;
    12ae:	c05c                	sw	a5,4(s0)
	GPIO_RCC->APB2PRSTR |=  RCC_APB2Periph_ADC1;
    12b0:	445c                	lw	a5,12(s0)
    12b2:	2007e793          	ori	a5,a5,512
    12b6:	c45c                	sw	a5,12(s0)
	GPIO_RCC->APB2PRSTR &= ~RCC_APB2Periph_ADC1;
    12b8:	445c                	lw	a5,12(s0)
    12ba:	dff7f793          	andi	a5,a5,-513
    12be:	c45c                	sw	a5,12(s0)
	GPIO_ADC1->RSQR1 = 0;
    12c0:	400127b7          	lui	a5,0x40012
    12c4:	40078793          	addi	a5,a5,1024 # 40012400 <_eusrstack+0x20011c00>
    12c8:	0207a623          	sw	zero,44(a5)
	GPIO_ADC1->RSQR2 = 0;
    12cc:	0207a823          	sw	zero,48(a5)
	GPIO_ADC1->RSQR3 = 0;
    12d0:	0207aa23          	sw	zero,52(a5)
	GPIO_ADC1->SAMPTR1 = cycles;
    12d4:	c7d8                	sw	a4,12(a5)
	GPIO_ADC1->SAMPTR2 = cycles;
    12d6:	cb98                	sw	a4,16(a5)
	GPIO_ADC1->CTLR2 |= ADC_ADON | ADC_EXTSEL;
    12d8:	4798                	lw	a4,8(a5)
    12da:	8f55                	or	a4,a4,a3
    12dc:	c798                	sw	a4,8(a5)
	
	// Reset calibration, wait for it to finish
	GPIO_ADC1->CTLR2 |= ADC_RSTCAL;
    12de:	4798                	lw	a4,8(a5)
    12e0:	00876713          	ori	a4,a4,8
    12e4:	c798                	sw	a4,8(a5)
	while(GPIO_ADC1->CTLR2 & ADC_RSTCAL);
    12e6:	4798                	lw	a4,8(a5)
    12e8:	8b21                	andi	a4,a4,8
    12ea:	ff75                	bnez	a4,12e6 <main+0x220>

	// Calibrate the ADC, want for it to finish
	GPIO_ADC1->CTLR2 |= ADC_CAL;
    12ec:	4798                	lw	a4,8(a5)
	while(GPIO_ADC1->CTLR2 & ADC_CAL);
    12ee:	40012437          	lui	s0,0x40012
    12f2:	40040413          	addi	s0,s0,1024 # 40012400 <_eusrstack+0x20011c00>
	GPIO_ADC1->CTLR2 |= ADC_CAL;
    12f6:	00476713          	ori	a4,a4,4
    12fa:	c798                	sw	a4,8(a5)
	while(GPIO_ADC1->CTLR2 & ADC_CAL);
    12fc:	441c                	lw	a5,8(s0)
    12fe:	8b91                	andi	a5,a5,4
    1300:	fff5                	bnez	a5,12fc <main+0x236>
	gpio_set_mode(OPAMP_CHA1_NEG, INPUT_FLOATING);
    1302:	4591                	li	a1,4
    1304:	10000513          	li	a0,256
    1308:	ca8ff0ef          	jal	7b0 <gpio_set_mode>
	gpio_set_mode(OPAMP_CHA1_POS, INPUT_FLOATING);
    130c:	4591                	li	a1,4
    130e:	20000513          	li	a0,512
    1312:	c9eff0ef          	jal	7b0 <gpio_set_mode>
	gpio_set_mode(OPAMP_CHA2_POS, INPUT_FLOATING);
    1316:	4591                	li	a1,4
    1318:	70300513          	li	a0,1795
    131c:	c94ff0ef          	jal	7b0 <gpio_set_mode>
	gpio_set_mode(THERM_ADC_PIN,  INPUT_ANALOG);
    1320:	4581                	li	a1,0
    1322:	50300513          	li	a0,1283
    1326:	c8aff0ef          	jal	7b0 <gpio_set_mode>
	gpio_set_mode(BSENS_ADC_PIN,  INPUT_ANALOG);
    132a:	4581                	li	a1,0
    132c:	60300513          	li	a0,1539
    1330:	c80ff0ef          	jal	7b0 <gpio_set_mode>
	gpio_set_mode(OPAMP_ADC_PIN,  INPUT_ANALOG);	
    1334:	4581                	li	a1,0
    1336:	40300513          	li	a0,1027
    133a:	c76ff0ef          	jal	7b0 <gpio_set_mode>
	GPIO_EXTEN->EXTEN_CTR |= GPIO_EXTEN_OPA_EN;
    133e:	400247b7          	lui	a5,0x40024
    1342:	80078793          	addi	a5,a5,-2048 # 40023800 <_eusrstack+0x20023000>
    1346:	4398                	lw	a4,0(a5)
    1348:	66c1                	lui	a3,0x10
	gpio_set_opamp_inputs(GPIO_OPAMP_CH1_POS, GPIO_OPAMP_CH1_NEG);
    134a:	4501                	li	a0,0
    134c:	8f55                	or	a4,a4,a3
    134e:	c398                	sw	a4,0(a5)
    1350:	dbaff0ef          	jal	90a <gpio_set_opamp_inputs.constprop.0>

/*** Function Definitions ****************************************************/
void opamp_calibrate(void)
{
	// Measure the offset of the OpAmp at 0 Input (While PWM Off)
	Delay_Ms(500);
    1354:	016e3537          	lui	a0,0x16e3
    1358:	60050513          	addi	a0,a0,1536 # 16e3600 <oled.c.a655e948+0x16dd856>
    135c:	b82ff0ef          	jal	6de <DelaySysTick>
inline uint16_t gpio_analog_read(const GPIO_ANALOG_CHANNEL chan)
{
	// Set rule channel conversion for single conversion on passed channel
	// GPIO_ADC1->RSQR1 = 0;
	// GPIO_ADC1->RSQR2 = 0;
	GPIO_ADC1->RSQR3 = (uint32_t)chan;
    1360:	479d                	li	a5,7
    1362:	d85c                	sw	a5,52(s0)

	GPIO_ADC1->CTLR2 |= ADC_SWSTART;
    1364:	441c                	lw	a5,8(s0)
    1366:	00400737          	lui	a4,0x400
    136a:	8fd9                	or	a5,a5,a4
    136c:	c41c                	sw	a5,8(s0)
	while(!(GPIO_ADC1->STATR & ADC_EOC));
    136e:	40012437          	lui	s0,0x40012
    1372:	40040413          	addi	s0,s0,1024 # 40012400 <_eusrstack+0x20011c00>
    1376:	401c                	lw	a5,0(s0)
    1378:	8b89                	andi	a5,a5,2
    137a:	dff5                	beqz	a5,1376 <main+0x2b0>

	// Get the resulting data from the ADC
	return GPIO_ADC1->RDATAR;
    137c:	4464                	lw	s1,76(s0)
	// VCC/32 - The OpAmp Gain of 16 makes this effectively VCC/2
	// Compare the value output to the expected output (1023/2) to get an
	// offset
	
	// Switch to CH2 Positive Input and wait for it to stabilise
	gpio_set_opamp_inputs(GPIO_OPAMP_CH2_POS, GPIO_OPAMP_CH1_NEG);
    137e:	4505                	li	a0,1
	_opamp_calibration_offset = gpio_analog_read(OPAMP_ADC_CH);
    1380:	04c2                	slli	s1,s1,0x10
    1382:	84c1                	srai	s1,s1,0x10
    1384:	c4919523          	sh	s1,-950(gp) # 20000046 <_opamp_calibration_offset>
	gpio_set_opamp_inputs(GPIO_OPAMP_CH2_POS, GPIO_OPAMP_CH1_NEG);
    1388:	d82ff0ef          	jal	90a <gpio_set_opamp_inputs.constprop.0>
	Delay_Ms(500);
    138c:	016e3537          	lui	a0,0x16e3
    1390:	60050513          	addi	a0,a0,1536 # 16e3600 <oled.c.a655e948+0x16dd856>
    1394:	b4aff0ef          	jal	6de <DelaySysTick>
	GPIO_ADC1->RSQR3 = (uint32_t)chan;
    1398:	479d                	li	a5,7
    139a:	d85c                	sw	a5,52(s0)
	GPIO_ADC1->CTLR2 |= ADC_SWSTART;
    139c:	441c                	lw	a5,8(s0)
    139e:	00400737          	lui	a4,0x400
    13a2:	8fd9                	or	a5,a5,a4
    13a4:	c41c                	sw	a5,8(s0)
	while(!(GPIO_ADC1->STATR & ADC_EOC));
    13a6:	400127b7          	lui	a5,0x40012
    13aa:	40078793          	addi	a5,a5,1024 # 40012400 <_eusrstack+0x20011c00>
    13ae:	4398                	lw	a4,0(a5)
    13b0:	8b09                	andi	a4,a4,2
    13b2:	df75                	beqz	a4,13ae <main+0x2e8>
	return GPIO_ADC1->RDATAR;
    13b4:	47fc                	lw	a5,76(a5)

	// Calculate the delta between the expected value and the read value
	int32_t delta = gpio_analog_read(OPAMP_ADC_CH) - _opamp_calibration_offset;
    13b6:	07c2                	slli	a5,a5,0x10
    13b8:	83c1                	srli	a5,a5,0x10
    13ba:	409785b3          	sub	a1,a5,s1
	if(delta == 0) delta = 1;
    13be:	00979363          	bne	a5,s1,13c4 <main+0x2fe>
    13c2:	4585                	li	a1,1
	
	_opamp_calibration_gain = ((int32_t)OPAMP_CAL_EXPECTED << 10) / delta;
    13c4:	00080537          	lui	a0,0x80
    13c8:	974ff0ef          	jal	53c <__divsi3>
    13cc:	01051613          	slli	a2,a0,0x10

	printf("offset: %d\tgain: %d\n", _opamp_calibration_offset, _opamp_calibration_gain);
    13d0:	6509                	lui	a0,0x2
	_opamp_calibration_gain = ((int32_t)OPAMP_CAL_EXPECTED << 10) / delta;
    13d2:	8641                	srai	a2,a2,0x10
	printf("offset: %d\tgain: %d\n", _opamp_calibration_offset, _opamp_calibration_gain);
    13d4:	85a6                	mv	a1,s1
    13d6:	dac50513          	addi	a0,a0,-596 # 1dac <__clz_tab+0x118>
	_opamp_calibration_gain = ((int32_t)OPAMP_CAL_EXPECTED << 10) / delta;
    13da:	c4c19423          	sh	a2,-952(gp) # 20000044 <_opamp_calibration_gain>
	printf("offset: %d\tgain: %d\n", _opamp_calibration_offset, _opamp_calibration_gain);
    13de:	3659                	jal	f64 <printf>

	// Switch back to CH1 Positive and wait for it to settle
	gpio_set_opamp_inputs(GPIO_OPAMP_CH1_POS, GPIO_OPAMP_CH1_NEG);
    13e0:	4501                	li	a0,0
    13e2:	d28ff0ef          	jal	90a <gpio_set_opamp_inputs.constprop.0>
	Delay_Ms(500);
    13e6:	016e3537          	lui	a0,0x16e3
    13ea:	60050513          	addi	a0,a0,1536 # 16e3600 <oled.c.a655e948+0x16dd856>
    13ee:	af0ff0ef          	jal	6de <DelaySysTick>
	RCC->APB2PCENR |= RCC_APB2Periph_AFIO;
    13f2:	40021737          	lui	a4,0x40021
    13f6:	4f1c                	lw	a5,24(a4)
	NVIC->IENR[((uint32_t)(IRQn) >> 5)] = (1 << ((uint32_t)(IRQn) & 0x1F));
    13f8:	e000e6b7          	lui	a3,0xe000e
    13fc:	0017e793          	ori	a5,a5,1
    1400:	cf1c                	sw	a5,24(a4)
	AFIO->EXTICR    = AFIO_EXTICR_EXTI4_PC | AFIO_EXTICR_EXTI5_PC;
    1402:	6785                	lui	a5,0x1
    1404:	40010737          	lui	a4,0x40010
    1408:	a0078793          	addi	a5,a5,-1536 # a00 <_write.constprop.0+0xc8>
    140c:	c71c                	sw	a5,8(a4)
	EXTI->INTENR    = EXTI_INTENR_MR4 | EXTI_INTENR_MR5;
    140e:	40070793          	addi	a5,a4,1024 # 40010400 <_eusrstack+0x2000fc00>
    1412:	03000713          	li	a4,48
    1416:	c398                	sw	a4,0(a5)
	EXTI->RTENR     = EXTI_RTENR_TR4  | EXTI_RTENR_TR5;
    1418:	c798                	sw	a4,8(a5)
	EXTI->FTENR     = EXTI_FTENR_TR4  | EXTI_FTENR_TR5;
    141a:	c7d8                	sw	a4,12(a5)
	EXTI->INTFR = 0x00000030;
    141c:	cbd8                	sw	a4,20(a5)
    141e:	001007b7          	lui	a5,0x100
    1422:	10f6a023          	sw	a5,256(a3) # e000e100 <_eusrstack+0xc000d900>
	SysTick->CMP = SYSTICK_ONE_MILLISECOND - 1;
    1426:	6731                	lui	a4,0xc
	SysTick->CTLR = 0x0000;
    1428:	e000f7b7          	lui	a5,0xe000f
    142c:	0007a023          	sw	zero,0(a5) # e000f000 <_eusrstack+0xc000e800>
	SysTick->CMP = SYSTICK_ONE_MILLISECOND - 1;
    1430:	b7f70713          	addi	a4,a4,-1153 # bb7f <oled.c.a655e948+0x5dd5>
    1434:	cb98                	sw	a4,16(a5)
	SysTick->CNT = 0x00000000;
    1436:	0007a423          	sw	zero,8(a5)
	g_systick_millis = 0x00000000;
    143a:	c601a423          	sw	zero,-920(gp) # 20000064 <g_systick_millis>
	SysTick->CTLR |= SYSTICK_CTLR_STE   |  // Enable Counter
    143e:	4398                	lw	a4,0(a5)
    1440:	00776713          	ori	a4,a4,7
    1444:	c398                	sw	a4,0(a5)
    1446:	6785                	lui	a5,0x1
	IWDG->CTLR = 0x5555;
    1448:	6715                	lui	a4,0x5
    144a:	10f6a023          	sw	a5,256(a3)
    144e:	55570713          	addi	a4,a4,1365 # 5555 <lib_i2c.c.771b9666+0x25c>
    1452:	400037b7          	lui	a5,0x40003
    1456:	c398                	sw	a4,0(a5)
    IWDG->PSCR = prescaler;
    1458:	4691                	li	a3,4
    145a:	c3d4                	sw	a3,4(a5)
	IWDG->CTLR = 0x5555;
    145c:	c398                	sw	a4,0(a5)
    IWDG->RLDR = rst_val & 0x0FFF;
    145e:	09b00713          	li	a4,155
    1462:	c798                	sw	a4,8(a5)
	IWDG->CTLR = 0xCCCC;
    1464:	6735                	lui	a4,0xd
    1466:	ccc70713          	addi	a4,a4,-820 # cccc <oled.c.a655e948+0x6f22>
    146a:	c398                	sw	a4,0(a5)
	g_system_state    = SYSTEM_STATE_HEATER_DISABLED;
    146c:	4785                	li	a5,1
    146e:	c6f1a623          	sw	a5,-916(gp) # 20000068 <g_system_state>
	g_user_input_mode = UI_MODE_CHANGE_TEMP;
    1472:	c2f1aa23          	sw	a5,-972(gp) # 20000030 <g_user_input_mode>
	uint32_t millis_prev_display_update    = 0;
    1476:	c202                	sw	zero,4(sp)
	uint32_t millis_prev_battery_check     = 0;
    1478:	ca02                	sw	zero,20(sp)
	uint32_t millis_prev_pid_temp_update   = 0;
    147a:	c802                	sw	zero,16(sp)
	uint32_t millis_prev_user_input_update = 0;
    147c:	c602                	sw	zero,12(sp)
	uint32_t millis_prev_led_update        = 0;
    147e:	c402                	sw	zero,8(sp)
	pid_ctrl_t heater_pid =
    1480:	cc02                	sw	zero,24(sp)
    1482:	c002                	sw	zero,0(sp)
		if(g_systick_millis - millis_prev_led_update > MILLIS_LED_UPDATE)
    1484:	4722                	lw	a4,8(sp)
    1486:	c681a783          	lw	a5,-920(gp) # 20000064 <g_systick_millis>
    148a:	8f99                	sub	a5,a5,a4
    148c:	4765                	li	a4,25
    148e:	02f77863          	bgeu	a4,a5,14be <main+0x3f8>
			switch(g_system_state)
    1492:	c6c1a783          	lw	a5,-916(gp) # 20000068 <g_system_state>
    1496:	4689                	li	a3,2
    1498:	3ed78163          	beq	a5,a3,187a <main+0x7b4>
    149c:	468d                	li	a3,3
    149e:	00d78863          	beq	a5,a3,14ae <main+0x3e8>
    14a2:	4685                	li	a3,1
    14a4:	40d79b63          	bne	a5,a3,18ba <main+0x7f4>
					led_val = LED_MINIMUM_PWM;
    14a8:	47f9                	li	a5,30
    14aa:	c6f19223          	sh	a5,-924(gp) # 20000060 <led_val.8>
			pwm_set_duty(PWM_CHANNEL_LED, (uint8_t)led_val);
    14ae:	c641c703          	lbu	a4,-924(gp) # 20000060 <led_val.8>
	*tim_ptr[ch] = duty;
    14b2:	400007b7          	lui	a5,0x40000
    14b6:	df98                	sw	a4,56(a5)
			millis_prev_led_update = g_systick_millis;
    14b8:	c681a783          	lw	a5,-920(gp) # 20000064 <g_systick_millis>
    14bc:	c43e                	sw	a5,8(sp)
		if(g_systick_millis - millis_prev_user_input_update > MILLIS_USER_INPUT_UPDATE)
    14be:	4732                	lw	a4,12(sp)
    14c0:	c681a783          	lw	a5,-920(gp) # 20000064 <g_systick_millis>
    14c4:	8f99                	sub	a5,a5,a4
    14c6:	03200713          	li	a4,50
    14ca:	08f77263          	bgeu	a4,a5,154e <main+0x488>
	if( (GPIO_PORT_MAP[ byte[0] ]->INDR & (0x01 << byte[1])) != 0x00 ) 
    14ce:	400117b7          	lui	a5,0x40011
    14d2:	479c                	lw	a5,8(a5)
			bool button_pressed = (p_button_state && !c_button_state);
    14d4:	c2c1a683          	lw	a3,-980(gp) # 20000028 <p_button_state.6>
    14d8:	8ba1                	andi	a5,a5,8
    14da:	838d                	srli	a5,a5,0x3
    14dc:	4601                	li	a2,0
    14de:	c299                	beqz	a3,14e4 <main+0x41e>
    14e0:	0017c613          	xori	a2,a5,1
			p_button_state = c_button_state;
    14e4:	c2f1a623          	sw	a5,-980(gp) # 20000028 <p_button_state.6>
			if(g_system_state != SYSTEM_STATE_ERROR_LOCKOUT)
    14e8:	c6c1a683          	lw	a3,-916(gp) # 20000068 <g_system_state>
    14ec:	478d                	li	a5,3
    14ee:	04f68b63          	beq	a3,a5,1544 <main+0x47e>
				switch(g_user_input_mode)
    14f2:	c341a703          	lw	a4,-972(gp) # 20000030 <g_user_input_mode>
    14f6:	4785                	li	a5,1
    14f8:	04f71663          	bne	a4,a5,1544 <main+0x47e>
						g_target_temperature += g_rotary_encoder_clicks * SETTING_TEMPERATURE_INCRIMENT;
    14fc:	c621d703          	lhu	a4,-926(gp) # 2000005e <g_rotary_encoder_clicks>
						g_target_temperature = CLAMP(g_target_temperature, SETTING_TEMPERATURE_MINIMUM, SETTING_TEMPERATURE_MAXIMUM);
    1500:	0dc00513          	li	a0,220
						g_target_temperature += g_rotary_encoder_clicks * SETTING_TEMPERATURE_INCRIMENT;
    1504:	0742                	slli	a4,a4,0x10
    1506:	8741                	srai	a4,a4,0x10
    1508:	00271793          	slli	a5,a4,0x2
    150c:	97ba                	add	a5,a5,a4
    150e:	c281d703          	lhu	a4,-984(gp) # 20000024 <g_target_temperature>
    1512:	97ba                	add	a5,a5,a4
						g_target_temperature = CLAMP(g_target_temperature, SETTING_TEMPERATURE_MINIMUM, SETTING_TEMPERATURE_MAXIMUM);
    1514:	873e                	mv	a4,a5
    1516:	07c2                	slli	a5,a5,0x10
    1518:	87c1                	srai	a5,a5,0x10
    151a:	00f55363          	bge	a0,a5,1520 <main+0x45a>
    151e:	872a                	mv	a4,a0
    1520:	87ba                	mv	a5,a4
    1522:	01079513          	slli	a0,a5,0x10
    1526:	8541                	srai	a0,a0,0x10
    1528:	03200713          	li	a4,50
    152c:	00e55363          	bge	a0,a4,1532 <main+0x46c>
    1530:	87ba                	mv	a5,a4
    1532:	c2f19423          	sh	a5,-984(gp) # 20000024 <g_target_temperature>
						if(button_pressed)
    1536:	c619                	beqz	a2,1544 <main+0x47e>
							if(g_system_state == SYSTEM_STATE_HEATER_DISABLED)
    1538:	4785                	li	a5,1
    153a:	4709                	li	a4,2
    153c:	38f69263          	bne	a3,a5,18c0 <main+0x7fa>
								g_system_state = SYSTEM_STATE_HEATER_ENABLED;
    1540:	c6e1a623          	sw	a4,-916(gp) # 20000068 <g_system_state>
			g_rotary_encoder_clicks = 0;
    1544:	c6019123          	sh	zero,-926(gp) # 2000005e <g_rotary_encoder_clicks>
			millis_prev_user_input_update = g_systick_millis;
    1548:	c681a783          	lw	a5,-920(gp) # 20000064 <g_systick_millis>
    154c:	c63e                	sw	a5,12(sp)
		if(g_systick_millis - millis_prev_pid_temp_update > MILLIS_PID_TEMP_UPDATE)
    154e:	4742                	lw	a4,16(sp)
    1550:	c681a783          	lw	a5,-920(gp) # 20000064 <g_systick_millis>
    1554:	8f99                	sub	a5,a5,a4
    1556:	06400713          	li	a4,100
    155a:	12f77d63          	bgeu	a4,a5,1694 <main+0x5ce>
	GPIO_ADC1->RSQR3 = (uint32_t)chan;
    155e:	400127b7          	lui	a5,0x40012
    1562:	40078793          	addi	a5,a5,1024 # 40012400 <_eusrstack+0x20011c00>
    1566:	4715                	li	a4,5
    1568:	dbd8                	sw	a4,52(a5)
	GPIO_ADC1->CTLR2 |= ADC_SWSTART;
    156a:	4798                	lw	a4,8(a5)
    156c:	004006b7          	lui	a3,0x400
    1570:	8f55                	or	a4,a4,a3
    1572:	c798                	sw	a4,8(a5)
	while(!(GPIO_ADC1->STATR & ADC_EOC));
    1574:	4398                	lw	a4,0(a5)
    1576:	8b09                	andi	a4,a4,2
    1578:	df75                	beqz	a4,1574 <main+0x4ae>
	return GPIO_ADC1->RDATAR;
    157a:	47ec                	lw	a1,76(a5)
{
	uint16_t adc0 = 0, adc1 = 0, temp0 = 0, temp1 = 0, output = 0;
	const uint16_t therm_max_index = THERMISTOR_PAIR_ENTRIES - 1;
	
	// Cap the Upper and Lower Bounds
	if(adc >= thermistor_pair[0].adc)
    157c:	3f000793          	li	a5,1008
		return thermistor_pair[0].temp_c;
    1580:	4501                	li	a0,0
    1582:	05c2                	slli	a1,a1,0x10
    1584:	81c1                	srli	a1,a1,0x10
	if(adc >= thermistor_pair[0].adc)
    1586:	06b7e063          	bltu	a5,a1,15e6 <main+0x520>
	
	if(adc <= thermistor_pair[therm_max_index].adc)
    158a:	02500793          	li	a5,37
		return thermistor_pair[therm_max_index].temp_c;
    158e:	12c00513          	li	a0,300
	if(adc <= thermistor_pair[therm_max_index].adc)
    1592:	04b7fa63          	bgeu	a5,a1,15e6 <main+0x520>
    1596:	6689                	lui	a3,0x2
    1598:	b3868613          	addi	a2,a3,-1224 # 1b38 <thermistor_pair>
    159c:	4781                	li	a5,0
    159e:	b3868693          	addi	a3,a3,-1224


	// Find the LUT ADC Range
	for(uint16_t ti = 0; ti < therm_max_index; ti++)
    15a2:	04b00513          	li	a0,75
	{
		// Get the Current and Next ADC Values in the pair table.
		adc0  = thermistor_pair[ti].adc;
    15a6:	00265483          	lhu	s1,2(a2)
		adc1  = thermistor_pair[ti + 1].adc;

		// ADC Values Decrease as temperature rises. Check if adc input is within
		// the current check range
		if(adc <= adc0 && adc >= adc1)
    15aa:	32b4e063          	bltu	s1,a1,18ca <main+0x804>
		adc1  = thermistor_pair[ti + 1].adc;
    15ae:	00665703          	lhu	a4,6(a2)
		if(adc <= adc0 && adc >= adc1)
    15b2:	30e5ec63          	bltu	a1,a4,18ca <main+0x804>
		{
			// Get Current and Next Temp values in the pair table
			temp0 = thermistor_pair[ti].temp_c;
    15b6:	00279613          	slli	a2,a5,0x2
			temp1 = thermistor_pair[ti + 1].temp_c;
    15ba:	0785                	addi	a5,a5,1
    15bc:	078a                	slli	a5,a5,0x2
			temp0 = thermistor_pair[ti].temp_c;
    15be:	9636                	add	a2,a2,a3
			temp1 = thermistor_pair[ti + 1].temp_c;
    15c0:	97b6                	add	a5,a5,a3
			temp0 = thermistor_pair[ti].temp_c;
    15c2:	00065403          	lhu	s0,0(a2)
			// delta_adc   =   adc0 - adc
			// span_adc    =   adc0 - adc1
			// delta_temp  =   temp1 - temp0
			//
			// x = temp0 + (delta_adc * delta_temp) / span_adc
			output = temp0 + (uint32_t)(adc0 - adc) * (temp1 - temp0) / (adc0 - adc1);
    15c6:	0007d503          	lhu	a0,0(a5)
    15ca:	40b485b3          	sub	a1,s1,a1
    15ce:	c83a                	sw	a4,16(sp)
    15d0:	8d01                	sub	a0,a0,s0
    15d2:	f53fe0ef          	jal	524 <__mulsi3>
    15d6:	4742                	lw	a4,16(sp)
    15d8:	40e485b3          	sub	a1,s1,a4
    15dc:	f69fe0ef          	jal	544 <__hidden___udivsi3>
    15e0:	9522                	add	a0,a0,s0
    15e2:	0542                	slli	a0,a0,0x10
    15e4:	8141                	srli	a0,a0,0x10
			g_actual_temperature = thermistor_adc_to_temp(thermistor_adc);
    15e6:	0542                	slli	a0,a0,0x10
    15e8:	8541                	srai	a0,a0,0x10
    15ea:	c6a19023          	sh	a0,-928(gp) # 2000005c <g_actual_temperature>
			heater_pwm = pid_calculate(&heater_pid, g_actual_temperature, g_target_temperature);
    15ee:	c2819403          	lh	s0,-984(gp) # 20000024 <g_target_temperature>
	// Calculate the current Error and Derivative
	int32_t error = sp - pv;
	int32_t derivative = error - pid->_prev_error;

	// Prevent Integral Windup by clamping
	pid->_integral = CLAMP_MIN_MAX(pid->_integral, -pid->_iclamp, pid->_iclamp);
    15f2:	4702                	lw	a4,0(sp)
    15f4:	6785                	lui	a5,0x1
    15f6:	3ec78793          	addi	a5,a5,1004 # 13ec <main+0x326>
	int32_t error = sp - pv;
    15fa:	8c09                	sub	s0,s0,a0
	pid->_integral = CLAMP_MIN_MAX(pid->_integral, -pid->_iclamp, pid->_iclamp);
    15fc:	00e7d363          	bge	a5,a4,1602 <main+0x53c>
    1600:	c03e                	sw	a5,0(sp)
    1602:	4702                	lw	a4,0(sp)
    1604:	77fd                	lui	a5,0xfffff
    1606:	c1478793          	addi	a5,a5,-1004 # ffffec14 <_eusrstack+0xdfffe414>
    160a:	00f75363          	bge	a4,a5,1610 <main+0x54a>
    160e:	c03e                	sw	a5,0(sp)
	//if(pid->_integral >  pid->_iclamp)   pid->_integral =  pid->_iclamp;
	//if(pid->_integral < -pid->_iclamp)   pid->_integral = -pid->_iclamp;


	int64_t P = (int32_t)pid->Kp * error;
	int64_t I = (int32_t)pid->Ki * pid->_integral;
    1610:	4702                	lw	a4,0(sp)
	int64_t P = (int32_t)pid->Kp * error;
    1612:	00541793          	slli	a5,s0,0x5
	int64_t I = (int32_t)pid->Ki * pid->_integral;
    1616:	4602                	lw	a2,0(sp)
	int64_t P = (int32_t)pid->Kp * error;
    1618:	8f81                	sub	a5,a5,s0
    161a:	078a                	slli	a5,a5,0x2
    161c:	97a2                	add	a5,a5,s0
	int64_t I = (int32_t)pid->Ki * pid->_integral;
    161e:	070a                	slli	a4,a4,0x2
	int64_t P = (int32_t)pid->Kp * error;
    1620:	00379693          	slli	a3,a5,0x3
	int64_t I = (int32_t)pid->Ki * pid->_integral;
    1624:	9732                	add	a4,a4,a2
    1626:	41f75613          	srai	a2,a4,0x1f
	int64_t P = (int32_t)pid->Kp * error;
    162a:	87fd                	srai	a5,a5,0x1f
	int64_t D = (int32_t)pid->Kd * derivative;
	// Add the PID values, then scale to preserve resolution of intagers
	int32_t cv = (int64_t)(P + I + D) / pid->scale;
    162c:	9736                	add	a4,a4,a3
    162e:	00d736b3          	sltu	a3,a4,a3
    1632:	97b2                	add	a5,a5,a2
    1634:	97b6                	add	a5,a5,a3
	int32_t derivative = error - pid->_prev_error;
    1636:	46e2                	lw	a3,24(sp)
	int32_t cv = (int64_t)(P + I + D) / pid->scale;
    1638:	06400613          	li	a2,100
	int32_t derivative = error - pid->_prev_error;
    163c:	40d406b3          	sub	a3,s0,a3
	int64_t D = (int32_t)pid->Kd * derivative;
    1640:	00269513          	slli	a0,a3,0x2
    1644:	9536                	add	a0,a0,a3
    1646:	41f55693          	srai	a3,a0,0x1f
	int32_t cv = (int64_t)(P + I + D) / pid->scale;
    164a:	953a                	add	a0,a0,a4
    164c:	97b6                	add	a5,a5,a3
    164e:	00e535b3          	sltu	a1,a0,a4
    1652:	95be                	add	a1,a1,a5
    1654:	4681                	li	a3,0
    1656:	a4bfe0ef          	jal	a0 <__divdi3>

	// Only accumulate the integration value if the output is not in saturation
	if(cv <= pid->out_max && cv >= pid->out_min)    pid->_integral += error;
    165a:	0ff00793          	li	a5,255
    165e:	00a7e563          	bltu	a5,a0,1668 <main+0x5a2>
    1662:	4702                	lw	a4,0(sp)
    1664:	9722                	add	a4,a4,s0
    1666:	c03a                	sw	a4,0(sp)
	
	// Clamp the CV Output to the min/max
	cv = CLAMP_MIN_MAX(cv, pid->out_min, pid->out_max);
    1668:	26a7d763          	bge	a5,a0,18d6 <main+0x810>
    166c:	0ff00513          	li	a0,255
			if(g_system_state == SYSTEM_STATE_HEATER_DISABLED || g_system_state == SYSTEM_STATE_ERROR_LOCKOUT) 
    1670:	c6c1a783          	lw	a5,-916(gp) # 20000068 <g_system_state>
			heater_pwm = pid_calculate(&heater_pid, g_actual_temperature, g_target_temperature);
    1674:	c4a1ae23          	sw	a0,-932(gp) # 20000058 <heater_pwm.4>
			if(g_system_state == SYSTEM_STATE_HEATER_DISABLED || g_system_state == SYSTEM_STATE_ERROR_LOCKOUT) 
    1678:	9bf5                	andi	a5,a5,-3
    167a:	4685                	li	a3,1
    167c:	00d79563          	bne	a5,a3,1686 <main+0x5c0>
				heater_pwm = 0x00;
    1680:	c401ae23          	sw	zero,-932(gp) # 20000058 <heater_pwm.4>
    1684:	4501                	li	a0,0
	*tim_ptr[ch] = duty;
    1686:	400007b7          	lui	a5,0x40000
    168a:	dfc8                	sw	a0,60(a5)
			millis_prev_pid_temp_update = g_systick_millis;
    168c:	c681a783          	lw	a5,-920(gp) # 20000064 <g_systick_millis>

	// Update the previous error for derivative
	pid->_prev_error = error;
    1690:	cc22                	sw	s0,24(sp)
    1692:	c83e                	sw	a5,16(sp)
		if(g_systick_millis - millis_prev_battery_check > MILLIS_BATTERY_CHECK)
    1694:	4752                	lw	a4,20(sp)
    1696:	c681a783          	lw	a5,-920(gp) # 20000064 <g_systick_millis>
    169a:	8f99                	sub	a5,a5,a4
    169c:	0fa00713          	li	a4,250
    16a0:	18f77463          	bgeu	a4,a5,1828 <main+0x762>
	GPIO_ADC1->RSQR3 = (uint32_t)chan;
    16a4:	400124b7          	lui	s1,0x40012
    16a8:	40048493          	addi	s1,s1,1024 # 40012400 <_eusrstack+0x20011c00>
    16ac:	47a1                	li	a5,8
    16ae:	d8dc                	sw	a5,52(s1)
	GPIO_ADC1->CTLR2 |= ADC_SWSTART;
    16b0:	449c                	lw	a5,8(s1)
    16b2:	00400737          	lui	a4,0x400
    16b6:	8fd9                	or	a5,a5,a4
    16b8:	c49c                	sw	a5,8(s1)
	while(!(GPIO_ADC1->STATR & ADC_EOC));
    16ba:	409c                	lw	a5,0(s1)
    16bc:	8b89                	andi	a5,a5,2
    16be:	dff5                	beqz	a5,16ba <main+0x5f4>
	return GPIO_ADC1->RDATAR;
    16c0:	44ec                	lw	a1,76(s1)
uint16_t gpio_read_system_mv(void)
{
	// Get the raw ADC Value for the VREF - shift by 10 (*1024),
	// then divide it by the ADC maximum.
	// This is the VREF Multiplier
	uint32_t vref_multiplier = ((uint32_t)GPIO_ADC_MAXIMUM << 10) / gpio_analog_read(GPIO_ADC_VREF);
    16c2:	00100537          	lui	a0,0x100
    16c6:	c0050513          	addi	a0,a0,-1024 # ffc00 <oled.c.a655e948+0xf9e56>
    16ca:	05c2                	slli	a1,a1,0x10
    16cc:	81c1                	srli	a1,a1,0x10
    16ce:	e77fe0ef          	jal	544 <__hidden___udivsi3>

	// The mV value is equal to the ADC_VREF Millivolts, multiplied by the VREF
	// Multiplier, then shifted by 10 (/1024) to scale back down to mV
	return (GPIO_ADC_REF_MV * vref_multiplier) >> 10;
    16d2:	00251793          	slli	a5,a0,0x2
    16d6:	953e                	add	a0,a0,a5
	GPIO_ADC1->RSQR3 = (uint32_t)chan;
    16d8:	4799                	li	a5,6
    16da:	d8dc                	sw	a5,52(s1)
	GPIO_ADC1->CTLR2 |= ADC_SWSTART;
    16dc:	449c                	lw	a5,8(s1)
	return (GPIO_ADC_REF_MV * vref_multiplier) >> 10;
    16de:	00451413          	slli	s0,a0,0x4
	GPIO_ADC1->CTLR2 |= ADC_SWSTART;
    16e2:	00400737          	lui	a4,0x400
    16e6:	8fd9                	or	a5,a5,a4
	return (GPIO_ADC_REF_MV * vref_multiplier) >> 10;
    16e8:	8c09                	sub	s0,s0,a0
    16ea:	0412                	slli	s0,s0,0x4
	GPIO_ADC1->CTLR2 |= ADC_SWSTART;
    16ec:	c49c                	sw	a5,8(s1)
	while(!(GPIO_ADC1->STATR & ADC_EOC));
    16ee:	400127b7          	lui	a5,0x40012
	return (GPIO_ADC_REF_MV * vref_multiplier) >> 10;
    16f2:	8029                	srli	s0,s0,0xa
	while(!(GPIO_ADC1->STATR & ADC_EOC));
    16f4:	40078793          	addi	a5,a5,1024 # 40012400 <_eusrstack+0x20011c00>
    16f8:	4398                	lw	a4,0(a5)
    16fa:	8b09                	andi	a4,a4,2
    16fc:	df75                	beqz	a4,16f8 <main+0x632>
	return GPIO_ADC1->RDATAR;
    16fe:	47e4                	lw	s1,76(a5)
	// The Voltage Divider is 33K || 8K2, to get the inverse of the divider ratio:
	//  R2      /     (R1    +    R2)
	// 8K2      /     (33K   +   8K2)
	// (Invert)
	// 41K2     /      8K2         = 5.024
	uint32_t scaled_mv = ((uint32_t)system_mv * 5024) / 1000;
    1700:	01041793          	slli	a5,s0,0x10
    1704:	83c1                	srli	a5,a5,0x10
    1706:	6585                	lui	a1,0x1
    1708:	853e                	mv	a0,a5
    170a:	3a058593          	addi	a1,a1,928 # 13a0 <main+0x2da>
    170e:	ca3e                	sw	a5,20(sp)
    1710:	e15fe0ef          	jal	524 <__mulsi3>
    1714:	3e800593          	li	a1,1000
    1718:	e2dfe0ef          	jal	544 <__hidden___udivsi3>
	return ((uint32_t)battery_adc * scaled_mv) / ADC_MAXIMUM;
    171c:	01049593          	slli	a1,s1,0x10
    1720:	81c1                	srli	a1,a1,0x10
    1722:	e03fe0ef          	jal	524 <__mulsi3>
    1726:	3ff00593          	li	a1,1023
    172a:	e1bfe0ef          	jal	544 <__hidden___udivsi3>
    172e:	01051493          	slli	s1,a0,0x10
    1732:	80c1                	srli	s1,s1,0x10
			g_battery_voltage_mv = battery_read_mv(system_mv);
    1734:	c4919d23          	sh	s1,-934(gp) # 20000056 <g_battery_voltage_mv>
	rolling_sum -= _average_current_buffer[average_index];
    1738:	c4c1c403          	lbu	s0,-948(gp) # 20000048 <average_index.0>
    173c:	c7018693          	addi	a3,gp,-912 # 2000006c <_average_current_buffer>
    1740:	00141593          	slli	a1,s0,0x1
    1744:	96ae                	add	a3,a3,a1
    1746:	0006d683          	lhu	a3,0(a3)
    174a:	c501a583          	lw	a1,-944(gp) # 2000004c <rolling_sum.1>
    174e:	40d587b3          	sub	a5,a1,a3
    1752:	ce3e                	sw	a5,28(sp)
	GPIO_ADC1->RSQR3 = (uint32_t)chan;
    1754:	400127b7          	lui	a5,0x40012
    1758:	40078793          	addi	a5,a5,1024 # 40012400 <_eusrstack+0x20011c00>
    175c:	469d                	li	a3,7
    175e:	dbd4                	sw	a3,52(a5)
	GPIO_ADC1->CTLR2 |= ADC_SWSTART;
    1760:	4794                	lw	a3,8(a5)
    1762:	004005b7          	lui	a1,0x400
    1766:	8ecd                	or	a3,a3,a1
    1768:	c794                	sw	a3,8(a5)
	while(!(GPIO_ADC1->STATR & ADC_EOC));
    176a:	c7018793          	addi	a5,gp,-912 # 2000006c <_average_current_buffer>
    176e:	d03e                	sw	a5,32(sp)
    1770:	400127b7          	lui	a5,0x40012
    1774:	40078793          	addi	a5,a5,1024 # 40012400 <_eusrstack+0x20011c00>
    1778:	4394                	lw	a3,0(a5)
    177a:	8a89                	andi	a3,a3,2
    177c:	def5                	beqz	a3,1778 <main+0x6b2>
	return GPIO_ADC1->RDATAR;
    177e:	47fc                	lw	a5,76(a5)
		((gpio_analog_read(OPAMP_ADC_CH) - _opamp_calibration_offset) 
    1780:	c4a19503          	lh	a0,-950(gp) # 20000046 <_opamp_calibration_offset>
		* _opamp_calibration_gain) >> 10;
    1784:	c4819583          	lh	a1,-952(gp) # 20000044 <_opamp_calibration_gain>
		((gpio_analog_read(OPAMP_ADC_CH) - _opamp_calibration_offset) 
    1788:	07c2                	slli	a5,a5,0x10
    178a:	83c1                	srli	a5,a5,0x10
		* _opamp_calibration_gain) >> 10;
    178c:	40a78533          	sub	a0,a5,a0
    1790:	d95fe0ef          	jal	524 <__mulsi3>
    1794:	40a55793          	srai	a5,a0,0xa
	int16_t opamp_calibrated_adc = 
    1798:	853e                	mv	a0,a5
	if(opamp_calibrated_adc > 1023)  opamp_calibrated_adc = 1023;
    179a:	07c2                	slli	a5,a5,0x10
    179c:	87c1                	srai	a5,a5,0x10
    179e:	3ff00693          	li	a3,1023
    17a2:	12f6df63          	bge	a3,a5,18e0 <main+0x81a>
    17a6:	8536                	mv	a0,a3
	uint16_t opamp_mv_raw = ((uint32_t)opamp_calibrated_adc * system_mv) / ADC_MAXIMUM;
    17a8:	45d2                	lw	a1,20(sp)
    17aa:	0542                	slli	a0,a0,0x10
    17ac:	8541                	srai	a0,a0,0x10
    17ae:	d77fe0ef          	jal	524 <__mulsi3>
    17b2:	3ff00593          	li	a1,1023
    17b6:	d8ffe0ef          	jal	544 <__hidden___udivsi3>
	uint16_t opamp_ma = ((opamp_mv_raw * 1000) / OPAMP_SENSE_MILLOHM) >> OPAMP_GAIN_SHIFT;
    17ba:	00551793          	slli	a5,a0,0x5
    17be:	8f89                	sub	a5,a5,a0
    17c0:	078a                	slli	a5,a5,0x2
    17c2:	953e                	add	a0,a0,a5
    17c4:	02500593          	li	a1,37
    17c8:	050e                	slli	a0,a0,0x3
    17ca:	d73fe0ef          	jal	53c <__divsi3>
	_average_current_buffer[average_index] = opamp_read_rsense_ma(system_mv);
    17ce:	5702                	lw	a4,32(sp)
    17d0:	00141793          	slli	a5,s0,0x1
	uint16_t opamp_ma = ((opamp_mv_raw * 1000) / OPAMP_SENSE_MILLOHM) >> OPAMP_GAIN_SHIFT;
    17d4:	8511                	srai	a0,a0,0x4
	_average_current_buffer[average_index] = opamp_read_rsense_ma(system_mv);
    17d6:	97ba                	add	a5,a5,a4
	rolling_sum += _average_current_buffer[average_index];
    17d8:	4772                	lw	a4,28(sp)
	uint16_t opamp_ma = ((opamp_mv_raw * 1000) / OPAMP_SENSE_MILLOHM) >> OPAMP_GAIN_SHIFT;
    17da:	00a79023          	sh	a0,0(a5)
	rolling_sum += _average_current_buffer[average_index];
    17de:	01051793          	slli	a5,a0,0x10
    17e2:	83c1                	srli	a5,a5,0x10
    17e4:	97ba                	add	a5,a5,a4
    17e6:	c4f1a823          	sw	a5,-944(gp) # 2000004c <rolling_sum.1>
	average_index = (average_index + 1) & (AVG_SAMPLES - 1);
    17ea:	00140713          	addi	a4,s0,1
	return (uint16_t)(rolling_sum >> AVG_DIV_SHIFT);
    17ee:	838d                	srli	a5,a5,0x3
	average_index = (average_index + 1) & (AVG_SAMPLES - 1);
    17f0:	8b1d                	andi	a4,a4,7
	return (uint16_t)(rolling_sum >> AVG_DIV_SHIFT);
    17f2:	07c2                	slli	a5,a5,0x10
	average_index = (average_index + 1) & (AVG_SAMPLES - 1);
    17f4:	c4e18623          	sb	a4,-948(gp) # 20000048 <average_index.0>
	return (uint16_t)(rolling_sum >> AVG_DIV_SHIFT);
    17f8:	83c1                	srli	a5,a5,0x10
			g_battery_current_ma = battery_read_average_ma(system_mv);
    17fa:	c4f19c23          	sh	a5,-936(gp) # 20000054 <g_battery_current_ma>
			if(  (g_battery_voltage_mv <= BATTERY_UNDERVOLTAGE_SHUTDOWN_MV) ||
    17fe:	6711                	lui	a4,0x4
    1800:	b6070713          	addi	a4,a4,-1184 # 3b60 <tcrhmag.c.981c507b+0x51e>
    1804:	00977763          	bgeu	a4,s1,1812 <main+0x74c>
    1808:	6705                	lui	a4,0x1
    180a:	57b70713          	addi	a4,a4,1403 # 157b <main+0x4b5>
    180e:	00f77a63          	bgeu	a4,a5,1822 <main+0x75c>
				g_user_input_mode	  = UI_MODE_ERROR;
    1812:	4715                	li	a4,5
				g_target_temperature  = 0;
    1814:	c2019423          	sh	zero,-984(gp) # 20000024 <g_target_temperature>
				g_user_input_mode	  = UI_MODE_ERROR;
    1818:	c2e1aa23          	sw	a4,-972(gp) # 20000030 <g_user_input_mode>
				g_system_state        = SYSTEM_STATE_ERROR_LOCKOUT;
    181c:	470d                	li	a4,3
    181e:	c6e1a623          	sw	a4,-916(gp) # 20000068 <g_system_state>
			millis_prev_battery_check = g_systick_millis;
    1822:	c681a783          	lw	a5,-920(gp) # 20000064 <g_systick_millis>
    1826:	ca3e                	sw	a5,20(sp)
		if(g_systick_millis - millis_prev_display_update > MILLIS_DISPLAY_UPDATE)
    1828:	4712                	lw	a4,4(sp)
    182a:	c681a783          	lw	a5,-920(gp) # 20000064 <g_systick_millis>
    182e:	8f99                	sub	a5,a5,a4
    1830:	0fa00713          	li	a4,250
    1834:	02f77c63          	bgeu	a4,a5,186c <main+0x7a6>
			if(p_user_input_mode != g_user_input_mode)
    1838:	c341a403          	lw	s0,-972(gp) # 20000030 <g_user_input_mode>
    183c:	c541a783          	lw	a5,-940(gp) # 20000050 <p_user_input_mode.3>
    1840:	00878b63          	beq	a5,s0,1856 <main+0x790>
}


void oled_clear_display(void)
{
	memset(&_oled_buffer[0][0], 0x00, OLED_WIDTH * OLED_PAGES);
    1844:	40000613          	li	a2,1024
    1848:	4581                	li	a1,0
    184a:	c8018513          	addi	a0,gp,-896 # 2000007c <_oled_buffer>
    184e:	f3aff0ef          	jal	f88 <memset>
				p_user_input_mode = g_user_input_mode;
    1852:	c481aa23          	sw	s0,-940(gp) # 20000050 <p_user_input_mode.3>
			switch(g_user_input_mode)
    1856:	4785                	li	a5,1
    1858:	08f40a63          	beq	s0,a5,18ec <main+0x826>
    185c:	4795                	li	a5,5
    185e:	18f40963          	beq	s0,a5,19f0 <main+0x92a>
			oled_update();
    1862:	be8ff0ef          	jal	c4a <oled_update.isra.0>
			millis_prev_display_update = g_systick_millis;
    1866:	c681a783          	lw	a5,-920(gp) # 20000064 <g_systick_millis>
    186a:	c23e                	sw	a5,4(sp)
{ IWDG->CTLR = 0xAAAA; }
    186c:	67ad                	lui	a5,0xb
    186e:	40003737          	lui	a4,0x40003
    1872:	aaa78793          	addi	a5,a5,-1366 # aaaa <oled.c.a655e948+0x4d00>
    1876:	c31c                	sw	a5,0(a4)
    1878:	b131                	j	1484 <main+0x3be>
					led_val += led_inc;
    187a:	c3018683          	lb	a3,-976(gp) # 2000002c <led_inc.7>
    187e:	c641d783          	lhu	a5,-924(gp) # 20000060 <led_val.8>
					if(led_val >= LED_MAXIMUM_PWM || led_val <= LED_MINIMUM_PWM)
    1882:	0df00313          	li	t1,223
					led_val += led_inc;
    1886:	97b6                	add	a5,a5,a3
    1888:	01079513          	slli	a0,a5,0x10
					if(led_val >= LED_MAXIMUM_PWM || led_val <= LED_MINIMUM_PWM)
    188c:	1785                	addi	a5,a5,-31
    188e:	07c2                	slli	a5,a5,0x10
    1890:	83c1                	srli	a5,a5,0x10
					led_val += led_inc;
    1892:	8541                	srai	a0,a0,0x10
					if(led_val >= LED_MAXIMUM_PWM || led_val <= LED_MINIMUM_PWM)
    1894:	00f36563          	bltu	t1,a5,189e <main+0x7d8>
					led_val += led_inc;
    1898:	c6a19223          	sh	a0,-924(gp) # 20000060 <led_val.8>
    189c:	b909                	j	14ae <main+0x3e8>
						led_val = (led_val >= LED_MAXIMUM_PWM) ? LED_MAXIMUM_PWM : LED_MINIMUM_PWM;
    189e:	0fe00313          	li	t1,254
    18a2:	47f9                	li	a5,30
    18a4:	00a35463          	bge	t1,a0,18ac <main+0x7e6>
    18a8:	0ff00793          	li	a5,255
						led_inc = -led_inc;
    18ac:	40d006b3          	neg	a3,a3
						led_val = (led_val >= LED_MAXIMUM_PWM) ? LED_MAXIMUM_PWM : LED_MINIMUM_PWM;
    18b0:	c6f19223          	sh	a5,-924(gp) # 20000060 <led_val.8>
						led_inc = -led_inc;
    18b4:	c2d18823          	sb	a3,-976(gp) # 2000002c <led_inc.7>
    18b8:	bedd                	j	14ae <main+0x3e8>
					led_val = 0;
    18ba:	c6019223          	sh	zero,-924(gp) # 20000060 <led_val.8>
					break;
    18be:	bec5                	j	14ae <main+0x3e8>
							} else if(g_system_state == SYSTEM_STATE_HEATER_ENABLED) {
    18c0:	c8e692e3          	bne	a3,a4,1544 <main+0x47e>
								g_system_state = SYSTEM_STATE_HEATER_DISABLED;
    18c4:	c6f1a623          	sw	a5,-916(gp) # 20000068 <g_system_state>
    18c8:	b9b5                	j	1544 <main+0x47e>
	for(uint16_t ti = 0; ti < therm_max_index; ti++)
    18ca:	0785                	addi	a5,a5,1
    18cc:	0611                	addi	a2,a2,4
    18ce:	cca79ce3          	bne	a5,a0,15a6 <main+0x4e0>
		return thermistor_pair[0].temp_c;
    18d2:	4501                	li	a0,0
    18d4:	bb09                	j	15e6 <main+0x520>
	cv = CLAMP_MIN_MAX(cv, pid->out_min, pid->out_max);
    18d6:	fff54793          	not	a5,a0
    18da:	87fd                	srai	a5,a5,0x1f
    18dc:	8d7d                	and	a0,a0,a5
    18de:	bb49                	j	1670 <main+0x5aa>
	if(opamp_calibrated_adc < 0)     opamp_calibrated_adc = 0;
    18e0:	01051793          	slli	a5,a0,0x10
    18e4:	ec07d2e3          	bgez	a5,17a8 <main+0x6e2>
    18e8:	4501                	li	a0,0
    18ea:	bd7d                	j	17a8 <main+0x6e2>


void oled_draw_battery_current(const uint16_t batt_ma)
{
	static char current_str[7] = "00.00A";
	append_formatted_2dp_string(batt_ma, &current_str[0]);
    18ec:	c581d503          	lhu	a0,-936(gp) # 20000054 <g_battery_current_ma>
    18f0:	c1818593          	addi	a1,gp,-1000 # 20000014 <current_str.3>
    18f4:	f9dfe0ef          	jal	890 <append_formatted_2dp_string>
	if(str == NULL || ptr == NULL) return;
    18f8:	c1818513          	addi	a0,gp,-1000 # 20000014 <current_str.3>
    18fc:	c8018593          	addi	a1,gp,-896 # 2000007c <_oled_buffer>
    1900:	f2cff0ef          	jal	102c <font8x8_to_framebuffer.part.0>


void oled_draw_battery_voltage(const uint16_t batt_mv)
{
	static char voltage_str[7] = "00.00V";
	append_formatted_2dp_string(batt_mv, &voltage_str[0]);
    1904:	c5a1d503          	lhu	a0,-934(gp) # 20000056 <g_battery_voltage_mv>
    1908:	c2018593          	addi	a1,gp,-992 # 2000001c <voltage_str.2>
    190c:	f85fe0ef          	jal	890 <append_formatted_2dp_string>
	if(str == NULL || ptr == NULL) return;
    1910:	c2018513          	addi	a0,gp,-992 # 2000001c <voltage_str.2>
    1914:	cd218593          	addi	a1,gp,-814 # 200000ce <_oled_buffer+0x52>
    1918:	f14ff0ef          	jal	102c <font8x8_to_framebuffer.part.0>
					oled_draw_temperature(g_target_temperature, g_actual_temperature);
    191c:	c281d403          	lhu	s0,-984(gp) # 20000024 <g_target_temperature>
    1920:	c601d783          	lhu	a5,-928(gp) # 2000005c <g_actual_temperature>
	str[0] = '0' + ((val / 100) % 10);
    1924:	06400593          	li	a1,100
    1928:	8522                	mv	a0,s0
    192a:	c23e                	sw	a5,4(sp)
    192c:	c19fe0ef          	jal	544 <__hidden___udivsi3>
    1930:	0542                	slli	a0,a0,0x10
    1932:	45a9                	li	a1,10
    1934:	8141                	srli	a0,a0,0x10
    1936:	c3bfe0ef          	jal	570 <__umodsi3>
    193a:	03050513          	addi	a0,a0,48
    193e:	c0a18823          	sb	a0,-1008(gp) # 2000000c <target_str.1>
	str[1] = '0' + ((val / 10)  % 10);
    1942:	45a9                	li	a1,10
    1944:	8522                	mv	a0,s0
    1946:	c1018493          	addi	s1,gp,-1008 # 2000000c <target_str.1>
    194a:	bfbfe0ef          	jal	544 <__hidden___udivsi3>
    194e:	0542                	slli	a0,a0,0x10
    1950:	45a9                	li	a1,10
    1952:	8141                	srli	a0,a0,0x10
    1954:	c1dfe0ef          	jal	570 <__umodsi3>
    1958:	03050513          	addi	a0,a0,48
    195c:	00a480a3          	sb	a0,1(s1)
	str[2] = '0' +  (val % 10);	
    1960:	45a9                	li	a1,10
    1962:	8522                	mv	a0,s0
    1964:	c0dfe0ef          	jal	570 <__umodsi3>
    1968:	03050513          	addi	a0,a0,48
    196c:	00a48123          	sb	a0,2(s1)
	str[0] = '0' + ((val / 100) % 10);
    1970:	4512                	lw	a0,4(sp)
    1972:	06400593          	li	a1,100
    1976:	bcffe0ef          	jal	544 <__hidden___udivsi3>
    197a:	0542                	slli	a0,a0,0x10
    197c:	45a9                	li	a1,10
    197e:	8141                	srli	a0,a0,0x10
    1980:	bf1fe0ef          	jal	570 <__umodsi3>
    1984:	03050513          	addi	a0,a0,48
    1988:	c0a18423          	sb	a0,-1016(gp) # 20000004 <actual_str.0>
	str[1] = '0' + ((val / 10)  % 10);
    198c:	4512                	lw	a0,4(sp)
    198e:	45a9                	li	a1,10
    1990:	c0818413          	addi	s0,gp,-1016 # 20000004 <actual_str.0>
    1994:	bb1fe0ef          	jal	544 <__hidden___udivsi3>
    1998:	0542                	slli	a0,a0,0x10
    199a:	45a9                	li	a1,10
    199c:	8141                	srli	a0,a0,0x10
    199e:	bd3fe0ef          	jal	570 <__umodsi3>
    19a2:	03050513          	addi	a0,a0,48
    19a6:	00a400a3          	sb	a0,1(s0)
	str[2] = '0' +  (val % 10);	
    19aa:	4512                	lw	a0,4(sp)
    19ac:	45a9                	li	a1,10
    19ae:	bc3fe0ef          	jal	570 <__umodsi3>
    19b2:	03050513          	addi	a0,a0,48
    19b6:	00a40123          	sb	a0,2(s0)
	if(str == NULL || ptr == NULL) return;
    19ba:	6509                	lui	a0,0x2
    19bc:	d0018593          	addi	a1,gp,-768 # 200000fc <_oled_buffer+0x80>
    19c0:	dc450513          	addi	a0,a0,-572 # 1dc4 <__clz_tab+0x130>
    19c4:	e68ff0ef          	jal	102c <font8x8_to_framebuffer.part.0>
	if(str == NULL || ptr == NULL) return;
    19c8:	c1018513          	addi	a0,gp,-1008 # 2000000c <target_str.1>
    19cc:	d9818593          	addi	a1,gp,-616 # 20000194 <_oled_buffer+0x118>
    19d0:	de0ff0ef          	jal	fb0 <font16x16_to_framebuffer.part.0>
	if(str == NULL || ptr == NULL) return;
    19d4:	6509                	lui	a0,0x2
    19d6:	f0018593          	addi	a1,gp,-256 # 200002fc <_oled_buffer+0x280>
    19da:	dd850513          	addi	a0,a0,-552 # 1dd8 <__clz_tab+0x144>
    19de:	e4eff0ef          	jal	102c <font8x8_to_framebuffer.part.0>
	if(str == NULL || ptr == NULL) return;
    19e2:	f9818593          	addi	a1,gp,-104 # 20000394 <_oled_buffer+0x318>
    19e6:	c0818513          	addi	a0,gp,-1016 # 20000004 <actual_str.0>
    19ea:	dc6ff0ef          	jal	fb0 <font16x16_to_framebuffer.part.0>

	font8x8_to_framebuffer("~~~~ TARGET ~~~~",  &_oled_buffer[1][0]);	
	font16x16_to_framebuffer(target_str,        &_oled_buffer[2][24]);
	font8x8_to_framebuffer("~~~~ ACTUAL ~~~~",  &_oled_buffer[5][0]);
	font16x16_to_framebuffer(actual_str,        &_oled_buffer[6][24]);
}
    19ee:	bd95                	j	1862 <main+0x79c>
	append_formatted_2dp_string(batt_ma, &current_str[0]);
    19f0:	c581d503          	lhu	a0,-936(gp) # 20000054 <g_battery_current_ma>
    19f4:	c1818593          	addi	a1,gp,-1000 # 20000014 <current_str.3>
    19f8:	e99fe0ef          	jal	890 <append_formatted_2dp_string>
	if(str == NULL || ptr == NULL) return;
    19fc:	c1818513          	addi	a0,gp,-1000 # 20000014 <current_str.3>
    1a00:	c8018593          	addi	a1,gp,-896 # 2000007c <_oled_buffer>
    1a04:	e28ff0ef          	jal	102c <font8x8_to_framebuffer.part.0>
	append_formatted_2dp_string(batt_mv, &voltage_str[0]);
    1a08:	c5a1d503          	lhu	a0,-934(gp) # 20000056 <g_battery_voltage_mv>
    1a0c:	c2018593          	addi	a1,gp,-992 # 2000001c <voltage_str.2>
    1a10:	e81fe0ef          	jal	890 <append_formatted_2dp_string>
	if(str == NULL || ptr == NULL) return;
    1a14:	c2018513          	addi	a0,gp,-992 # 2000001c <voltage_str.2>
    1a18:	cd218593          	addi	a1,gp,-814 # 200000ce <_oled_buffer+0x52>
    1a1c:	e10ff0ef          	jal	102c <font8x8_to_framebuffer.part.0>
    1a20:	6509                	lui	a0,0x2
    1a22:	e1018593          	addi	a1,gp,-496 # 2000020c <_oled_buffer+0x190>
    1a26:	dec50513          	addi	a0,a0,-532 # 1dec <__clz_tab+0x158>
    1a2a:	e02ff0ef          	jal	102c <font8x8_to_framebuffer.part.0>
    1a2e:	6509                	lui	a0,0x2
    1a30:	e8818593          	addi	a1,gp,-376 # 20000284 <_oled_buffer+0x208>
    1a34:	dfc50513          	addi	a0,a0,-516 # 1dfc <__clz_tab+0x168>
    1a38:	df4ff0ef          	jal	102c <font8x8_to_framebuffer.part.0>
					break;
    1a3c:	b51d                	j	1862 <main+0x79c>

00001a3e <SysTick_Handler>:
{
    1a3e:	1151                	addi	sp,sp,-12
    1a40:	c03e                	sw	a5,0(sp)
	SysTick->CMP += SYSTICK_ONE_MILLISECOND;
    1a42:	e000f7b7          	lui	a5,0xe000f
{
    1a46:	c23a                	sw	a4,4(sp)
	SysTick->CMP += SYSTICK_ONE_MILLISECOND;
    1a48:	4b98                	lw	a4,16(a5)
{
    1a4a:	c436                	sw	a3,8(sp)
	SysTick->CMP += SYSTICK_ONE_MILLISECOND;
    1a4c:	66b1                	lui	a3,0xc
    1a4e:	b8068693          	addi	a3,a3,-1152 # bb80 <oled.c.a655e948+0x5dd6>
    1a52:	9736                	add	a4,a4,a3
    1a54:	cb98                	sw	a4,16(a5)
	SysTick->SR = 0x00000000;
    1a56:	0007a223          	sw	zero,4(a5) # e000f004 <_eusrstack+0xc000e804>
	g_systick_millis++;
    1a5a:	c681a783          	lw	a5,-920(gp) # 20000064 <g_systick_millis>
}
    1a5e:	46a2                	lw	a3,8(sp)
	g_systick_millis++;
    1a60:	0785                	addi	a5,a5,1
    1a62:	c6f1a423          	sw	a5,-920(gp) # 20000064 <g_systick_millis>
}
    1a66:	4712                	lw	a4,4(sp)
    1a68:	4782                	lw	a5,0(sp)
    1a6a:	0131                	addi	sp,sp,12
    1a6c:	30200073          	mret

00001a70 <EXTI7_0_IRQHandler>:
{
    1a70:	1121                	addi	sp,sp,-24
    1a72:	c03e                	sw	a5,0(sp)
	if((EXTI->INTFR & 0x00000010) || (EXTI->INTFR & 0x00000020))
    1a74:	400107b7          	lui	a5,0x40010
    1a78:	40078793          	addi	a5,a5,1024 # 40010400 <_eusrstack+0x2000fc00>
{
    1a7c:	c23a                	sw	a4,4(sp)
	if((EXTI->INTFR & 0x00000010) || (EXTI->INTFR & 0x00000020))
    1a7e:	4bd8                	lw	a4,20(a5)
{
    1a80:	ca2a                	sw	a0,20(sp)
    1a82:	c82e                	sw	a1,16(sp)
    1a84:	c632                	sw	a2,12(sp)
    1a86:	c436                	sw	a3,8(sp)
	if((EXTI->INTFR & 0x00000010) || (EXTI->INTFR & 0x00000020))
    1a88:	8b41                	andi	a4,a4,16
    1a8a:	e709                	bnez	a4,1a94 <EXTI7_0_IRQHandler+0x24>
    1a8c:	4bdc                	lw	a5,20(a5)
    1a8e:	0207f793          	andi	a5,a5,32
    1a92:	cfb5                	beqz	a5,1b0e <EXTI7_0_IRQHandler+0x9e>
		if(EXTI->INTFR & 0x10) EXTI->INTFR = 0x10;
    1a94:	40010737          	lui	a4,0x40010
		uint32_t portc_read = GPIOC->INDR;
    1a98:	400117b7          	lui	a5,0x40011
		if(EXTI->INTFR & 0x10) EXTI->INTFR = 0x10;
    1a9c:	40070713          	addi	a4,a4,1024 # 40010400 <_eusrstack+0x2000fc00>
		uint32_t portc_read = GPIOC->INDR;
    1aa0:	479c                	lw	a5,8(a5)
		if(EXTI->INTFR & 0x10) EXTI->INTFR = 0x10;
    1aa2:	4b54                	lw	a3,20(a4)
    1aa4:	8ac1                	andi	a3,a3,16
    1aa6:	c299                	beqz	a3,1aac <EXTI7_0_IRQHandler+0x3c>
    1aa8:	46c1                	li	a3,16
    1aaa:	cb54                	sw	a3,20(a4)
		if(EXTI->INTFR & 0x20) EXTI->INTFR = 0x20;
    1aac:	4b54                	lw	a3,20(a4)
    1aae:	0206f693          	andi	a3,a3,32
    1ab2:	c681                	beqz	a3,1aba <EXTI7_0_IRQHandler+0x4a>
    1ab4:	02000693          	li	a3,32
    1ab8:	cb54                	sw	a3,20(a4)
		int8_t step = rotenc_table[ (rotenc_prev_bitmask << 2) | rotenc_curr_bitmask ];
    1aba:	c0418683          	lb	a3,-1020(gp) # 20000000 <rotenc_prev_bitmask.1>
		       int8_t rotenc_curr_bitmask = (((portc_read >> 4) & 1) << 1) | ((portc_read >> 5) & 1);
    1abe:	0037d713          	srli	a4,a5,0x3
    1ac2:	8395                	srli	a5,a5,0x5
    1ac4:	8b09                	andi	a4,a4,2
    1ac6:	8b85                	andi	a5,a5,1
    1ac8:	00f76633          	or	a2,a4,a5
		int8_t step = rotenc_table[ (rotenc_prev_bitmask << 2) | rotenc_curr_bitmask ];
    1acc:	068a                	slli	a3,a3,0x2
    1ace:	6789                	lui	a5,0x2
    1ad0:	8ed1                	or	a3,a3,a2
    1ad2:	1e878793          	addi	a5,a5,488 # 21e8 <rotenc_table>
    1ad6:	97b6                	add	a5,a5,a3
		       int8_t rotenc_curr_bitmask = (((portc_read >> 4) & 1) << 1) | ((portc_read >> 5) & 1);
    1ad8:	8732                	mv	a4,a2
		accumulator += step;
    1ada:	c3c1c683          	lbu	a3,-964(gp) # 20000038 <accumulator.0>
    1ade:	0007c783          	lbu	a5,0(a5)
		     if(accumulator >=  4) { g_rotary_encoder_clicks++; accumulator -= 4; }
    1ae2:	450d                	li	a0,3
		accumulator += step;
    1ae4:	97b6                	add	a5,a5,a3
    1ae6:	0ff7f693          	zext.b	a3,a5
    1aea:	07e2                	slli	a5,a5,0x18
    1aec:	87e1                	srai	a5,a5,0x18
    1aee:	c2f18e23          	sb	a5,-964(gp) # 20000038 <accumulator.0>
		     if(accumulator >=  4) { g_rotary_encoder_clicks++; accumulator -= 4; }
    1af2:	02f55763          	bge	a0,a5,1b20 <EXTI7_0_IRQHandler+0xb0>
    1af6:	c621d783          	lhu	a5,-926(gp) # 2000005e <g_rotary_encoder_clicks>
    1afa:	16f1                	addi	a3,a3,-4
    1afc:	0785                	addi	a5,a5,1
    1afe:	07c2                	slli	a5,a5,0x10
    1b00:	87c1                	srai	a5,a5,0x10
    1b02:	c6f19123          	sh	a5,-926(gp) # 2000005e <g_rotary_encoder_clicks>
		else if(accumulator <= -4) { g_rotary_encoder_clicks--; accumulator += 4; }
    1b06:	c2d18e23          	sb	a3,-964(gp) # 20000038 <accumulator.0>
		rotenc_prev_bitmask = rotenc_curr_bitmask;
    1b0a:	c0e18223          	sb	a4,-1020(gp) # 20000000 <rotenc_prev_bitmask.1>
}
    1b0e:	4552                	lw	a0,20(sp)
    1b10:	45c2                	lw	a1,16(sp)
    1b12:	4632                	lw	a2,12(sp)
    1b14:	46a2                	lw	a3,8(sp)
    1b16:	4712                	lw	a4,4(sp)
    1b18:	4782                	lw	a5,0(sp)
    1b1a:	0161                	addi	sp,sp,24
    1b1c:	30200073          	mret
		else if(accumulator <= -4) { g_rotary_encoder_clicks--; accumulator += 4; }
    1b20:	5575                	li	a0,-3
    1b22:	fea7d4e3          	bge	a5,a0,1b0a <EXTI7_0_IRQHandler+0x9a>
    1b26:	c621d783          	lhu	a5,-926(gp) # 2000005e <g_rotary_encoder_clicks>
    1b2a:	0691                	addi	a3,a3,4
    1b2c:	17fd                	addi	a5,a5,-1
    1b2e:	07c2                	slli	a5,a5,0x10
    1b30:	87c1                	srai	a5,a5,0x10
    1b32:	c6f19123          	sh	a5,-926(gp) # 2000005e <g_rotary_encoder_clicks>
    1b36:	bfc1                	j	1b06 <EXTI7_0_IRQHandler+0x96>

00001b38 <thermistor_pair>:
    1b38:	0000 03f1 0004 03ee 0008 03ea 000c 03e5     ................
    1b48:	0010 03e0 0014 03da 0018 03d3 001c 03cb     ................
    1b58:	0020 03c2 0024 03b7 0028 03ac 002c 039f      ...$...(...,...
    1b68:	0030 0390 0034 0380 0038 036f 003c 035c     0...4...8.o.<.\.
    1b78:	0040 0348 0044 0333 0048 031c 004c 0304     @.H.D.3.H...L...
    1b88:	0050 02eb 0054 02d1 0058 02b6 005c 029b     P...T...X...\...
    1b98:	0060 027f 0064 0263 0068 0247 006c 022c     `...d.c.h.G.l.,.
    1ba8:	0070 0210 0074 01f5 0078 01db 007c 01c1     p...t...x...|...
    1bb8:	0080 01a8 0084 0190 0088 0179 008c 0163     ..........y...c.
    1bc8:	0090 014f 0094 013b 0098 0128 009c 0116     ..O...;...(.....
    1bd8:	00a0 0105 00a4 00f5 00a8 00e6 00ac 00d8     ................
    1be8:	00b0 00cb 00b4 00bf 00b8 00b3 00bc 00a8     ................
    1bf8:	00c0 009e 00c4 0095 00c8 008c 00cc 0084     ................
    1c08:	00d0 007c 00d4 0075 00d8 006e 00dc 0068     ..|...u...n...h.
    1c18:	00e0 0062 00e4 005c 00e8 0057 00ec 0053     ..b...\...W...S.
    1c28:	00f0 004e 00f4 004a 00f8 0046 00fc 0042     ..N...J...F...B.
    1c38:	0100 003f 0104 003c 0108 0039 010c 0036     ..?...<...9...6.
    1c48:	0110 0033 0114 0031 0118 002e 011c 002c     ..3...1.......,.
    1c58:	0120 002a 0124 0028 0128 0026 012c 0025      .*.$.(.(.&.,.%.
    1c68:	4240 000f 0000 0000 003c 0001 07d0 0000     @B......<.......
    1c78:	d5ae a8f0 d33f 4000 148d 0020 c8a1 12da     ....?..@.. .....
    1c88:	7f81 22d9 40db a6a4 00af 0000               ...".@......

00001c94 <__clz_tab>:
    1c94:	0100 0202 0303 0303 0404 0404 0404 0404     ................
    1ca4:	0505 0505 0505 0505 0505 0505 0505 0505     ................
    1cb4:	0606 0606 0606 0606 0606 0606 0606 0606     ................
    1cc4:	0606 0606 0606 0606 0606 0606 0606 0606     ................
    1cd4:	0707 0707 0707 0707 0707 0707 0707 0707     ................
    1ce4:	0707 0707 0707 0707 0707 0707 0707 0707     ................
    1cf4:	0707 0707 0707 0707 0707 0707 0707 0707     ................
    1d04:	0707 0707 0707 0707 0707 0707 0707 0707     ................
    1d14:	0808 0808 0808 0808 0808 0808 0808 0808     ................
    1d24:	0808 0808 0808 0808 0808 0808 0808 0808     ................
    1d34:	0808 0808 0808 0808 0808 0808 0808 0808     ................
    1d44:	0808 0808 0808 0808 0808 0808 0808 0808     ................
    1d54:	0808 0808 0808 0808 0808 0808 0808 0808     ................
    1d64:	0808 0808 0808 0808 0808 0808 0808 0808     ................
    1d74:	0808 0808 0808 0808 0808 0808 0808 0808     ................
    1d84:	0808 0808 0808 0808 0808 0808 0808 0808     ................
    1d94:	4f42 544f 4e49 0047 4354 4852 414d 0047     BOOTING.TCRHMAG.
    1da4:	3156 322e 0000 0000 666f 7366 7465 203a     V1.2....offset: 
    1db4:	6425 6709 6961 3a6e 2520 0a64 0000 0000     %d.gain: %d.....
    1dc4:	7e7e 7e7e 5420 5241 4547 2054 7e7e 7e7e     ~~~~ TARGET ~~~~
    1dd4:	0000 0000 7e7e 7e7e 4120 5443 4155 204c     ....~~~~ ACTUAL 
    1de4:	7e7e 7e7e 0000 0000 5953 5453 4d45 4520     ~~~~....SYSTEM E
    1df4:	5252 524f 0000 0000 4153 4546 5954 4c20     RROR....SAFETY L
    1e04:	434f 4f4b 5455 0000                         OCKOUT..

00001e0c <font8x8_data>:
	...
    1e14:	6646 1830 660c 0062 0000 6060 0000 0000     Ff0..fb...``....
    1e24:	7f3e 5971 7f4d 003e 4240 7f7f 4040 0000     >.qYM.>.@B..@@..
    1e34:	7362 4959 666f 0000 6322 4949 367f 0000     bsYIof.."cII.6..
    1e44:	1c18 5316 7f7f 0050 6727 4545 397d 0000     ...S..P.'gEE}9..
    1e54:	7e3c 494b 3079 0000 0303 7971 070f 0000     <~KIy0....qy....
    1e64:	7f36 4949 367f 0000 4f06 6949 1e3f 0000     6.II.6...OIi?...
    1e74:	0000 6666 0000 0000 8000 66e6 0000 0000     ..ff.......f....
    1e84:	1c08 6336 0041 0000 2424 2424 2424 0000     ..6cA...$$$$$$..
    1e94:	4100 3663 081c 0000 0302 5951 060f 0000     .Ac6......QY....
    1ea4:	7f3e 5d41 1f5d 001e 7e7c 1313 7c7e 0000     >.A]]...|~..~|..
    1eb4:	7f41 497f 7f49 0036 3e1c 4163 6341 0022     A..II.6..>cAAc".
    1ec4:	7f41 417f 3e63 001c 7f41 497f 415d 0063     A..Ac>..A..I]Ac.
    1ed4:	7f41 497f 011d 0003 3e1c 4163 7351 0072     A..I.....>cAQsr.
    1ee4:	7f7f 0808 7f7f 0000 4100 7f7f 0041 0000     .........A..A...
    1ef4:	7030 4140 3f7f 0001 7f41 087f 771c 0063     0p@A.?..A....wc.
    1f04:	7f41 417f 6040 0070 7f7f 1c0e 7f0e 007f     A..A@`p.........
    1f14:	7f7f 0c06 7f18 007f 3e1c 4163 3e63 001c     .........>cAc>..
    1f24:	7f41 497f 0f09 0006 3f1e 7121 5e7f 0000     A..I.....?!q.^..
    1f34:	7f41 097f 7f19 0066 6f26 594d 3273 0000     A.....f.&oMYs2..
    1f44:	4103 7f7f 0341 0000 7f7f 4040 7f7f 0000     .A..A.....@@....
    1f54:	3f1f 6060 1f3f 0000 7f7f 1830 7f30 007f     .?``?.....0.0...
    1f64:	6743 183c 673c 0043 4f07 7878 074f 0000     Cg<.<gC..OxxO...
    1f74:	6347 5971 674d 0073 1818 1818 1818 1818     GcqYMgs.........

00001f84 <font8x8_lut>:
    1f84:	2520 302e 3231 3433 3635 3837 3a39 3c3b      %.0123456789:;<
    1f94:	3e3d 403f 4241 4443 4645 4847 4a49 4c4b     =>?@ABCDEFGHIJKL
    1fa4:	4e4d 504f 5251 5453 5655 5857 5a59 007e     MNOPQRSTUVWXYZ~.

00001fb4 <font16x16_data>:
	...
    1fe0:	0000 1800 1800 0000 0000 0000 0000 0000     ................
	...
    1ffc:	1ff0 3ff8 3018 2008 2008 2008 3018 3ff8     ...?.0. . . .0.?
    200c:	1ff0 0000 0000 0000 0000 0000 0000 0000     ................
    201c:	0000 0000 0000 3ff8 3ff8 0000 0000 0000     .......?.?......
	...
    203c:	3e08 3f08 2108 2108 2108 2108 2108 21f8     .>.?.!.!.!.!.!.!
    204c:	20f0 0000 0000 0000 0000 0000 0000 0000     . ..............
    205c:	2008 2108 2108 2108 2108 2108 2108 3ff8     . .!.!.!.!.!.!.?
    206c:	1ff0 0000 0000 0000 0000 0000 0000 0000     ................
    207c:	01f8 03f8 0200 0200 0200 3f80 3f80 0200     ...........?.?..
    208c:	0200 0000 0000 0000 0000 0000 0000 0000     ................
    209c:	21f8 21f8 2108 2108 2108 2108 2108 3f08     .!.!.!.!.!.!.!.?
    20ac:	1e08 0000 0000 0000 0000 0000 0000 0000     ................
    20bc:	1ff0 3ff8 3188 2088 2088 2088 2088 3188     ...?.1. . . . .1
    20cc:	1f88 1f00 0000 0000 0000 0000 0000 0000     ................
    20dc:	0008 0008 3008 3c08 0f08 03c8 00f8 0038     .....0.<......8.
    20ec:	0008 0000 0000 0000 0000 0000 0000 0000     ................
    20fc:	1ef0 3ff8 2108 2108 2108 2108 2108 3ff8     ...?.!.!.!.!.!.?
    210c:	1ff0 0000 0000 0000 0000 0000 0000 0000     ................
    211c:	01f0 21f8 2318 2208 2208 2208 2208 2318     ...!.#.".".".".#
    212c:	3ff8 1ff0 0000 0000 0000 0000 0000 0000     .?..............
    213c:	1ff0 3ff8 2008 2008 2008 2008 2008 2008     ...?. . . . . . 
    214c:	2008 0000 0000 0000 0000 0000 0000 0000     . ..............
    215c:	3ff0 3ff8 0108 0108 0108 0108 0108 0108     .?.?............
    216c:	0108 0000 0000 0000 0000 0000 0000 0000     ................
    217c:	0000 0038 007c 0044 0044 0044 007c 0038     ..8.|.D.D.D.|.8.
	...
    21a0:	7ffe 7ffe 6002 6002 6002 0000 0000 0000     .....`.`.`......
	...
    21c0:	6002 6002 7ffe 7ffe 0000 0000 0000 0000     .`.`............
    21d0:	0000 0000                                   ....

000021d4 <font16_16_lut>:
    21d4:	2e20 3130 3332 3534 3736 3938 4643 5b60      .0123456789CF`[
    21e4:	005d 0000                                   ]...

000021e8 <rotenc_table>:
    21e8:	ff00 0001 0001 ff00 00ff 0100 0100 00ff     ................

000021f8 <GPIO_PORT_MAP>:
    21f8:	0800 4001 0000 0000 1000 4001 1400 4001     ...@.......@...@
